
conform.elf:     file format elf32-littleriscv


Disassembly of section .init:

80000000 <_start>:
80000000:	fc1022f3          	csrr	t0,0xfc1
80000004:	00001317          	auipc	t1,0x1
80000008:	a3430313          	add	t1,t1,-1484 # 80000a38 <init_regs_all>
8000000c:	0062900b          	.4byte	0x62900b
80000010:	fff00293          	li	t0,-1
80000014:	0002800b          	.4byte	0x2800b
80000018:	1f1000ef          	jal	80000a08 <init_regs>
8000001c:	00100293          	li	t0,1
80000020:	0002800b          	.4byte	0x2800b
80000024:	fc1022f3          	csrr	t0,0xfc1
80000028:	00001317          	auipc	t1,0x1
8000002c:	a2430313          	add	t1,t1,-1500 # 80000a4c <init_tls_all>
80000030:	0062900b          	.4byte	0x62900b
80000034:	fff00293          	li	t0,-1
80000038:	0002800b          	.4byte	0x2800b
8000003c:	225000ef          	jal	80000a60 <__init_tls>
80000040:	00100293          	li	t0,1
80000044:	0002800b          	.4byte	0x2800b
80000048:	00008517          	auipc	a0,0x8
8000004c:	b9c50513          	add	a0,a0,-1124 # 80007be4 <barrier_stall>
80000050:	00008617          	auipc	a2,0x8
80000054:	d2860613          	add	a2,a2,-728 # 80007d78 <__BSS_END__>
80000058:	40a60633          	sub	a2,a2,a0
8000005c:	00000593          	li	a1,0
80000060:	211030ef          	jal	80003a70 <memset>
80000064:	241000ef          	jal	80000aa4 <__libc_init_array>
80000068:	02c000ef          	jal	80000094 <main>
8000006c:	0040006f          	j	80000070 <exit>

Disassembly of section .text:

80000070 <exit>:
80000070:	ff010113          	add	sp,sp,-16
80000074:	00112623          	sw	ra,12(sp)
80000078:	00812423          	sw	s0,8(sp)
8000007c:	00050413          	mv	s0,a0
80000080:	2b9000ef          	jal	80000b38 <__funcs_on_exit>
80000084:	464030ef          	jal	800034e8 <__libc_exit_fini>
80000088:	45c030ef          	jal	800034e4 <__stdio_exit>
8000008c:	00040513          	mv	a0,s0
80000090:	165000ef          	jal	800009f4 <_Exit>

80000094 <main>:
80000094:	ff010113          	add	sp,sp,-16
80000098:	00112623          	sw	ra,12(sp)
8000009c:	00812423          	sw	s0,8(sp)
800000a0:	208000ef          	jal	800002a8 <_Z18test_global_memoryv>
800000a4:	00050413          	mv	s0,a0
800000a8:	2c0000ef          	jal	80000368 <_Z17test_local_memoryv>
800000ac:	00a40433          	add	s0,s0,a0
800000b0:	338000ef          	jal	800003e8 <_Z8test_tmcv>
800000b4:	00a40433          	add	s0,s0,a0
800000b8:	3b8000ef          	jal	80000470 <_Z9test_predv>
800000bc:	00a40433          	add	s0,s0,a0
800000c0:	57c000ef          	jal	8000063c <_Z15test_divergencev>
800000c4:	00a40433          	add	s0,s0,a0
800000c8:	488000ef          	jal	80000550 <_Z11test_wsapwnv>
800000cc:	00a40433          	add	s0,s0,a0
800000d0:	5c8000ef          	jal	80000698 <_Z16test_spawn_tasksv>
800000d4:	00a40433          	add	s0,s0,a0
800000d8:	6a0000ef          	jal	80000778 <_Z11test_serialv>
800000dc:	00a40433          	add	s0,s0,a0
800000e0:	744000ef          	jal	80000824 <_Z10test_tmaskv>
800000e4:	00a40433          	add	s0,s0,a0
800000e8:	7a4000ef          	jal	8000088c <_Z12test_barrierv>
800000ec:	00a40433          	add	s0,s0,a0
800000f0:	099000ef          	jal	80000988 <_Z8test_tlsv>
800000f4:	00a40433          	add	s0,s0,a0
800000f8:	02041263          	bnez	s0,8000011c <main+0x88>
800000fc:	00006517          	auipc	a0,0x6
80000100:	55c50513          	add	a0,a0,1372 # 80006658 <__fe_raise_inexact+0xc>
80000104:	2dd000ef          	jal	80000be0 <vx_printf>
80000108:	00c12083          	lw	ra,12(sp)
8000010c:	00040513          	mv	a0,s0
80000110:	00812403          	lw	s0,8(sp)
80000114:	01010113          	add	sp,sp,16
80000118:	00008067          	ret
8000011c:	00006517          	auipc	a0,0x6
80000120:	54850513          	add	a0,a0,1352 # 80006664 <__fe_raise_inexact+0x18>
80000124:	2bd000ef          	jal	80000be0 <vx_printf>
80000128:	fe1ff06f          	j	80000108 <main+0x74>

8000012c <_Z13wspawn_kernelv>:
8000012c:	cc1027f3          	csrr	a5,0xcc1
80000130:	00008717          	auipc	a4,0x8
80000134:	b9070713          	add	a4,a4,-1136 # 80007cc0 <wspawn_buffer>
80000138:	00279693          	sll	a3,a5,0x2
8000013c:	00d70733          	add	a4,a4,a3
80000140:	04178693          	add	a3,a5,65
80000144:	00d72023          	sw	a3,0(a4)
80000148:	0017b793          	seqz	a5,a5
8000014c:	0007800b          	.4byte	0x7800b
80000150:	00008067          	ret

80000154 <_Z9st_kernelPK9st_args_t>:
80000154:	00008797          	auipc	a5,0x8
80000158:	9e47a783          	lw	a5,-1564(a5) # 80007b38 <_GLOBAL_OFFSET_TABLE_+0x4>
8000015c:	00052683          	lw	a3,0(a0)
80000160:	00452703          	lw	a4,4(a0)
80000164:	004787b3          	add	a5,a5,tp
80000168:	0007a783          	lw	a5,0(a5)
8000016c:	00279793          	sll	a5,a5,0x2
80000170:	00f686b3          	add	a3,a3,a5
80000174:	0006a683          	lw	a3,0(a3)
80000178:	00f707b3          	add	a5,a4,a5
8000017c:	00d7a023          	sw	a3,0(a5)
80000180:	00008067          	ret

80000184 <_Z9sr_kernelPK9sr_args_t>:
80000184:	cc0027f3          	csrr	a5,0xcc0
80000188:	00052703          	lw	a4,0(a0)
8000018c:	00279693          	sll	a3,a5,0x2
80000190:	04178793          	add	a5,a5,65
80000194:	00d70733          	add	a4,a4,a3
80000198:	00f72023          	sw	a5,0(a4)
8000019c:	00008067          	ret

800001a0 <_Z14barrier_kernelv>:
800001a0:	cc1025f3          	csrr	a1,0xcc1
800001a4:	00859613          	sll	a2,a1,0x8
800001a8:	00160613          	add	a2,a2,1
800001ac:	00000713          	li	a4,0
800001b0:	00008697          	auipc	a3,0x8
800001b4:	a3468693          	add	a3,a3,-1484 # 80007be4 <barrier_stall>
800001b8:	0006a783          	lw	a5,0(a3)
800001bc:	00170713          	add	a4,a4,1
800001c0:	00178793          	add	a5,a5,1
800001c4:	00f6a023          	sw	a5,0(a3)
800001c8:	fee618e3          	bne	a2,a4,800001b8 <_Z14barrier_kernelv+0x18>
800001cc:	00259713          	sll	a4,a1,0x2
800001d0:	00008797          	auipc	a5,0x8
800001d4:	a4078793          	add	a5,a5,-1472 # 80007c10 <barrier_buffer>
800001d8:	00e787b3          	add	a5,a5,a4
800001dc:	04158713          	add	a4,a1,65
800001e0:	00e7a023          	sw	a4,0(a5)
800001e4:	00008717          	auipc	a4,0x8
800001e8:	a0472703          	lw	a4,-1532(a4) # 80007be8 <barrier_ctr>
800001ec:	00000793          	li	a5,0
800001f0:	00e7c00b          	.4byte	0xe7c00b
800001f4:	0015b593          	seqz	a1,a1
800001f8:	0005800b          	.4byte	0x5800b
800001fc:	00008067          	ret

80000200 <_Z11check_errorPKiii.constprop.0>:
80000200:	fe010113          	add	sp,sp,-32
80000204:	00112e23          	sw	ra,28(sp)
80000208:	00812c23          	sw	s0,24(sp)
8000020c:	00912a23          	sw	s1,20(sp)
80000210:	01212823          	sw	s2,16(sp)
80000214:	01312623          	sw	s3,12(sp)
80000218:	01412423          	sw	s4,8(sp)
8000021c:	06b05463          	blez	a1,80000284 <_Z11check_errorPKiii.constprop.0+0x84>
80000220:	00050493          	mv	s1,a0
80000224:	04158913          	add	s2,a1,65
80000228:	04100413          	li	s0,65
8000022c:	00000993          	li	s3,0
80000230:	00006a17          	auipc	s4,0x6
80000234:	440a0a13          	add	s4,s4,1088 # 80006670 <__fe_raise_inexact+0x24>
80000238:	0004a603          	lw	a2,0(s1)
8000023c:	00040693          	mv	a3,s0
80000240:	fbf40593          	add	a1,s0,-65
80000244:	000a0513          	mv	a0,s4
80000248:	00860663          	beq	a2,s0,80000254 <_Z11check_errorPKiii.constprop.0+0x54>
8000024c:	195000ef          	jal	80000be0 <vx_printf>
80000250:	00198993          	add	s3,s3,1
80000254:	00140413          	add	s0,s0,1
80000258:	00448493          	add	s1,s1,4
8000025c:	fd241ee3          	bne	s0,s2,80000238 <_Z11check_errorPKiii.constprop.0+0x38>
80000260:	01c12083          	lw	ra,28(sp)
80000264:	01812403          	lw	s0,24(sp)
80000268:	01412483          	lw	s1,20(sp)
8000026c:	01012903          	lw	s2,16(sp)
80000270:	00812a03          	lw	s4,8(sp)
80000274:	00098513          	mv	a0,s3
80000278:	00c12983          	lw	s3,12(sp)
8000027c:	02010113          	add	sp,sp,32
80000280:	00008067          	ret
80000284:	00000993          	li	s3,0
80000288:	fd9ff06f          	j	80000260 <_Z11check_errorPKiii.constprop.0+0x60>

8000028c <_Z17make_select_tmaski>:
8000028c:	00100793          	li	a5,1
80000290:	00a79533          	sll	a0,a5,a0
80000294:	00008067          	ret

80000298 <_Z15make_full_tmaski>:
80000298:	00100793          	li	a5,1
8000029c:	00a79533          	sll	a0,a5,a0
800002a0:	fff50513          	add	a0,a0,-1
800002a4:	00008067          	ret

800002a8 <_Z18test_global_memoryv>:
800002a8:	ff010113          	add	sp,sp,-16
800002ac:	00006517          	auipc	a0,0x6
800002b0:	3ec50513          	add	a0,a0,1004 # 80006698 <__fe_raise_inexact+0x4c>
800002b4:	00112623          	sw	ra,12(sp)
800002b8:	129000ef          	jal	80000be0 <vx_printf>
800002bc:	00008517          	auipc	a0,0x8
800002c0:	a8450513          	add	a0,a0,-1404 # 80007d40 <global_buffer>
800002c4:	04100793          	li	a5,65
800002c8:	00f52023          	sw	a5,0(a0)
800002cc:	04200793          	li	a5,66
800002d0:	00f52223          	sw	a5,4(a0)
800002d4:	04300793          	li	a5,67
800002d8:	00f52423          	sw	a5,8(a0)
800002dc:	04400793          	li	a5,68
800002e0:	00f52623          	sw	a5,12(a0)
800002e4:	04500793          	li	a5,69
800002e8:	00f52823          	sw	a5,16(a0)
800002ec:	04600793          	li	a5,70
800002f0:	00f52a23          	sw	a5,20(a0)
800002f4:	04700793          	li	a5,71
800002f8:	00c12083          	lw	ra,12(sp)
800002fc:	00f52c23          	sw	a5,24(a0)
80000300:	04800793          	li	a5,72
80000304:	00f52e23          	sw	a5,28(a0)
80000308:	00800593          	li	a1,8
8000030c:	01010113          	add	sp,sp,16
80000310:	ef1ff06f          	j	80000200 <_Z11check_errorPKiii.constprop.0>

80000314 <_Z10do_lmem_wrv>:
80000314:	cc002773          	csrr	a4,0xcc0
80000318:	00008797          	auipc	a5,0x8
8000031c:	8c87a783          	lw	a5,-1848(a5) # 80007be0 <lmem_addr>
80000320:	00271693          	sll	a3,a4,0x2
80000324:	00d787b3          	add	a5,a5,a3
80000328:	04170713          	add	a4,a4,65
8000032c:	00e7a023          	sw	a4,0(a5)
80000330:	0007a703          	lw	a4,0(a5)
80000334:	00e7a023          	sw	a4,0(a5)
80000338:	00008067          	ret

8000033c <_Z10do_lmem_rdv>:
8000033c:	cc0027f3          	csrr	a5,0xcc0
80000340:	00008717          	auipc	a4,0x8
80000344:	8a072703          	lw	a4,-1888(a4) # 80007be0 <lmem_addr>
80000348:	00279793          	sll	a5,a5,0x2
8000034c:	00f70733          	add	a4,a4,a5
80000350:	00072683          	lw	a3,0(a4)
80000354:	00008717          	auipc	a4,0x8
80000358:	9cc70713          	add	a4,a4,-1588 # 80007d20 <lmem_buffer>
8000035c:	00f707b3          	add	a5,a4,a5
80000360:	00d7a023          	sw	a3,0(a5)
80000364:	00008067          	ret

80000368 <_Z17test_local_memoryv>:
80000368:	ff010113          	add	sp,sp,-16
8000036c:	00006517          	auipc	a0,0x6
80000370:	34050513          	add	a0,a0,832 # 800066ac <__fe_raise_inexact+0x60>
80000374:	00112623          	sw	ra,12(sp)
80000378:	00812423          	sw	s0,8(sp)
8000037c:	065000ef          	jal	80000be0 <vx_printf>
80000380:	fc002473          	csrr	s0,0xfc0
80000384:	00800793          	li	a5,8
80000388:	0087d463          	bge	a5,s0,80000390 <_Z17test_local_memoryv+0x28>
8000038c:	00800413          	li	s0,8
80000390:	00040513          	mv	a0,s0
80000394:	f05ff0ef          	jal	80000298 <_Z15make_full_tmaski>
80000398:	0005000b          	.4byte	0x5000b
8000039c:	f79ff0ef          	jal	80000314 <_Z10do_lmem_wrv>
800003a0:	f9dff0ef          	jal	8000033c <_Z10do_lmem_rdv>
800003a4:	00100513          	li	a0,1
800003a8:	0005000b          	.4byte	0x5000b
800003ac:	00040593          	mv	a1,s0
800003b0:	00812403          	lw	s0,8(sp)
800003b4:	00c12083          	lw	ra,12(sp)
800003b8:	00008517          	auipc	a0,0x8
800003bc:	96850513          	add	a0,a0,-1688 # 80007d20 <lmem_buffer>
800003c0:	01010113          	add	sp,sp,16
800003c4:	e3dff06f          	j	80000200 <_Z11check_errorPKiii.constprop.0>

800003c8 <_Z6do_tmcv>:
800003c8:	cc0027f3          	csrr	a5,0xcc0
800003cc:	00008717          	auipc	a4,0x8
800003d0:	93470713          	add	a4,a4,-1740 # 80007d00 <tmc_buffer>
800003d4:	00279693          	sll	a3,a5,0x2
800003d8:	00d70733          	add	a4,a4,a3
800003dc:	04178793          	add	a5,a5,65
800003e0:	00f72023          	sw	a5,0(a4)
800003e4:	00008067          	ret

800003e8 <_Z8test_tmcv>:
800003e8:	ff010113          	add	sp,sp,-16
800003ec:	00006517          	auipc	a0,0x6
800003f0:	2d450513          	add	a0,a0,724 # 800066c0 <__fe_raise_inexact+0x74>
800003f4:	00112623          	sw	ra,12(sp)
800003f8:	00812423          	sw	s0,8(sp)
800003fc:	7e4000ef          	jal	80000be0 <vx_printf>
80000400:	fc002473          	csrr	s0,0xfc0
80000404:	00800793          	li	a5,8
80000408:	0087d463          	bge	a5,s0,80000410 <_Z8test_tmcv+0x28>
8000040c:	00800413          	li	s0,8
80000410:	00040513          	mv	a0,s0
80000414:	e85ff0ef          	jal	80000298 <_Z15make_full_tmaski>
80000418:	0005000b          	.4byte	0x5000b
8000041c:	fadff0ef          	jal	800003c8 <_Z6do_tmcv>
80000420:	00100513          	li	a0,1
80000424:	0005000b          	.4byte	0x5000b
80000428:	00040593          	mv	a1,s0
8000042c:	00812403          	lw	s0,8(sp)
80000430:	00c12083          	lw	ra,12(sp)
80000434:	00008517          	auipc	a0,0x8
80000438:	8cc50513          	add	a0,a0,-1844 # 80007d00 <tmc_buffer>
8000043c:	01010113          	add	sp,sp,16
80000440:	dc1ff06f          	j	80000200 <_Z11check_errorPKiii.constprop.0>

80000444 <_Z7do_predv>:
80000444:	cc0027f3          	csrr	a5,0xcc0
80000448:	00100693          	li	a3,1
8000044c:	0017b713          	seqz	a4,a5
80000450:	00d7500b          	.4byte	0xd7500b
80000454:	00008717          	auipc	a4,0x8
80000458:	88c70713          	add	a4,a4,-1908 # 80007ce0 <pred_buffer>
8000045c:	00279793          	sll	a5,a5,0x2
80000460:	00f707b3          	add	a5,a4,a5
80000464:	04100713          	li	a4,65
80000468:	00e7a023          	sw	a4,0(a5)
8000046c:	00008067          	ret

80000470 <_Z9test_predv>:
80000470:	ff010113          	add	sp,sp,-16
80000474:	00006517          	auipc	a0,0x6
80000478:	25850513          	add	a0,a0,600 # 800066cc <__fe_raise_inexact+0x80>
8000047c:	00112623          	sw	ra,12(sp)
80000480:	00812423          	sw	s0,8(sp)
80000484:	00912223          	sw	s1,4(sp)
80000488:	758000ef          	jal	80000be0 <vx_printf>
8000048c:	fc002473          	csrr	s0,0xfc0
80000490:	00800793          	li	a5,8
80000494:	00800493          	li	s1,8
80000498:	0087c463          	blt	a5,s0,800004a0 <_Z9test_predv+0x30>
8000049c:	00040493          	mv	s1,s0
800004a0:	00048513          	mv	a0,s1
800004a4:	df5ff0ef          	jal	80000298 <_Z15make_full_tmaski>
800004a8:	00100793          	li	a5,1
800004ac:	0687da63          	bge	a5,s0,80000520 <_Z9test_predv+0xb0>
800004b0:	04200713          	li	a4,66
800004b4:	00008797          	auipc	a5,0x8
800004b8:	82c78793          	add	a5,a5,-2004 # 80007ce0 <pred_buffer>
800004bc:	00e7a223          	sw	a4,4(a5)
800004c0:	00200713          	li	a4,2
800004c4:	04875e63          	bge	a4,s0,80000520 <_Z9test_predv+0xb0>
800004c8:	04300713          	li	a4,67
800004cc:	00e7a423          	sw	a4,8(a5)
800004d0:	00300713          	li	a4,3
800004d4:	04875663          	bge	a4,s0,80000520 <_Z9test_predv+0xb0>
800004d8:	04400713          	li	a4,68
800004dc:	00e7a623          	sw	a4,12(a5)
800004e0:	00400713          	li	a4,4
800004e4:	02875e63          	bge	a4,s0,80000520 <_Z9test_predv+0xb0>
800004e8:	04500713          	li	a4,69
800004ec:	00e7a823          	sw	a4,16(a5)
800004f0:	00500713          	li	a4,5
800004f4:	02875663          	bge	a4,s0,80000520 <_Z9test_predv+0xb0>
800004f8:	04600713          	li	a4,70
800004fc:	00e7aa23          	sw	a4,20(a5)
80000500:	00600713          	li	a4,6
80000504:	00875e63          	bge	a4,s0,80000520 <_Z9test_predv+0xb0>
80000508:	04700713          	li	a4,71
8000050c:	00e7ac23          	sw	a4,24(a5)
80000510:	00700713          	li	a4,7
80000514:	00875663          	bge	a4,s0,80000520 <_Z9test_predv+0xb0>
80000518:	04800713          	li	a4,72
8000051c:	00e7ae23          	sw	a4,28(a5)
80000520:	0005000b          	.4byte	0x5000b
80000524:	f21ff0ef          	jal	80000444 <_Z7do_predv>
80000528:	00100513          	li	a0,1
8000052c:	0005000b          	.4byte	0x5000b
80000530:	00812403          	lw	s0,8(sp)
80000534:	00c12083          	lw	ra,12(sp)
80000538:	00048593          	mv	a1,s1
8000053c:	00412483          	lw	s1,4(sp)
80000540:	00007517          	auipc	a0,0x7
80000544:	7a050513          	add	a0,a0,1952 # 80007ce0 <pred_buffer>
80000548:	01010113          	add	sp,sp,16
8000054c:	cb5ff06f          	j	80000200 <_Z11check_errorPKiii.constprop.0>

80000550 <_Z11test_wsapwnv>:
80000550:	ff010113          	add	sp,sp,-16
80000554:	00006517          	auipc	a0,0x6
80000558:	18450513          	add	a0,a0,388 # 800066d8 <__fe_raise_inexact+0x8c>
8000055c:	00112623          	sw	ra,12(sp)
80000560:	680000ef          	jal	80000be0 <vx_printf>
80000564:	fc1025f3          	csrr	a1,0xfc1
80000568:	00800793          	li	a5,8
8000056c:	00b7d463          	bge	a5,a1,80000574 <_Z11test_wsapwnv+0x24>
80000570:	00800593          	li	a1,8
80000574:	00000797          	auipc	a5,0x0
80000578:	bb878793          	add	a5,a5,-1096 # 8000012c <_Z13wspawn_kernelv>
8000057c:	00f5900b          	.4byte	0xf5900b
80000580:	cc1027f3          	csrr	a5,0xcc1
80000584:	00007517          	auipc	a0,0x7
80000588:	73c50513          	add	a0,a0,1852 # 80007cc0 <wspawn_buffer>
8000058c:	00279713          	sll	a4,a5,0x2
80000590:	04178693          	add	a3,a5,65
80000594:	00e50733          	add	a4,a0,a4
80000598:	00d72023          	sw	a3,0(a4)
8000059c:	0017b793          	seqz	a5,a5
800005a0:	0007800b          	.4byte	0x7800b
800005a4:	00c12083          	lw	ra,12(sp)
800005a8:	01010113          	add	sp,sp,16
800005ac:	c55ff06f          	j	80000200 <_Z11check_errorPKiii.constprop.0>

800005b0 <_Z13do_divergencev>:
800005b0:	cc0027f3          	csrr	a5,0xcc0
800005b4:	0027a713          	slti	a4,a5,2
800005b8:	0007270b          	.4byte	0x7270b
800005bc:	00100693          	li	a3,1
800005c0:	02f6dc63          	bge	a3,a5,800005f8 <_Z13do_divergencev+0x48>
800005c4:	0037a613          	slti	a2,a5,3
800005c8:	0006260b          	.4byte	0x6260b
800005cc:	00200693          	li	a3,2
800005d0:	00f6a6b3          	slt	a3,a3,a5
800005d4:	04368693          	add	a3,a3,67
800005d8:	00279793          	sll	a5,a5,0x2
800005dc:	00007597          	auipc	a1,0x7
800005e0:	6d458593          	add	a1,a1,1748 # 80007cb0 <dvg_buffer>
800005e4:	00f587b3          	add	a5,a1,a5
800005e8:	00d7a023          	sw	a3,0(a5)
800005ec:	0006300b          	.4byte	0x6300b
800005f0:	0007300b          	.4byte	0x7300b
800005f4:	00008067          	ret
800005f8:	0017a613          	slti	a2,a5,1
800005fc:	0006260b          	.4byte	0x6260b
80000600:	00f026b3          	sgtz	a3,a5
80000604:	04168693          	add	a3,a3,65
80000608:	0006300b          	.4byte	0x6300b
8000060c:	01f7d613          	srl	a2,a5,0x1f
80000610:	0006260b          	.4byte	0x6260b
80000614:	0007d463          	bgez	a5,8000061c <_Z13do_divergencev+0x6c>
80000618:	04300693          	li	a3,67
8000061c:	00279793          	sll	a5,a5,0x2
80000620:	00007597          	auipc	a1,0x7
80000624:	69058593          	add	a1,a1,1680 # 80007cb0 <dvg_buffer>
80000628:	00f587b3          	add	a5,a1,a5
8000062c:	00d7a023          	sw	a3,0(a5)
80000630:	0006300b          	.4byte	0x6300b
80000634:	0007300b          	.4byte	0x7300b
80000638:	00008067          	ret

8000063c <_Z15test_divergencev>:
8000063c:	ff010113          	add	sp,sp,-16
80000640:	00006517          	auipc	a0,0x6
80000644:	0a850513          	add	a0,a0,168 # 800066e8 <__fe_raise_inexact+0x9c>
80000648:	00112623          	sw	ra,12(sp)
8000064c:	00812423          	sw	s0,8(sp)
80000650:	590000ef          	jal	80000be0 <vx_printf>
80000654:	fc002473          	csrr	s0,0xfc0
80000658:	00400793          	li	a5,4
8000065c:	0087d463          	bge	a5,s0,80000664 <_Z15test_divergencev+0x28>
80000660:	00400413          	li	s0,4
80000664:	00040513          	mv	a0,s0
80000668:	c31ff0ef          	jal	80000298 <_Z15make_full_tmaski>
8000066c:	0005000b          	.4byte	0x5000b
80000670:	f41ff0ef          	jal	800005b0 <_Z13do_divergencev>
80000674:	00100513          	li	a0,1
80000678:	0005000b          	.4byte	0x5000b
8000067c:	00040593          	mv	a1,s0
80000680:	00812403          	lw	s0,8(sp)
80000684:	00c12083          	lw	ra,12(sp)
80000688:	00007517          	auipc	a0,0x7
8000068c:	62850513          	add	a0,a0,1576 # 80007cb0 <dvg_buffer>
80000690:	01010113          	add	sp,sp,16
80000694:	b6dff06f          	j	80000200 <_Z11check_errorPKiii.constprop.0>

80000698 <_Z16test_spawn_tasksv>:
80000698:	fe010113          	add	sp,sp,-32
8000069c:	00006517          	auipc	a0,0x6
800006a0:	06850513          	add	a0,a0,104 # 80006704 <__fe_raise_inexact+0xb8>
800006a4:	00112e23          	sw	ra,28(sp)
800006a8:	00812c23          	sw	s0,24(sp)
800006ac:	534000ef          	jal	80000be0 <vx_printf>
800006b0:	00007797          	auipc	a5,0x7
800006b4:	5e078793          	add	a5,a5,1504 # 80007c90 <st_buffer_src>
800006b8:	04100813          	li	a6,65
800006bc:	0107a023          	sw	a6,0(a5)
800006c0:	04200813          	li	a6,66
800006c4:	0107a223          	sw	a6,4(a5)
800006c8:	04300813          	li	a6,67
800006cc:	0107a423          	sw	a6,8(a5)
800006d0:	04400813          	li	a6,68
800006d4:	0107a623          	sw	a6,12(a5)
800006d8:	04500813          	li	a6,69
800006dc:	0107a823          	sw	a6,16(a5)
800006e0:	04600813          	li	a6,70
800006e4:	0107aa23          	sw	a6,20(a5)
800006e8:	04700813          	li	a6,71
800006ec:	0107ac23          	sw	a6,24(a5)
800006f0:	04800813          	li	a6,72
800006f4:	00007417          	auipc	s0,0x7
800006f8:	57c40413          	add	s0,s0,1404 # 80007c70 <st_buffer_dst>
800006fc:	00410593          	add	a1,sp,4
80000700:	00810713          	add	a4,sp,8
80000704:	00f12423          	sw	a5,8(sp)
80000708:	0107ae23          	sw	a6,28(a5)
8000070c:	00000697          	auipc	a3,0x0
80000710:	a4868693          	add	a3,a3,-1464 # 80000154 <_Z9st_kernelPK9st_args_t>
80000714:	00800793          	li	a5,8
80000718:	00000613          	li	a2,0
8000071c:	00100513          	li	a0,1
80000720:	00812623          	sw	s0,12(sp)
80000724:	00f12223          	sw	a5,4(sp)
80000728:	7b4000ef          	jal	80000edc <vx_spawn_threads>
8000072c:	00040513          	mv	a0,s0
80000730:	00800593          	li	a1,8
80000734:	acdff0ef          	jal	80000200 <_Z11check_errorPKiii.constprop.0>
80000738:	01c12083          	lw	ra,28(sp)
8000073c:	01812403          	lw	s0,24(sp)
80000740:	02010113          	add	sp,sp,32
80000744:	00008067          	ret

80000748 <_Z9do_serialv>:
80000748:	fe010113          	add	sp,sp,-32
8000074c:	00c10593          	add	a1,sp,12
80000750:	00007797          	auipc	a5,0x7
80000754:	50078793          	add	a5,a5,1280 # 80007c50 <sr_buffer>
80000758:	00000517          	auipc	a0,0x0
8000075c:	a2c50513          	add	a0,a0,-1492 # 80000184 <_Z9sr_kernelPK9sr_args_t>
80000760:	00112e23          	sw	ra,28(sp)
80000764:	00f12623          	sw	a5,12(sp)
80000768:	395000ef          	jal	800012fc <vx_serial>
8000076c:	01c12083          	lw	ra,28(sp)
80000770:	02010113          	add	sp,sp,32
80000774:	00008067          	ret

80000778 <_Z11test_serialv>:
80000778:	ff010113          	add	sp,sp,-16
8000077c:	00006517          	auipc	a0,0x6
80000780:	f9c50513          	add	a0,a0,-100 # 80006718 <__fe_raise_inexact+0xcc>
80000784:	00112623          	sw	ra,12(sp)
80000788:	00812423          	sw	s0,8(sp)
8000078c:	454000ef          	jal	80000be0 <vx_printf>
80000790:	fc002473          	csrr	s0,0xfc0
80000794:	00800793          	li	a5,8
80000798:	0087d463          	bge	a5,s0,800007a0 <_Z11test_serialv+0x28>
8000079c:	00800413          	li	s0,8
800007a0:	00040513          	mv	a0,s0
800007a4:	af5ff0ef          	jal	80000298 <_Z15make_full_tmaski>
800007a8:	0005000b          	.4byte	0x5000b
800007ac:	f9dff0ef          	jal	80000748 <_Z9do_serialv>
800007b0:	00100513          	li	a0,1
800007b4:	0005000b          	.4byte	0x5000b
800007b8:	00040593          	mv	a1,s0
800007bc:	00812403          	lw	s0,8(sp)
800007c0:	00c12083          	lw	ra,12(sp)
800007c4:	00007517          	auipc	a0,0x7
800007c8:	48c50513          	add	a0,a0,1164 # 80007c50 <sr_buffer>
800007cc:	01010113          	add	sp,sp,16
800007d0:	a31ff06f          	j	80000200 <_Z11check_errorPKiii.constprop.0>

800007d4 <_Z8do_tmaskv>:
800007d4:	ff010113          	add	sp,sp,-16
800007d8:	00112623          	sw	ra,12(sp)
800007dc:	00812423          	sw	s0,8(sp)
800007e0:	cc002473          	csrr	s0,0xcc0
800007e4:	00040513          	mv	a0,s0
800007e8:	aa5ff0ef          	jal	8000028c <_Z17make_select_tmaski>
800007ec:	cc4027f3          	csrr	a5,0xcc4
800007f0:	04140713          	add	a4,s0,65
800007f4:	00a78463          	beq	a5,a0,800007fc <_Z8do_tmaskv+0x28>
800007f8:	00000713          	li	a4,0
800007fc:	00c12083          	lw	ra,12(sp)
80000800:	00241693          	sll	a3,s0,0x2
80000804:	00140513          	add	a0,s0,1
80000808:	00007797          	auipc	a5,0x7
8000080c:	42878793          	add	a5,a5,1064 # 80007c30 <tmask_buffer>
80000810:	00812403          	lw	s0,8(sp)
80000814:	00d787b3          	add	a5,a5,a3
80000818:	00e7a023          	sw	a4,0(a5)
8000081c:	01010113          	add	sp,sp,16
80000820:	00008067          	ret

80000824 <_Z10test_tmaskv>:
80000824:	ff010113          	add	sp,sp,-16
80000828:	00006517          	auipc	a0,0x6
8000082c:	f0050513          	add	a0,a0,-256 # 80006728 <__fe_raise_inexact+0xdc>
80000830:	00112623          	sw	ra,12(sp)
80000834:	00812423          	sw	s0,8(sp)
80000838:	3a8000ef          	jal	80000be0 <vx_printf>
8000083c:	fff00793          	li	a5,-1
80000840:	0007800b          	.4byte	0x7800b
80000844:	fc002473          	csrr	s0,0xfc0
80000848:	00800793          	li	a5,8
8000084c:	0087d463          	bge	a5,s0,80000854 <_Z10test_tmaskv+0x30>
80000850:	00800413          	li	s0,8
80000854:	00000513          	li	a0,0
80000858:	a35ff0ef          	jal	8000028c <_Z17make_select_tmaski>
8000085c:	0005000b          	.4byte	0x5000b
80000860:	f75ff0ef          	jal	800007d4 <_Z8do_tmaskv>
80000864:	fe854ae3          	blt	a0,s0,80000858 <_Z10test_tmaskv+0x34>
80000868:	00100513          	li	a0,1
8000086c:	0005000b          	.4byte	0x5000b
80000870:	00040593          	mv	a1,s0
80000874:	00812403          	lw	s0,8(sp)
80000878:	00c12083          	lw	ra,12(sp)
8000087c:	00007517          	auipc	a0,0x7
80000880:	3b450513          	add	a0,a0,948 # 80007c30 <tmask_buffer>
80000884:	01010113          	add	sp,sp,16
80000888:	979ff06f          	j	80000200 <_Z11check_errorPKiii.constprop.0>

8000088c <_Z12test_barrierv>:
8000088c:	ff010113          	add	sp,sp,-16
80000890:	00006517          	auipc	a0,0x6
80000894:	eac50513          	add	a0,a0,-340 # 8000673c <__fe_raise_inexact+0xf0>
80000898:	00112623          	sw	ra,12(sp)
8000089c:	344000ef          	jal	80000be0 <vx_printf>
800008a0:	fc1025f3          	csrr	a1,0xfc1
800008a4:	00800793          	li	a5,8
800008a8:	00b7d463          	bge	a5,a1,800008b0 <_Z12test_barrierv+0x24>
800008ac:	00800593          	li	a1,8
800008b0:	00007897          	auipc	a7,0x7
800008b4:	33888893          	add	a7,a7,824 # 80007be8 <barrier_ctr>
800008b8:	00b8a023          	sw	a1,0(a7)
800008bc:	00007797          	auipc	a5,0x7
800008c0:	3207a423          	sw	zero,808(a5) # 80007be4 <barrier_stall>
800008c4:	00000797          	auipc	a5,0x0
800008c8:	8dc78793          	add	a5,a5,-1828 # 800001a0 <_Z14barrier_kernelv>
800008cc:	00f5900b          	.4byte	0xf5900b
800008d0:	cc102873          	csrr	a6,0xcc1
800008d4:	00881613          	sll	a2,a6,0x8
800008d8:	00160613          	add	a2,a2,1
800008dc:	00000713          	li	a4,0
800008e0:	00007697          	auipc	a3,0x7
800008e4:	30468693          	add	a3,a3,772 # 80007be4 <barrier_stall>
800008e8:	0006a783          	lw	a5,0(a3)
800008ec:	00170713          	add	a4,a4,1
800008f0:	00178793          	add	a5,a5,1
800008f4:	00f6a023          	sw	a5,0(a3)
800008f8:	fec718e3          	bne	a4,a2,800008e8 <_Z12test_barrierv+0x5c>
800008fc:	00007517          	auipc	a0,0x7
80000900:	31450513          	add	a0,a0,788 # 80007c10 <barrier_buffer>
80000904:	00281793          	sll	a5,a6,0x2
80000908:	00f507b3          	add	a5,a0,a5
8000090c:	04180693          	add	a3,a6,65
80000910:	00d7a023          	sw	a3,0(a5)
80000914:	0008a703          	lw	a4,0(a7)
80000918:	00000793          	li	a5,0
8000091c:	00e7c00b          	.4byte	0xe7c00b
80000920:	00183813          	seqz	a6,a6
80000924:	0008000b          	.4byte	0x8000b
80000928:	00c12083          	lw	ra,12(sp)
8000092c:	01010113          	add	sp,sp,16
80000930:	8d1ff06f          	j	80000200 <_Z11check_errorPKiii.constprop.0>

80000934 <_Z13print_tls_varv>:
80000934:	cc1026f3          	csrr	a3,0xcc1
80000938:	00022703          	lw	a4,0(tp) # 0 <tls_var>
8000093c:	00269693          	sll	a3,a3,0x2
80000940:	00007797          	auipc	a5,0x7
80000944:	2b078793          	add	a5,a5,688 # 80007bf0 <tls_buffer>
80000948:	00d787b3          	add	a5,a5,a3
8000094c:	04170713          	add	a4,a4,65
80000950:	00e7a023          	sw	a4,0(a5)
80000954:	00008067          	ret

80000958 <_Z10tls_kernelv>:
80000958:	ff010113          	add	sp,sp,-16
8000095c:	00112623          	sw	ra,12(sp)
80000960:	00812423          	sw	s0,8(sp)
80000964:	cc102473          	csrr	s0,0xcc1
80000968:	00822023          	sw	s0,0(tp) # 0 <tls_var>
8000096c:	fc9ff0ef          	jal	80000934 <_Z13print_tls_varv>
80000970:	00143413          	seqz	s0,s0
80000974:	0004000b          	.4byte	0x4000b
80000978:	00c12083          	lw	ra,12(sp)
8000097c:	00812403          	lw	s0,8(sp)
80000980:	01010113          	add	sp,sp,16
80000984:	00008067          	ret

80000988 <_Z8test_tlsv>:
80000988:	ff010113          	add	sp,sp,-16
8000098c:	00006517          	auipc	a0,0x6
80000990:	dc050513          	add	a0,a0,-576 # 8000674c <__fe_raise_inexact+0x100>
80000994:	00112623          	sw	ra,12(sp)
80000998:	00812423          	sw	s0,8(sp)
8000099c:	00912223          	sw	s1,4(sp)
800009a0:	240000ef          	jal	80000be0 <vx_printf>
800009a4:	fc1024f3          	csrr	s1,0xfc1
800009a8:	00800793          	li	a5,8
800009ac:	0097d463          	bge	a5,s1,800009b4 <_Z8test_tlsv+0x2c>
800009b0:	00800493          	li	s1,8
800009b4:	00000797          	auipc	a5,0x0
800009b8:	fa478793          	add	a5,a5,-92 # 80000958 <_Z10tls_kernelv>
800009bc:	00f4900b          	.4byte	0xf4900b
800009c0:	cc102473          	csrr	s0,0xcc1
800009c4:	00822023          	sw	s0,0(tp) # 0 <tls_var>
800009c8:	f6dff0ef          	jal	80000934 <_Z13print_tls_varv>
800009cc:	00143413          	seqz	s0,s0
800009d0:	0004000b          	.4byte	0x4000b
800009d4:	00812403          	lw	s0,8(sp)
800009d8:	00c12083          	lw	ra,12(sp)
800009dc:	00048593          	mv	a1,s1
800009e0:	00412483          	lw	s1,4(sp)
800009e4:	00007517          	auipc	a0,0x7
800009e8:	20c50513          	add	a0,a0,524 # 80007bf0 <tls_buffer>
800009ec:	01010113          	add	sp,sp,16
800009f0:	811ff06f          	j	80000200 <_Z11check_errorPKiii.constprop.0>

800009f4 <_Exit>:
800009f4:	185000ef          	jal	80001378 <vx_perf_dump>
800009f8:	08800293          	li	t0,136
800009fc:	00a2a023          	sw	a0,0(t0)
80000a00:	0ff0000f          	fence
80000a04:	0000000b          	.4byte	0xb

80000a08 <init_regs>:
80000a08:	00008197          	auipc	gp,0x8
80000a0c:	92418193          	add	gp,gp,-1756 # 8000832c <__global_pointer>
80000a10:	ffff0137          	lui	sp,0xffff0
80000a14:	f14022f3          	csrr	t0,mhartid
80000a18:	00d29313          	sll	t1,t0,0xd
80000a1c:	40610133          	sub	sp,sp,t1
80000a20:	02000313          	li	t1,32
80000a24:	026282b3          	mul	t0,t0,t1
80000a28:	00007217          	auipc	tp,0x7
80000a2c:	35020213          	add	tp,tp,848 # 80007d78 <__BSS_END__>
80000a30:	00520233          	add	tp,tp,t0
80000a34:	00008067          	ret

80000a38 <init_regs_all>:
80000a38:	fff00293          	li	t0,-1
80000a3c:	0002800b          	.4byte	0x2800b
80000a40:	fc9ff0ef          	jal	80000a08 <init_regs>
80000a44:	0000000b          	.4byte	0xb
80000a48:	00008067          	ret

80000a4c <init_tls_all>:
80000a4c:	fff00293          	li	t0,-1
80000a50:	0002800b          	.4byte	0x2800b
80000a54:	00c000ef          	jal	80000a60 <__init_tls>
80000a58:	0000000b          	.4byte	0xb
80000a5c:	00008067          	ret

80000a60 <__init_tls>:
80000a60:	ff010113          	add	sp,sp,-16 # fffefff0 <__global_pointer+0x7ffe7cc4>
80000a64:	00000613          	li	a2,0
80000a68:	00007597          	auipc	a1,0x7
80000a6c:	0c458593          	add	a1,a1,196 # 80007b2c <__DATA_BEGIN__>
80000a70:	00020513          	mv	a0,tp
80000a74:	00812423          	sw	s0,8(sp)
80000a78:	00112623          	sw	ra,12(sp)
80000a7c:	00020413          	mv	s0,tp
80000a80:	2b5020ef          	jal	80003534 <memcpy>
80000a84:	00000513          	li	a0,0
80000a88:	00a40533          	add	a0,s0,a0
80000a8c:	00812403          	lw	s0,8(sp)
80000a90:	00c12083          	lw	ra,12(sp)
80000a94:	02000613          	li	a2,32
80000a98:	00000593          	li	a1,0
80000a9c:	01010113          	add	sp,sp,16
80000aa0:	7d10206f          	j	80003a70 <memset>

80000aa4 <__libc_init_array>:
80000aa4:	ff010113          	add	sp,sp,-16
80000aa8:	00812423          	sw	s0,8(sp)
80000aac:	01212023          	sw	s2,0(sp)
80000ab0:	00007797          	auipc	a5,0x7
80000ab4:	07c78793          	add	a5,a5,124 # 80007b2c <__DATA_BEGIN__>
80000ab8:	00007417          	auipc	s0,0x7
80000abc:	07440413          	add	s0,s0,116 # 80007b2c <__DATA_BEGIN__>
80000ac0:	00112623          	sw	ra,12(sp)
80000ac4:	00912223          	sw	s1,4(sp)
80000ac8:	40878933          	sub	s2,a5,s0
80000acc:	02878063          	beq	a5,s0,80000aec <__libc_init_array+0x48>
80000ad0:	40295913          	sra	s2,s2,0x2
80000ad4:	00000493          	li	s1,0
80000ad8:	00042783          	lw	a5,0(s0)
80000adc:	00148493          	add	s1,s1,1
80000ae0:	00440413          	add	s0,s0,4
80000ae4:	000780e7          	jalr	a5
80000ae8:	ff24e8e3          	bltu	s1,s2,80000ad8 <__libc_init_array+0x34>
80000aec:	00007797          	auipc	a5,0x7
80000af0:	04078793          	add	a5,a5,64 # 80007b2c <__DATA_BEGIN__>
80000af4:	00007417          	auipc	s0,0x7
80000af8:	03840413          	add	s0,s0,56 # 80007b2c <__DATA_BEGIN__>
80000afc:	40878933          	sub	s2,a5,s0
80000b00:	40295913          	sra	s2,s2,0x2
80000b04:	00878e63          	beq	a5,s0,80000b20 <__libc_init_array+0x7c>
80000b08:	00000493          	li	s1,0
80000b0c:	00042783          	lw	a5,0(s0)
80000b10:	00148493          	add	s1,s1,1
80000b14:	00440413          	add	s0,s0,4
80000b18:	000780e7          	jalr	a5
80000b1c:	ff24e8e3          	bltu	s1,s2,80000b0c <__libc_init_array+0x68>
80000b20:	00c12083          	lw	ra,12(sp)
80000b24:	00812403          	lw	s0,8(sp)
80000b28:	00412483          	lw	s1,4(sp)
80000b2c:	00012903          	lw	s2,0(sp)
80000b30:	01010113          	add	sp,sp,16
80000b34:	00008067          	ret

80000b38 <__funcs_on_exit>:
80000b38:	ff010113          	add	sp,sp,-16
80000b3c:	00812423          	sw	s0,8(sp)
80000b40:	00007797          	auipc	a5,0x7
80000b44:	fec78793          	add	a5,a5,-20 # 80007b2c <__DATA_BEGIN__>
80000b48:	00007417          	auipc	s0,0x7
80000b4c:	fe440413          	add	s0,s0,-28 # 80007b2c <__DATA_BEGIN__>
80000b50:	40f40433          	sub	s0,s0,a5
80000b54:	00912223          	sw	s1,4(sp)
80000b58:	00112623          	sw	ra,12(sp)
80000b5c:	40245493          	sra	s1,s0,0x2
80000b60:	02048063          	beqz	s1,80000b80 <__funcs_on_exit+0x48>
80000b64:	ffc40413          	add	s0,s0,-4
80000b68:	00f40433          	add	s0,s0,a5
80000b6c:	00042783          	lw	a5,0(s0)
80000b70:	fff48493          	add	s1,s1,-1
80000b74:	ffc40413          	add	s0,s0,-4
80000b78:	000780e7          	jalr	a5
80000b7c:	fe0498e3          	bnez	s1,80000b6c <__funcs_on_exit+0x34>
80000b80:	00c12083          	lw	ra,12(sp)
80000b84:	00812403          	lw	s0,8(sp)
80000b88:	00412483          	lw	s1,4(sp)
80000b8c:	01010113          	add	sp,sp,16
80000b90:	00008067          	ret

80000b94 <vx_putchar>:
80000b94:	f14022f3          	csrr	t0,mhartid
80000b98:	03f2f293          	and	t0,t0,63
80000b9c:	04000313          	li	t1,64
80000ba0:	006282b3          	add	t0,t0,t1
80000ba4:	00a28023          	sb	a0,0(t0)
80000ba8:	00008067          	ret

80000bac <__vprintf_cb>:
80000bac:	00452783          	lw	a5,4(a0)
80000bb0:	ff010113          	add	sp,sp,-16
80000bb4:	00812423          	sw	s0,8(sp)
80000bb8:	0007a583          	lw	a1,0(a5)
80000bbc:	00050413          	mv	s0,a0
80000bc0:	00052503          	lw	a0,0(a0)
80000bc4:	00112623          	sw	ra,12(sp)
80000bc8:	0ed020ef          	jal	800034b4 <tiny_vprintf>
80000bcc:	00c12083          	lw	ra,12(sp)
80000bd0:	00a42423          	sw	a0,8(s0)
80000bd4:	00812403          	lw	s0,8(sp)
80000bd8:	01010113          	add	sp,sp,16
80000bdc:	00008067          	ret

80000be0 <vx_printf>:
80000be0:	fb010113          	add	sp,sp,-80
80000be4:	04f12223          	sw	a5,68(sp)
80000be8:	03410793          	add	a5,sp,52
80000bec:	00050313          	mv	t1,a0
80000bf0:	02b12a23          	sw	a1,52(sp)
80000bf4:	00f12623          	sw	a5,12(sp)
80000bf8:	00f12823          	sw	a5,16(sp)
80000bfc:	00000517          	auipc	a0,0x0
80000c00:	fb050513          	add	a0,a0,-80 # 80000bac <__vprintf_cb>
80000c04:	01010793          	add	a5,sp,16
80000c08:	01410593          	add	a1,sp,20
80000c0c:	02112623          	sw	ra,44(sp)
80000c10:	02c12c23          	sw	a2,56(sp)
80000c14:	02d12e23          	sw	a3,60(sp)
80000c18:	04e12023          	sw	a4,64(sp)
80000c1c:	05012423          	sw	a6,72(sp)
80000c20:	05112623          	sw	a7,76(sp)
80000c24:	00612a23          	sw	t1,20(sp)
80000c28:	00f12c23          	sw	a5,24(sp)
80000c2c:	6d0000ef          	jal	800012fc <vx_serial>
80000c30:	02c12083          	lw	ra,44(sp)
80000c34:	01c12503          	lw	a0,28(sp)
80000c38:	05010113          	add	sp,sp,80
80000c3c:	00008067          	ret

80000c40 <process_threads>:
80000c40:	fe010113          	add	sp,sp,-32
80000c44:	00112e23          	sw	ra,28(sp)
80000c48:	00812c23          	sw	s0,24(sp)
80000c4c:	00912a23          	sw	s1,20(sp)
80000c50:	01212823          	sw	s2,16(sp)
80000c54:	01312623          	sw	s3,12(sp)
80000c58:	01412423          	sw	s4,8(sp)
80000c5c:	01512223          	sw	s5,4(sp)
80000c60:	01612023          	sw	s6,0(sp)
80000c64:	34002773          	csrr	a4,mscratch
80000c68:	fc002973          	csrr	s2,0xfc0
80000c6c:	cc1026f3          	csrr	a3,0xcc1
80000c70:	cc002673          	csrr	a2,0xcc0
80000c74:	01072583          	lw	a1,16(a4)
80000c78:	01472783          	lw	a5,20(a4)
80000c7c:	00068513          	mv	a0,a3
80000c80:	02d58433          	mul	s0,a1,a3
80000c84:	00f6e463          	bltu	a3,a5,80000c8c <process_threads+0x4c>
80000c88:	00078513          	mv	a0,a5
80000c8c:	00f6b9b3          	sltu	s3,a3,a5
80000c90:	00a40433          	add	s0,s0,a0
80000c94:	00b989b3          	add	s3,s3,a1
80000c98:	00872783          	lw	a5,8(a4)
80000c9c:	00072a03          	lw	s4,0(a4)
80000ca0:	00472a83          	lw	s5,4(a4)
80000ca4:	00f606b3          	add	a3,a2,a5
80000ca8:	03240433          	mul	s0,s0,s2
80000cac:	00820793          	add	a5,tp,8 # 8 <threadIdx>
80000cb0:	00022223          	sw	zero,4(tp) # 4 <__local_group_id>
80000cb4:	0007a023          	sw	zero,0(a5)
80000cb8:	0007a223          	sw	zero,4(a5)
80000cbc:	0007a423          	sw	zero,8(a5)
80000cc0:	032989b3          	mul	s3,s3,s2
80000cc4:	00d40433          	add	s0,s0,a3
80000cc8:	008989b3          	add	s3,s3,s0
80000ccc:	05347463          	bgeu	s0,s3,80000d14 <process_threads+0xd4>
80000cd0:	00007b17          	auipc	s6,0x7
80000cd4:	09cb0b13          	add	s6,s6,156 # 80007d6c <gridDim>
80000cd8:	01420493          	add	s1,tp,20 # 14 <blockIdx>
80000cdc:	000b2783          	lw	a5,0(s6)
80000ce0:	004b2603          	lw	a2,4(s6)
80000ce4:	000a8513          	mv	a0,s5
80000ce8:	02f45733          	divu	a4,s0,a5
80000cec:	02c786b3          	mul	a3,a5,a2
80000cf0:	02f477b3          	remu	a5,s0,a5
80000cf4:	02d456b3          	divu	a3,s0,a3
80000cf8:	00f4a023          	sw	a5,0(s1)
80000cfc:	01240433          	add	s0,s0,s2
80000d00:	02c777b3          	remu	a5,a4,a2
80000d04:	00d4a423          	sw	a3,8(s1)
80000d08:	00f4a223          	sw	a5,4(s1)
80000d0c:	000a00e7          	jalr	s4
80000d10:	fd3466e3          	bltu	s0,s3,80000cdc <process_threads+0x9c>
80000d14:	01c12083          	lw	ra,28(sp)
80000d18:	01812403          	lw	s0,24(sp)
80000d1c:	01412483          	lw	s1,20(sp)
80000d20:	01012903          	lw	s2,16(sp)
80000d24:	00c12983          	lw	s3,12(sp)
80000d28:	00812a03          	lw	s4,8(sp)
80000d2c:	00412a83          	lw	s5,4(sp)
80000d30:	00012b03          	lw	s6,0(sp)
80000d34:	02010113          	add	sp,sp,32
80000d38:	00008067          	ret

80000d3c <process_remaining_threads>:
80000d3c:	340027f3          	csrr	a5,mscratch
80000d40:	cc002773          	csrr	a4,0xcc0
80000d44:	0007a703          	lw	a4,0(a5)
80000d48:	0047a503          	lw	a0,4(a5)
80000d4c:	00070067          	jr	a4

80000d50 <process_threads_stub>:
80000d50:	ff010113          	add	sp,sp,-16
80000d54:	00112623          	sw	ra,12(sp)
80000d58:	fff00793          	li	a5,-1
80000d5c:	0007800b          	.4byte	0x7800b
80000d60:	ee1ff0ef          	jal	80000c40 <process_threads>
80000d64:	0000000b          	.4byte	0xb
80000d68:	00c12083          	lw	ra,12(sp)
80000d6c:	01010113          	add	sp,sp,16
80000d70:	00008067          	ret

80000d74 <process_thread_groups>:
80000d74:	fe010113          	add	sp,sp,-32
80000d78:	00112e23          	sw	ra,28(sp)
80000d7c:	00812c23          	sw	s0,24(sp)
80000d80:	00912a23          	sw	s1,20(sp)
80000d84:	01212823          	sw	s2,16(sp)
80000d88:	01312623          	sw	s3,12(sp)
80000d8c:	01412423          	sw	s4,8(sp)
80000d90:	01512223          	sw	s5,4(sp)
80000d94:	01612023          	sw	s6,0(sp)
80000d98:	340026f3          	csrr	a3,mscratch
80000d9c:	fc002e73          	csrr	t3,0xfc0
80000da0:	cc102673          	csrr	a2,0xcc1
80000da4:	cc002373          	csrr	t1,0xcc0
80000da8:	0146a883          	lw	a7,20(a3)
80000dac:	00007717          	auipc	a4,0x7
80000db0:	fb470713          	add	a4,a4,-76 # 80007d60 <blockDim>
80000db4:	00072583          	lw	a1,0(a4)
80000db8:	031677b3          	remu	a5,a2,a7
80000dbc:	0006aa03          	lw	s4,0(a3)
80000dc0:	00472803          	lw	a6,4(a4)
80000dc4:	0086a403          	lw	s0,8(a3)
80000dc8:	00c6a703          	lw	a4,12(a3)
80000dcc:	0046aa83          	lw	s5,4(a3)
80000dd0:	0106a903          	lw	s2,16(a3)
80000dd4:	0186a983          	lw	s3,24(a3)
80000dd8:	01263933          	sltu	s2,a2,s2
80000ddc:	00e90933          	add	s2,s2,a4
80000de0:	00820713          	add	a4,tp,8 # 8 <threadIdx>
80000de4:	03c787b3          	mul	a5,a5,t3
80000de8:	006787b3          	add	a5,a5,t1
80000dec:	02b7d6b3          	divu	a3,a5,a1
80000df0:	03058333          	mul	t1,a1,a6
80000df4:	03165633          	divu	a2,a2,a7
80000df8:	02b7f5b3          	remu	a1,a5,a1
80000dfc:	00860433          	add	s0,a2,s0
80000e00:	00c22223          	sw	a2,4(tp) # 4 <__local_group_id>
80000e04:	0306f6b3          	remu	a3,a3,a6
80000e08:	00b72023          	sw	a1,0(a4)
80000e0c:	0267d7b3          	divu	a5,a5,t1
80000e10:	00d72223          	sw	a3,4(a4)
80000e14:	03390933          	mul	s2,s2,s3
80000e18:	00f72423          	sw	a5,8(a4)
80000e1c:	00890933          	add	s2,s2,s0
80000e20:	05247463          	bgeu	s0,s2,80000e68 <process_thread_groups+0xf4>
80000e24:	00007b17          	auipc	s6,0x7
80000e28:	f48b0b13          	add	s6,s6,-184 # 80007d6c <gridDim>
80000e2c:	01420493          	add	s1,tp,20 # 14 <blockIdx>
80000e30:	000b2783          	lw	a5,0(s6)
80000e34:	004b2603          	lw	a2,4(s6)
80000e38:	000a8513          	mv	a0,s5
80000e3c:	02f45733          	divu	a4,s0,a5
80000e40:	02c786b3          	mul	a3,a5,a2
80000e44:	02f477b3          	remu	a5,s0,a5
80000e48:	02d456b3          	divu	a3,s0,a3
80000e4c:	00f4a023          	sw	a5,0(s1)
80000e50:	01340433          	add	s0,s0,s3
80000e54:	02c777b3          	remu	a5,a4,a2
80000e58:	00d4a423          	sw	a3,8(s1)
80000e5c:	00f4a223          	sw	a5,4(s1)
80000e60:	000a00e7          	jalr	s4
80000e64:	fd2466e3          	bltu	s0,s2,80000e30 <process_thread_groups+0xbc>
80000e68:	01c12083          	lw	ra,28(sp)
80000e6c:	01812403          	lw	s0,24(sp)
80000e70:	01412483          	lw	s1,20(sp)
80000e74:	01012903          	lw	s2,16(sp)
80000e78:	00c12983          	lw	s3,12(sp)
80000e7c:	00812a03          	lw	s4,8(sp)
80000e80:	00412a83          	lw	s5,4(sp)
80000e84:	00012b03          	lw	s6,0(sp)
80000e88:	02010113          	add	sp,sp,32
80000e8c:	00008067          	ret

80000e90 <process_thread_groups_stub>:
80000e90:	ff010113          	add	sp,sp,-16
80000e94:	00112623          	sw	ra,12(sp)
80000e98:	34002773          	csrr	a4,mscratch
80000e9c:	01472783          	lw	a5,20(a4)
80000ea0:	01c72603          	lw	a2,28(a4)
80000ea4:	cc102773          	csrr	a4,0xcc1
80000ea8:	02f77733          	remu	a4,a4,a5
80000eac:	fff78793          	add	a5,a5,-1
80000eb0:	00060693          	mv	a3,a2
80000eb4:	00e78463          	beq	a5,a4,80000ebc <process_thread_groups_stub+0x2c>
80000eb8:	fff00693          	li	a3,-1
80000ebc:	0006800b          	.4byte	0x6800b
80000ec0:	eb5ff0ef          	jal	80000d74 <process_thread_groups>
80000ec4:	cc1027f3          	csrr	a5,0xcc1
80000ec8:	0017b793          	seqz	a5,a5
80000ecc:	0007800b          	.4byte	0x7800b
80000ed0:	00c12083          	lw	ra,12(sp)
80000ed4:	01010113          	add	sp,sp,16
80000ed8:	00008067          	ret

80000edc <vx_spawn_threads>:
80000edc:	fd010113          	add	sp,sp,-48
80000ee0:	02112623          	sw	ra,44(sp)
80000ee4:	02812423          	sw	s0,40(sp)
80000ee8:	22058e63          	beqz	a1,80001124 <vx_spawn_threads+0x248>
80000eec:	12060c63          	beqz	a2,80001024 <vx_spawn_threads+0x148>
80000ef0:	28051263          	bnez	a0,80001174 <vx_spawn_threads+0x298>
80000ef4:	00100613          	li	a2,1
80000ef8:	00007317          	auipc	t1,0x7
80000efc:	e7430313          	add	t1,t1,-396 # 80007d6c <gridDim>
80000f00:	00007797          	auipc	a5,0x7
80000f04:	e6078793          	add	a5,a5,-416 # 80007d60 <blockDim>
80000f08:	00c32023          	sw	a2,0(t1)
80000f0c:	00c7a023          	sw	a2,0(a5)
80000f10:	00100893          	li	a7,1
80000f14:	00100813          	li	a6,1
80000f18:	00100613          	li	a2,1
80000f1c:	00c32223          	sw	a2,4(t1)
80000f20:	00c7a223          	sw	a2,4(a5)
80000f24:	00100593          	li	a1,1
80000f28:	00100513          	li	a0,1
80000f2c:	00b32423          	sw	a1,8(t1)
80000f30:	00a7a423          	sw	a0,8(a5)
80000f34:	fc202ef3          	csrr	t4,0xfc2
80000f38:	fc1025f3          	csrr	a1,0xfc1
80000f3c:	fc0027f3          	csrr	a5,0xfc0
80000f40:	cc202573          	csrr	a0,0xcc2
80000f44:	02f58e33          	mul	t3,a1,a5
80000f48:	391e6863          	bltu	t3,a7,800012d8 <vx_spawn_threads+0x3fc>
80000f4c:	00100313          	li	t1,1
80000f50:	13137463          	bgeu	t1,a7,80001078 <vx_spawn_threads+0x19c>
80000f54:	02f8fe33          	remu	t3,a7,a5
80000f58:	fff00f13          	li	t5,-1
80000f5c:	02f8d633          	divu	a2,a7,a5
80000f60:	000e0863          	beqz	t3,80000f70 <vx_spawn_threads+0x94>
80000f64:	01c31333          	sll	t1,t1,t3
80000f68:	fff30f13          	add	t5,t1,-1
80000f6c:	00160613          	add	a2,a2,1
80000f70:	fff58893          	add	a7,a1,-1
80000f74:	030607b3          	mul	a5,a2,a6
80000f78:	011787b3          	add	a5,a5,a7
80000f7c:	02b7d7b3          	divu	a5,a5,a1
80000f80:	00fef463          	bgeu	t4,a5,80000f88 <vx_spawn_threads+0xac>
80000f84:	000e8793          	mv	a5,t4
80000f88:	08f57463          	bgeu	a0,a5,80001010 <vx_spawn_threads+0x134>
80000f8c:	02f878b3          	remu	a7,a6,a5
80000f90:	02f857b3          	divu	a5,a6,a5
80000f94:	01153833          	sltu	a6,a0,a7
80000f98:	010787b3          	add	a5,a5,a6
80000f9c:	02f60833          	mul	a6,a2,a5
80000fa0:	02c5d333          	divu	t1,a1,a2
80000fa4:	2305e663          	bltu	a1,a6,800011d0 <vx_spawn_threads+0x2f4>
80000fa8:	00000593          	li	a1,0
80000fac:	00100e13          	li	t3,1
80000fb0:	00e12223          	sw	a4,4(sp)
80000fb4:	00d12023          	sw	a3,0(sp)
80000fb8:	00088713          	mv	a4,a7
80000fbc:	02a787b3          	mul	a5,a5,a0
80000fc0:	01157463          	bgeu	a0,a7,80000fc8 <vx_spawn_threads+0xec>
80000fc4:	00050713          	mv	a4,a0
80000fc8:	00e787b3          	add	a5,a5,a4
80000fcc:	00f12423          	sw	a5,8(sp)
80000fd0:	01c12623          	sw	t3,12(sp)
80000fd4:	00b12823          	sw	a1,16(sp)
80000fd8:	00c12a23          	sw	a2,20(sp)
80000fdc:	00612c23          	sw	t1,24(sp)
80000fe0:	01e12e23          	sw	t5,28(sp)
80000fe4:	00010793          	mv	a5,sp
80000fe8:	34079073          	csrw	mscratch,a5
80000fec:	00007797          	auipc	a5,0x7
80000ff0:	c0c7a023          	sw	a2,-1024(a5) # 80007bec <__warps_per_group>
80000ff4:	00000797          	auipc	a5,0x0
80000ff8:	e9c78793          	add	a5,a5,-356 # 80000e90 <process_thread_groups_stub>
80000ffc:	00f8100b          	.4byte	0xf8100b
80001000:	e91ff0ef          	jal	80000e90 <process_thread_groups_stub>
80001004:	00100793          	li	a5,1
80001008:	00000713          	li	a4,0
8000100c:	00e7900b          	.4byte	0xe7900b
80001010:	00000513          	li	a0,0
80001014:	02c12083          	lw	ra,44(sp)
80001018:	02812403          	lw	s0,40(sp)
8000101c:	03010113          	add	sp,sp,48
80001020:	00008067          	ret
80001024:	20050263          	beqz	a0,80001228 <vx_spawn_threads+0x34c>
80001028:	0005a803          	lw	a6,0(a1)
8000102c:	00007317          	auipc	t1,0x7
80001030:	d4030313          	add	t1,t1,-704 # 80007d6c <gridDim>
80001034:	00007797          	auipc	a5,0x7
80001038:	d2c78793          	add	a5,a5,-724 # 80007d60 <blockDim>
8000103c:	00100613          	li	a2,1
80001040:	01032023          	sw	a6,0(t1)
80001044:	00c7a023          	sw	a2,0(a5)
80001048:	20c50063          	beq	a0,a2,80001248 <vx_spawn_threads+0x36c>
8000104c:	0045a883          	lw	a7,4(a1)
80001050:	00200e13          	li	t3,2
80001054:	00c7a223          	sw	a2,4(a5)
80001058:	01132223          	sw	a7,4(t1)
8000105c:	03180833          	mul	a6,a6,a7
80001060:	27c50263          	beq	a0,t3,800012c4 <vx_spawn_threads+0x3e8>
80001064:	0085a583          	lw	a1,8(a1)
80001068:	02b80833          	mul	a6,a6,a1
8000106c:	00100513          	li	a0,1
80001070:	00100893          	li	a7,1
80001074:	eb9ff06f          	j	80000f2c <vx_spawn_threads+0x50>
80001078:	fff80613          	add	a2,a6,-1
8000107c:	01c60633          	add	a2,a2,t3
80001080:	03c65633          	divu	a2,a2,t3
80001084:	00007897          	auipc	a7,0x7
80001088:	b608a423          	sw	zero,-1176(a7) # 80007bec <__warps_per_group>
8000108c:	00cef463          	bgeu	t4,a2,80001094 <vx_spawn_threads+0x1b8>
80001090:	000e8613          	mv	a2,t4
80001094:	f6c57ee3          	bgeu	a0,a2,80001010 <vx_spawn_threads+0x134>
80001098:	02c878b3          	remu	a7,a6,a2
8000109c:	02c85833          	divu	a6,a6,a2
800010a0:	01153633          	sltu	a2,a0,a7
800010a4:	00c80833          	add	a6,a6,a2
800010a8:	02f85333          	divu	t1,a6,a5
800010ac:	02f87433          	remu	s0,a6,a5
800010b0:	026787b3          	mul	a5,a5,t1
800010b4:	1265f863          	bgeu	a1,t1,800011e4 <vx_spawn_threads+0x308>
800010b8:	02b35eb3          	divu	t4,t1,a1
800010bc:	02b37e33          	remu	t3,t1,a1
800010c0:	00058313          	mv	t1,a1
800010c4:	00088613          	mv	a2,a7
800010c8:	02a80833          	mul	a6,a6,a0
800010cc:	01157463          	bgeu	a0,a7,800010d4 <vx_spawn_threads+0x1f8>
800010d0:	00050613          	mv	a2,a0
800010d4:	00c80833          	add	a6,a6,a2
800010d8:	010787b3          	add	a5,a5,a6
800010dc:	00f12623          	sw	a5,12(sp)
800010e0:	00d12023          	sw	a3,0(sp)
800010e4:	00e12223          	sw	a4,4(sp)
800010e8:	01012423          	sw	a6,8(sp)
800010ec:	01d12823          	sw	t4,16(sp)
800010f0:	01c12a23          	sw	t3,20(sp)
800010f4:	00010793          	mv	a5,sp
800010f8:	34079073          	csrw	mscratch,a5
800010fc:	16031063          	bnez	t1,8000125c <vx_spawn_threads+0x380>
80001100:	f00402e3          	beqz	s0,80001004 <vx_spawn_threads+0x128>
80001104:	00100793          	li	a5,1
80001108:	008797b3          	sll	a5,a5,s0
8000110c:	fff78793          	add	a5,a5,-1
80001110:	0007800b          	.4byte	0x7800b
80001114:	c29ff0ef          	jal	80000d3c <process_remaining_threads>
80001118:	00100513          	li	a0,1
8000111c:	0005000b          	.4byte	0x5000b
80001120:	ee5ff06f          	j	80001004 <vx_spawn_threads+0x128>
80001124:	14060e63          	beqz	a2,80001280 <vx_spawn_threads+0x3a4>
80001128:	0c050463          	beqz	a0,800011f0 <vx_spawn_threads+0x314>
8000112c:	00062883          	lw	a7,0(a2)
80001130:	00007317          	auipc	t1,0x7
80001134:	c3c30313          	add	t1,t1,-964 # 80007d6c <gridDim>
80001138:	00100593          	li	a1,1
8000113c:	00007797          	auipc	a5,0x7
80001140:	c2478793          	add	a5,a5,-988 # 80007d60 <blockDim>
80001144:	00b32023          	sw	a1,0(t1)
80001148:	0117a023          	sw	a7,0(a5)
8000114c:	18b50063          	beq	a0,a1,800012cc <vx_spawn_threads+0x3f0>
80001150:	00462803          	lw	a6,4(a2)
80001154:	00200e13          	li	t3,2
80001158:	00b32223          	sw	a1,4(t1)
8000115c:	0107a223          	sw	a6,4(a5)
80001160:	030888b3          	mul	a7,a7,a6
80001164:	19c50863          	beq	a0,t3,800012f4 <vx_spawn_threads+0x418>
80001168:	00862503          	lw	a0,8(a2)
8000116c:	02a888b3          	mul	a7,a7,a0
80001170:	0ac0006f          	j	8000121c <vx_spawn_threads+0x340>
80001174:	0005a803          	lw	a6,0(a1)
80001178:	00062883          	lw	a7,0(a2)
8000117c:	00007317          	auipc	t1,0x7
80001180:	bf030313          	add	t1,t1,-1040 # 80007d6c <gridDim>
80001184:	00007797          	auipc	a5,0x7
80001188:	bdc78793          	add	a5,a5,-1060 # 80007d60 <blockDim>
8000118c:	01032023          	sw	a6,0(t1)
80001190:	0117a023          	sw	a7,0(a5)
80001194:	00100e13          	li	t3,1
80001198:	d9c500e3          	beq	a0,t3,80000f18 <vx_spawn_threads+0x3c>
8000119c:	0045ae83          	lw	t4,4(a1)
800011a0:	00462e03          	lw	t3,4(a2)
800011a4:	00200f13          	li	t5,2
800011a8:	01d32223          	sw	t4,4(t1)
800011ac:	01c7a223          	sw	t3,4(a5)
800011b0:	03d80833          	mul	a6,a6,t4
800011b4:	03c888b3          	mul	a7,a7,t3
800011b8:	11e50063          	beq	a0,t5,800012b8 <vx_spawn_threads+0x3dc>
800011bc:	0085a583          	lw	a1,8(a1)
800011c0:	00862503          	lw	a0,8(a2)
800011c4:	02b80833          	mul	a6,a6,a1
800011c8:	02a888b3          	mul	a7,a7,a0
800011cc:	d61ff06f          	j	80000f2c <vx_spawn_threads+0x50>
800011d0:	02660eb3          	mul	t4,a2,t1
800011d4:	03d85e33          	divu	t3,a6,t4
800011d8:	03d875b3          	remu	a1,a6,t4
800011dc:	000e8813          	mv	a6,t4
800011e0:	dd1ff06f          	j	80000fb0 <vx_spawn_threads+0xd4>
800011e4:	00000e13          	li	t3,0
800011e8:	00100e93          	li	t4,1
800011ec:	ed9ff06f          	j	800010c4 <vx_spawn_threads+0x1e8>
800011f0:	00100613          	li	a2,1
800011f4:	00007317          	auipc	t1,0x7
800011f8:	b7830313          	add	t1,t1,-1160 # 80007d6c <gridDim>
800011fc:	00007797          	auipc	a5,0x7
80001200:	b6478793          	add	a5,a5,-1180 # 80007d60 <blockDim>
80001204:	00c32023          	sw	a2,0(t1)
80001208:	00c7a023          	sw	a2,0(a5)
8000120c:	00c32223          	sw	a2,4(t1)
80001210:	00c7a223          	sw	a2,4(a5)
80001214:	00100893          	li	a7,1
80001218:	00100513          	li	a0,1
8000121c:	00100593          	li	a1,1
80001220:	00100813          	li	a6,1
80001224:	d09ff06f          	j	80000f2c <vx_spawn_threads+0x50>
80001228:	00100613          	li	a2,1
8000122c:	00007317          	auipc	t1,0x7
80001230:	b4030313          	add	t1,t1,-1216 # 80007d6c <gridDim>
80001234:	00007797          	auipc	a5,0x7
80001238:	b2c78793          	add	a5,a5,-1236 # 80007d60 <blockDim>
8000123c:	00c32023          	sw	a2,0(t1)
80001240:	00c7a023          	sw	a2,0(a5)
80001244:	00100813          	li	a6,1
80001248:	00100613          	li	a2,1
8000124c:	00c32223          	sw	a2,4(t1)
80001250:	00c7a223          	sw	a2,4(a5)
80001254:	00100593          	li	a1,1
80001258:	e15ff06f          	j	8000106c <vx_spawn_threads+0x190>
8000125c:	00000797          	auipc	a5,0x0
80001260:	af478793          	add	a5,a5,-1292 # 80000d50 <process_threads_stub>
80001264:	00f3100b          	.4byte	0xf3100b
80001268:	fff00793          	li	a5,-1
8000126c:	0007800b          	.4byte	0x7800b
80001270:	9d1ff0ef          	jal	80000c40 <process_threads>
80001274:	00100513          	li	a0,1
80001278:	0005000b          	.4byte	0x5000b
8000127c:	e85ff06f          	j	80001100 <vx_spawn_threads+0x224>
80001280:	00100613          	li	a2,1
80001284:	00007317          	auipc	t1,0x7
80001288:	ae830313          	add	t1,t1,-1304 # 80007d6c <gridDim>
8000128c:	00007797          	auipc	a5,0x7
80001290:	ad478793          	add	a5,a5,-1324 # 80007d60 <blockDim>
80001294:	00c32023          	sw	a2,0(t1)
80001298:	00c7a023          	sw	a2,0(a5)
8000129c:	00c32223          	sw	a2,4(t1)
800012a0:	00c7a223          	sw	a2,4(a5)
800012a4:	00100593          	li	a1,1
800012a8:	00100513          	li	a0,1
800012ac:	00100813          	li	a6,1
800012b0:	00100893          	li	a7,1
800012b4:	c79ff06f          	j	80000f2c <vx_spawn_threads+0x50>
800012b8:	00100593          	li	a1,1
800012bc:	00100513          	li	a0,1
800012c0:	c6dff06f          	j	80000f2c <vx_spawn_threads+0x50>
800012c4:	00100593          	li	a1,1
800012c8:	da5ff06f          	j	8000106c <vx_spawn_threads+0x190>
800012cc:	00a32223          	sw	a0,4(t1)
800012d0:	00a7a223          	sw	a0,4(a5)
800012d4:	f49ff06f          	j	8000121c <vx_spawn_threads+0x340>
800012d8:	000e0613          	mv	a2,t3
800012dc:	00088593          	mv	a1,a7
800012e0:	00005517          	auipc	a0,0x5
800012e4:	47850513          	add	a0,a0,1144 # 80006758 <__fe_raise_inexact+0x10c>
800012e8:	8f9ff0ef          	jal	80000be0 <vx_printf>
800012ec:	fff00513          	li	a0,-1
800012f0:	d25ff06f          	j	80001014 <vx_spawn_threads+0x138>
800012f4:	00100513          	li	a0,1
800012f8:	f25ff06f          	j	8000121c <vx_spawn_threads+0x340>

800012fc <vx_serial>:
800012fc:	fe410113          	add	sp,sp,-28
80001300:	00112c23          	sw	ra,24(sp)
80001304:	01512a23          	sw	s5,20(sp)
80001308:	01412823          	sw	s4,16(sp)
8000130c:	01312623          	sw	s3,12(sp)
80001310:	01212423          	sw	s2,8(sp)
80001314:	00912223          	sw	s1,4(sp)
80001318:	00812023          	sw	s0,0(sp)
8000131c:	00050a13          	mv	s4,a0
80001320:	00058993          	mv	s3,a1
80001324:	fc002973          	csrr	s2,0xfc0
80001328:	cc0024f3          	csrr	s1,0xcc0
8000132c:	00000413          	li	s0,0

80001330 <label_loop>:
80001330:	409402b3          	sub	t0,s0,s1
80001334:	0012b313          	seqz	t1,t0
80001338:	00032a8b          	.4byte	0x32a8b
8000133c:	00029663          	bnez	t0,80001348 <label_join>
80001340:	00098513          	mv	a0,s3
80001344:	000a00e7          	jalr	s4

80001348 <label_join>:
80001348:	000ab00b          	.4byte	0xab00b
8000134c:	00140413          	add	s0,s0,1
80001350:	ff2440e3          	blt	s0,s2,80001330 <label_loop>
80001354:	01812083          	lw	ra,24(sp)
80001358:	01412a83          	lw	s5,20(sp)
8000135c:	01012a03          	lw	s4,16(sp)
80001360:	00c12983          	lw	s3,12(sp)
80001364:	00812903          	lw	s2,8(sp)
80001368:	00412483          	lw	s1,4(sp)
8000136c:	00012403          	lw	s0,0(sp)
80001370:	01c10113          	add	sp,sp,28
80001374:	00008067          	ret

80001378 <vx_perf_dump>:
80001378:	cc202773          	csrr	a4,0xcc2
8000137c:	00871713          	sll	a4,a4,0x8
80001380:	08070793          	add	a5,a4,128
80001384:	b00026f3          	csrr	a3,mcycle
80001388:	08d72023          	sw	a3,128(a4)
8000138c:	b8002773          	csrr	a4,mcycleh
80001390:	00e7a223          	sw	a4,4(a5)
80001394:	b0202773          	csrr	a4,minstret
80001398:	00e7a823          	sw	a4,16(a5)
8000139c:	b8202773          	csrr	a4,minstreth
800013a0:	00e7aa23          	sw	a4,20(a5)
800013a4:	b0302773          	csrr	a4,mhpmcounter3
800013a8:	00e7ac23          	sw	a4,24(a5)
800013ac:	b8302773          	csrr	a4,mhpmcounter3h
800013b0:	00e7ae23          	sw	a4,28(a5)
800013b4:	b0402773          	csrr	a4,mhpmcounter4
800013b8:	02e7a023          	sw	a4,32(a5)
800013bc:	b8402773          	csrr	a4,mhpmcounter4h
800013c0:	02e7a223          	sw	a4,36(a5)
800013c4:	b0502773          	csrr	a4,mhpmcounter5
800013c8:	02e7a423          	sw	a4,40(a5)
800013cc:	b8502773          	csrr	a4,mhpmcounter5h
800013d0:	02e7a623          	sw	a4,44(a5)
800013d4:	b0602773          	csrr	a4,mhpmcounter6
800013d8:	02e7a823          	sw	a4,48(a5)
800013dc:	b8602773          	csrr	a4,mhpmcounter6h
800013e0:	02e7aa23          	sw	a4,52(a5)
800013e4:	b0702773          	csrr	a4,mhpmcounter7
800013e8:	02e7ac23          	sw	a4,56(a5)
800013ec:	b8702773          	csrr	a4,mhpmcounter7h
800013f0:	02e7ae23          	sw	a4,60(a5)
800013f4:	b0802773          	csrr	a4,mhpmcounter8
800013f8:	04e7a023          	sw	a4,64(a5)
800013fc:	b8802773          	csrr	a4,mhpmcounter8h
80001400:	04e7a223          	sw	a4,68(a5)
80001404:	b0902773          	csrr	a4,mhpmcounter9
80001408:	04e7a423          	sw	a4,72(a5)
8000140c:	b8902773          	csrr	a4,mhpmcounter9h
80001410:	04e7a623          	sw	a4,76(a5)
80001414:	b0a02773          	csrr	a4,mhpmcounter10
80001418:	04e7a823          	sw	a4,80(a5)
8000141c:	b8a02773          	csrr	a4,mhpmcounter10h
80001420:	04e7aa23          	sw	a4,84(a5)
80001424:	b0b02773          	csrr	a4,mhpmcounter11
80001428:	04e7ac23          	sw	a4,88(a5)
8000142c:	b8b02773          	csrr	a4,mhpmcounter11h
80001430:	04e7ae23          	sw	a4,92(a5)
80001434:	b0c02773          	csrr	a4,mhpmcounter12
80001438:	06e7a023          	sw	a4,96(a5)
8000143c:	b8c02773          	csrr	a4,mhpmcounter12h
80001440:	06e7a223          	sw	a4,100(a5)
80001444:	b0d02773          	csrr	a4,mhpmcounter13
80001448:	06e7a423          	sw	a4,104(a5)
8000144c:	b8d02773          	csrr	a4,mhpmcounter13h
80001450:	06e7a623          	sw	a4,108(a5)
80001454:	b0e02773          	csrr	a4,mhpmcounter14
80001458:	06e7a823          	sw	a4,112(a5)
8000145c:	b8e02773          	csrr	a4,mhpmcounter14h
80001460:	06e7aa23          	sw	a4,116(a5)
80001464:	b0f02773          	csrr	a4,mhpmcounter15
80001468:	06e7ac23          	sw	a4,120(a5)
8000146c:	b8f02773          	csrr	a4,mhpmcounter15h
80001470:	06e7ae23          	sw	a4,124(a5)
80001474:	b1002773          	csrr	a4,mhpmcounter16
80001478:	08e7a023          	sw	a4,128(a5)
8000147c:	b9002773          	csrr	a4,mhpmcounter16h
80001480:	08e7a223          	sw	a4,132(a5)
80001484:	b1102773          	csrr	a4,mhpmcounter17
80001488:	08e7a423          	sw	a4,136(a5)
8000148c:	b9102773          	csrr	a4,mhpmcounter17h
80001490:	08e7a623          	sw	a4,140(a5)
80001494:	b1202773          	csrr	a4,mhpmcounter18
80001498:	08e7a823          	sw	a4,144(a5)
8000149c:	b9202773          	csrr	a4,mhpmcounter18h
800014a0:	08e7aa23          	sw	a4,148(a5)
800014a4:	b1302773          	csrr	a4,mhpmcounter19
800014a8:	08e7ac23          	sw	a4,152(a5)
800014ac:	b9302773          	csrr	a4,mhpmcounter19h
800014b0:	08e7ae23          	sw	a4,156(a5)
800014b4:	b1402773          	csrr	a4,mhpmcounter20
800014b8:	0ae7a023          	sw	a4,160(a5)
800014bc:	b9402773          	csrr	a4,mhpmcounter20h
800014c0:	0ae7a223          	sw	a4,164(a5)
800014c4:	b1502773          	csrr	a4,mhpmcounter21
800014c8:	0ae7a423          	sw	a4,168(a5)
800014cc:	b9502773          	csrr	a4,mhpmcounter21h
800014d0:	0ae7a623          	sw	a4,172(a5)
800014d4:	b1602773          	csrr	a4,mhpmcounter22
800014d8:	0ae7a823          	sw	a4,176(a5)
800014dc:	b9602773          	csrr	a4,mhpmcounter22h
800014e0:	0ae7aa23          	sw	a4,180(a5)
800014e4:	b1702773          	csrr	a4,mhpmcounter23
800014e8:	0ae7ac23          	sw	a4,184(a5)
800014ec:	b9702773          	csrr	a4,mhpmcounter23h
800014f0:	0ae7ae23          	sw	a4,188(a5)
800014f4:	b1802773          	csrr	a4,mhpmcounter24
800014f8:	0ce7a023          	sw	a4,192(a5)
800014fc:	b9802773          	csrr	a4,mhpmcounter24h
80001500:	0ce7a223          	sw	a4,196(a5)
80001504:	b1902773          	csrr	a4,mhpmcounter25
80001508:	0ce7a423          	sw	a4,200(a5)
8000150c:	b9902773          	csrr	a4,mhpmcounter25h
80001510:	0ce7a623          	sw	a4,204(a5)
80001514:	b1a02773          	csrr	a4,mhpmcounter26
80001518:	0ce7a823          	sw	a4,208(a5)
8000151c:	b9a02773          	csrr	a4,mhpmcounter26h
80001520:	0ce7aa23          	sw	a4,212(a5)
80001524:	b1b02773          	csrr	a4,mhpmcounter27
80001528:	0ce7ac23          	sw	a4,216(a5)
8000152c:	b9b02773          	csrr	a4,mhpmcounter27h
80001530:	0ce7ae23          	sw	a4,220(a5)
80001534:	b1c02773          	csrr	a4,mhpmcounter28
80001538:	0ee7a023          	sw	a4,224(a5)
8000153c:	b9c02773          	csrr	a4,mhpmcounter28h
80001540:	0ee7a223          	sw	a4,228(a5)
80001544:	b1d02773          	csrr	a4,mhpmcounter29
80001548:	0ee7a423          	sw	a4,232(a5)
8000154c:	b9d02773          	csrr	a4,mhpmcounter29h
80001550:	0ee7a623          	sw	a4,236(a5)
80001554:	b1e02773          	csrr	a4,mhpmcounter30
80001558:	0ee7a823          	sw	a4,240(a5)
8000155c:	b9e02773          	csrr	a4,mhpmcounter30h
80001560:	0ee7aa23          	sw	a4,244(a5)
80001564:	b1f02773          	csrr	a4,mhpmcounter31
80001568:	0ee7ac23          	sw	a4,248(a5)
8000156c:	b9f02773          	csrr	a4,mhpmcounter31h
80001570:	0ee7ae23          	sw	a4,252(a5)
80001574:	00008067          	ret

80001578 <_out_null>:
80001578:	00008067          	ret

8000157c <_out_rev>:
8000157c:	fd010113          	add	sp,sp,-48
80001580:	02912223          	sw	s1,36(sp)
80001584:	03212023          	sw	s2,32(sp)
80001588:	01312e23          	sw	s3,28(sp)
8000158c:	01412c23          	sw	s4,24(sp)
80001590:	01512a23          	sw	s5,20(sp)
80001594:	01612823          	sw	s6,16(sp)
80001598:	00060a93          	mv	s5,a2
8000159c:	01812423          	sw	s8,8(sp)
800015a0:	01912223          	sw	s9,4(sp)
800015a4:	01a12023          	sw	s10,0(sp)
800015a8:	02112623          	sw	ra,44(sp)
800015ac:	02812423          	sw	s0,40(sp)
800015b0:	01712623          	sw	s7,12(sp)
800015b4:	0038f613          	and	a2,a7,3
800015b8:	00088c93          	mv	s9,a7
800015bc:	00050913          	mv	s2,a0
800015c0:	00058993          	mv	s3,a1
800015c4:	00068a13          	mv	s4,a3
800015c8:	00070b13          	mv	s6,a4
800015cc:	00078d13          	mv	s10,a5
800015d0:	00080c13          	mv	s8,a6
800015d4:	000a8493          	mv	s1,s5
800015d8:	02061863          	bnez	a2,80001608 <_out_rev+0x8c>
800015dc:	40f804b3          	sub	s1,a6,a5
800015e0:	015484b3          	add	s1,s1,s5
800015e4:	000a8413          	mv	s0,s5
800015e8:	0b07fc63          	bgeu	a5,a6,800016a0 <_out_rev+0x124>
800015ec:	00040613          	mv	a2,s0
800015f0:	000a0693          	mv	a3,s4
800015f4:	00140413          	add	s0,s0,1
800015f8:	00098593          	mv	a1,s3
800015fc:	02000513          	li	a0,32
80001600:	000900e7          	jalr	s2
80001604:	fe9414e3          	bne	s0,s1,800015ec <_out_rev+0x70>
80001608:	01ab0433          	add	s0,s6,s10
8000160c:	00940bb3          	add	s7,s0,s1
80001610:	020d0263          	beqz	s10,80001634 <_out_rev+0xb8>
80001614:	fff44503          	lbu	a0,-1(s0)
80001618:	408b8633          	sub	a2,s7,s0
8000161c:	000a0693          	mv	a3,s4
80001620:	fff40413          	add	s0,s0,-1
80001624:	00098593          	mv	a1,s3
80001628:	000900e7          	jalr	s2
8000162c:	fe8b14e3          	bne	s6,s0,80001614 <_out_rev+0x98>
80001630:	01a484b3          	add	s1,s1,s10
80001634:	002cfc93          	and	s9,s9,2
80001638:	020c8663          	beqz	s9,80001664 <_out_rev+0xe8>
8000163c:	41548ab3          	sub	s5,s1,s5
80001640:	038af263          	bgeu	s5,s8,80001664 <_out_rev+0xe8>
80001644:	00048613          	mv	a2,s1
80001648:	001a8a93          	add	s5,s5,1
8000164c:	000a0693          	mv	a3,s4
80001650:	00098593          	mv	a1,s3
80001654:	02000513          	li	a0,32
80001658:	00148493          	add	s1,s1,1
8000165c:	000900e7          	jalr	s2
80001660:	ff8ae2e3          	bltu	s5,s8,80001644 <_out_rev+0xc8>
80001664:	02c12083          	lw	ra,44(sp)
80001668:	02812403          	lw	s0,40(sp)
8000166c:	02012903          	lw	s2,32(sp)
80001670:	01c12983          	lw	s3,28(sp)
80001674:	01812a03          	lw	s4,24(sp)
80001678:	01412a83          	lw	s5,20(sp)
8000167c:	01012b03          	lw	s6,16(sp)
80001680:	00c12b83          	lw	s7,12(sp)
80001684:	00812c03          	lw	s8,8(sp)
80001688:	00412c83          	lw	s9,4(sp)
8000168c:	00012d03          	lw	s10,0(sp)
80001690:	00048513          	mv	a0,s1
80001694:	02412483          	lw	s1,36(sp)
80001698:	03010113          	add	sp,sp,48
8000169c:	00008067          	ret
800016a0:	000a8493          	mv	s1,s5
800016a4:	f65ff06f          	j	80001608 <_out_rev+0x8c>

800016a8 <_ntoa_format>:
800016a8:	00812383          	lw	t2,8(sp)
800016ac:	00012283          	lw	t0,0(sp)
800016b0:	00412f83          	lw	t6,4(sp)
800016b4:	0023f313          	and	t1,t2,2
800016b8:	00080f13          	mv	t5,a6
800016bc:	06031463          	bnez	t1,80001724 <_ntoa_format+0x7c>
800016c0:	100f9463          	bnez	t6,800017c8 <_ntoa_format+0x120>
800016c4:	0657f063          	bgeu	a5,t0,80001724 <_ntoa_format+0x7c>
800016c8:	02000313          	li	t1,32
800016cc:	0013f813          	and	a6,t2,1
800016d0:	2c678263          	beq	a5,t1,80001994 <_ntoa_format+0x2ec>
800016d4:	03000e13          	li	t3,48
800016d8:	02000e93          	li	t4,32
800016dc:	0080006f          	j	800016e4 <_ntoa_format+0x3c>
800016e0:	15d78a63          	beq	a5,t4,80001834 <_ntoa_format+0x18c>
800016e4:	00178793          	add	a5,a5,1
800016e8:	00f70333          	add	t1,a4,a5
800016ec:	ffc30fa3          	sb	t3,-1(t1)
800016f0:	fe57e8e3          	bltu	a5,t0,800016e0 <_ntoa_format+0x38>
800016f4:	02080863          	beqz	a6,80001724 <_ntoa_format+0x7c>
800016f8:	03f7f663          	bgeu	a5,t6,80001724 <_ntoa_format+0x7c>
800016fc:	02000813          	li	a6,32
80001700:	03000e13          	li	t3,48
80001704:	02000e93          	li	t4,32
80001708:	01079663          	bne	a5,a6,80001714 <_ntoa_format+0x6c>
8000170c:	1300006f          	j	8000183c <_ntoa_format+0x194>
80001710:	07d78263          	beq	a5,t4,80001774 <_ntoa_format+0xcc>
80001714:	00178793          	add	a5,a5,1
80001718:	00f70333          	add	t1,a4,a5
8000171c:	ffc30fa3          	sb	t3,-1(t1)
80001720:	fff798e3          	bne	a5,t6,80001710 <_ntoa_format+0x68>
80001724:	0103f813          	and	a6,t2,16
80001728:	08080663          	beqz	a6,800017b4 <_ntoa_format+0x10c>
8000172c:	4003f813          	and	a6,t2,1024
80001730:	0e081063          	bnez	a6,80001810 <_ntoa_format+0x168>
80001734:	04079a63          	bnez	a5,80001788 <_ntoa_format+0xe0>
80001738:	01000793          	li	a5,16
8000173c:	20f88863          	beq	a7,a5,8000194c <_ntoa_format+0x2a4>
80001740:	00200793          	li	a5,2
80001744:	22f88663          	beq	a7,a5,80001970 <_ntoa_format+0x2c8>
80001748:	03000793          	li	a5,48
8000174c:	00f70023          	sb	a5,0(a4)
80001750:	00100793          	li	a5,1
80001754:	100f1a63          	bnez	t5,80001868 <_ntoa_format+0x1c0>
80001758:	0043f813          	and	a6,t2,4
8000175c:	18080663          	beqz	a6,800018e8 <_ntoa_format+0x240>
80001760:	00f70833          	add	a6,a4,a5
80001764:	02b00893          	li	a7,43
80001768:	01180023          	sb	a7,0(a6)
8000176c:	00178793          	add	a5,a5,1
80001770:	04c0006f          	j	800017bc <_ntoa_format+0x114>
80001774:	0103f813          	and	a6,t2,16
80001778:	02000793          	li	a5,32
8000177c:	04080063          	beqz	a6,800017bc <_ntoa_format+0x114>
80001780:	4003f813          	and	a6,t2,1024
80001784:	08081663          	bnez	a6,80001810 <_ntoa_format+0x168>
80001788:	00f28463          	beq	t0,a5,80001790 <_ntoa_format+0xe8>
8000178c:	09f79263          	bne	a5,t6,80001810 <_ntoa_format+0x168>
80001790:	fff78813          	add	a6,a5,-1
80001794:	18080663          	beqz	a6,80001920 <_ntoa_format+0x278>
80001798:	01000313          	li	t1,16
8000179c:	20688463          	beq	a7,t1,800019a4 <_ntoa_format+0x2fc>
800017a0:	00200313          	li	t1,2
800017a4:	10688463          	beq	a7,t1,800018ac <_ntoa_format+0x204>
800017a8:	01070833          	add	a6,a4,a6
800017ac:	03000893          	li	a7,48
800017b0:	01180023          	sb	a7,0(a6)
800017b4:	02000813          	li	a6,32
800017b8:	f9079ee3          	bne	a5,a6,80001754 <_ntoa_format+0xac>
800017bc:	00038893          	mv	a7,t2
800017c0:	000f8813          	mv	a6,t6
800017c4:	db9ff06f          	j	8000157c <_out_rev>
800017c8:	0013f813          	and	a6,t2,1
800017cc:	0a080c63          	beqz	a6,80001884 <_ntoa_format+0x1dc>
800017d0:	0e0f1663          	bnez	t5,800018bc <_ntoa_format+0x214>
800017d4:	00c3f313          	and	t1,t2,12
800017d8:	0e031263          	bnez	t1,800018bc <_ntoa_format+0x214>
800017dc:	f057fee3          	bgeu	a5,t0,800016f8 <_ntoa_format+0x50>
800017e0:	02000313          	li	t1,32
800017e4:	ee6798e3          	bne	a5,t1,800016d4 <_ntoa_format+0x2c>
800017e8:	0103f313          	and	t1,t2,16
800017ec:	05f7e863          	bltu	a5,t6,8000183c <_ntoa_format+0x194>
800017f0:	f2031ee3          	bnez	t1,8000172c <_ntoa_format+0x84>
800017f4:	fc9ff06f          	j	800017bc <_ntoa_format+0x114>
800017f8:	0103f813          	and	a6,t2,16
800017fc:	fc0800e3          	beqz	a6,800017bc <_ntoa_format+0x114>
80001800:	4003f813          	and	a6,t2,1024
80001804:	fa081ce3          	bnez	a6,800017bc <_ntoa_format+0x114>
80001808:	02000813          	li	a6,32
8000180c:	050f8663          	beq	t6,a6,80001858 <_ntoa_format+0x1b0>
80001810:	01000813          	li	a6,16
80001814:	0b088863          	beq	a7,a6,800018c4 <_ntoa_format+0x21c>
80001818:	00200813          	li	a6,2
8000181c:	09088063          	beq	a7,a6,8000189c <_ntoa_format+0x1f4>
80001820:	02000813          	li	a6,32
80001824:	f9078ce3          	beq	a5,a6,800017bc <_ntoa_format+0x114>
80001828:	00078813          	mv	a6,a5
8000182c:	00178793          	add	a5,a5,1
80001830:	f79ff06f          	j	800017a8 <_ntoa_format+0x100>
80001834:	fc0802e3          	beqz	a6,800017f8 <_ntoa_format+0x150>
80001838:	f3f7fee3          	bgeu	a5,t6,80001774 <_ntoa_format+0xcc>
8000183c:	0103f813          	and	a6,t2,16
80001840:	02000793          	li	a5,32
80001844:	f6080ce3          	beqz	a6,800017bc <_ntoa_format+0x114>
80001848:	4003f813          	and	a6,t2,1024
8000184c:	f60818e3          	bnez	a6,800017bc <_ntoa_format+0x114>
80001850:	18f28263          	beq	t0,a5,800019d4 <_ntoa_format+0x32c>
80001854:	faff9ee3          	bne	t6,a5,80001810 <_ntoa_format+0x168>
80001858:	02000f93          	li	t6,32
8000185c:	02000793          	li	a5,32
80001860:	01f00813          	li	a6,31
80001864:	f35ff06f          	j	80001798 <_ntoa_format+0xf0>
80001868:	00f70833          	add	a6,a4,a5
8000186c:	02d00893          	li	a7,45
80001870:	01180023          	sb	a7,0(a6)
80001874:	00178793          	add	a5,a5,1
80001878:	00038893          	mv	a7,t2
8000187c:	000f8813          	mv	a6,t6
80001880:	cfdff06f          	j	8000157c <_out_rev>
80001884:	ea57f0e3          	bgeu	a5,t0,80001724 <_ntoa_format+0x7c>
80001888:	02000313          	li	t1,32
8000188c:	e46794e3          	bne	a5,t1,800016d4 <_ntoa_format+0x2c>
80001890:	0103f313          	and	t1,t2,16
80001894:	ee0316e3          	bnez	t1,80001780 <_ntoa_format+0xd8>
80001898:	f25ff06f          	j	800017bc <_ntoa_format+0x114>
8000189c:	02000813          	li	a6,32
800018a0:	f1078ee3          	beq	a5,a6,800017bc <_ntoa_format+0x114>
800018a4:	00078813          	mv	a6,a5
800018a8:	00178793          	add	a5,a5,1
800018ac:	01070833          	add	a6,a4,a6
800018b0:	06200893          	li	a7,98
800018b4:	01180023          	sb	a7,0(a6)
800018b8:	f69ff06f          	j	80001820 <_ntoa_format+0x178>
800018bc:	ffff8f93          	add	t6,t6,-1
800018c0:	f1dff06f          	j	800017dc <_ntoa_format+0x134>
800018c4:	0203f813          	and	a6,t2,32
800018c8:	02081e63          	bnez	a6,80001904 <_ntoa_format+0x25c>
800018cc:	02000813          	li	a6,32
800018d0:	ef0786e3          	beq	a5,a6,800017bc <_ntoa_format+0x114>
800018d4:	00f70833          	add	a6,a4,a5
800018d8:	07800893          	li	a7,120
800018dc:	01180023          	sb	a7,0(a6)
800018e0:	00178793          	add	a5,a5,1
800018e4:	f3dff06f          	j	80001820 <_ntoa_format+0x178>
800018e8:	0083f813          	and	a6,t2,8
800018ec:	ec0808e3          	beqz	a6,800017bc <_ntoa_format+0x114>
800018f0:	00f70833          	add	a6,a4,a5
800018f4:	02000893          	li	a7,32
800018f8:	01180023          	sb	a7,0(a6)
800018fc:	00178793          	add	a5,a5,1
80001900:	ebdff06f          	j	800017bc <_ntoa_format+0x114>
80001904:	02000813          	li	a6,32
80001908:	eb078ae3          	beq	a5,a6,800017bc <_ntoa_format+0x114>
8000190c:	00f70833          	add	a6,a4,a5
80001910:	05800893          	li	a7,88
80001914:	01180023          	sb	a7,0(a6)
80001918:	00178793          	add	a5,a5,1
8000191c:	f05ff06f          	j	80001820 <_ntoa_format+0x178>
80001920:	01000793          	li	a5,16
80001924:	e0f89ee3          	bne	a7,a5,80001740 <_ntoa_format+0x98>
80001928:	0203f793          	and	a5,t2,32
8000192c:	02079463          	bnez	a5,80001954 <_ntoa_format+0x2ac>
80001930:	07800793          	li	a5,120
80001934:	00f70023          	sb	a5,0(a4)
80001938:	03000793          	li	a5,48
8000193c:	00f700a3          	sb	a5,1(a4)
80001940:	00200793          	li	a5,2
80001944:	e00f0ae3          	beqz	t5,80001758 <_ntoa_format+0xb0>
80001948:	f21ff06f          	j	80001868 <_ntoa_format+0x1c0>
8000194c:	0203f793          	and	a5,t2,32
80001950:	02078463          	beqz	a5,80001978 <_ntoa_format+0x2d0>
80001954:	05800793          	li	a5,88
80001958:	00f70023          	sb	a5,0(a4)
8000195c:	03000793          	li	a5,48
80001960:	00f700a3          	sb	a5,1(a4)
80001964:	00200793          	li	a5,2
80001968:	de0f08e3          	beqz	t5,80001758 <_ntoa_format+0xb0>
8000196c:	efdff06f          	j	80001868 <_ntoa_format+0x1c0>
80001970:	06200793          	li	a5,98
80001974:	fc1ff06f          	j	80001934 <_ntoa_format+0x28c>
80001978:	07800793          	li	a5,120
8000197c:	00f70023          	sb	a5,0(a4)
80001980:	03000793          	li	a5,48
80001984:	00f700a3          	sb	a5,1(a4)
80001988:	00200793          	li	a5,2
8000198c:	dc0f06e3          	beqz	t5,80001758 <_ntoa_format+0xb0>
80001990:	ed9ff06f          	j	80001868 <_ntoa_format+0x1c0>
80001994:	0103f313          	and	t1,t2,16
80001998:	ee080ee3          	beqz	a6,80001894 <_ntoa_format+0x1ec>
8000199c:	d80318e3          	bnez	t1,8000172c <_ntoa_format+0x84>
800019a0:	e1dff06f          	j	800017bc <_ntoa_format+0x114>
800019a4:	ffe78793          	add	a5,a5,-2
800019a8:	0203f893          	and	a7,t2,32
800019ac:	00f707b3          	add	a5,a4,a5
800019b0:	00089a63          	bnez	a7,800019c4 <_ntoa_format+0x31c>
800019b4:	07800893          	li	a7,120
800019b8:	01178023          	sb	a7,0(a5)
800019bc:	00080793          	mv	a5,a6
800019c0:	e69ff06f          	j	80001828 <_ntoa_format+0x180>
800019c4:	05800893          	li	a7,88
800019c8:	01178023          	sb	a7,0(a5)
800019cc:	00080793          	mv	a5,a6
800019d0:	e59ff06f          	j	80001828 <_ntoa_format+0x180>
800019d4:	01f00813          	li	a6,31
800019d8:	dc1ff06f          	j	80001798 <_ntoa_format+0xf0>

800019dc <_out_char>:
800019dc:	00051463          	bnez	a0,800019e4 <_out_char+0x8>
800019e0:	00008067          	ret
800019e4:	9b0ff06f          	j	80000b94 <vx_putchar>

800019e8 <_etoa>:
800019e8:	f7010113          	add	sp,sp,-144
800019ec:	09212023          	sw	s2,128(sp)
800019f0:	07312e23          	sw	s3,124(sp)
800019f4:	07412c23          	sw	s4,120(sp)
800019f8:	07512a23          	sw	s5,116(sp)
800019fc:	00050993          	mv	s3,a0
80001a00:	00058a13          	mv	s4,a1
80001a04:	00060913          	mv	s2,a2
80001a08:	00068a93          	mv	s5,a3
80001a0c:	00070613          	mv	a2,a4
80001a10:	00078693          	mv	a3,a5
80001a14:	00070513          	mv	a0,a4
80001a18:	00078593          	mv	a1,a5
80001a1c:	08812423          	sw	s0,136(sp)
80001a20:	08912223          	sw	s1,132(sp)
80001a24:	07612823          	sw	s6,112(sp)
80001a28:	07812423          	sw	s8,104(sp)
80001a2c:	07912223          	sw	s9,100(sp)
80001a30:	08112623          	sw	ra,140(sp)
80001a34:	07712623          	sw	s7,108(sp)
80001a38:	07a12023          	sw	s10,96(sp)
80001a3c:	05b12e23          	sw	s11,92(sp)
80001a40:	00070413          	mv	s0,a4
80001a44:	00078493          	mv	s1,a5
80001a48:	00080c13          	mv	s8,a6
80001a4c:	00088b13          	mv	s6,a7
80001a50:	4d5020ef          	jal	80004724 <__cmpdf2>
80001a54:	09012c83          	lw	s9,144(sp)
80001a58:	58051263          	bnez	a0,80001fdc <_etoa+0x5f4>
80001a5c:	00006797          	auipc	a5,0x6
80001a60:	0ec78793          	add	a5,a5,236 # 80007b48 <__SDATA_BEGIN__>
80001a64:	0007a603          	lw	a2,0(a5)
80001a68:	0047a683          	lw	a3,4(a5)
80001a6c:	00040513          	mv	a0,s0
80001a70:	00048593          	mv	a1,s1
80001a74:	5a9020ef          	jal	8000481c <__gedf2>
80001a78:	56a04263          	bgtz	a0,80001fdc <_etoa+0x5f4>
80001a7c:	00006797          	auipc	a5,0x6
80001a80:	0d478793          	add	a5,a5,212 # 80007b50 <__SDATA_BEGIN__+0x8>
80001a84:	0007a603          	lw	a2,0(a5)
80001a88:	0047a683          	lw	a3,4(a5)
80001a8c:	00040513          	mv	a0,s0
80001a90:	00048593          	mv	a1,s1
80001a94:	491020ef          	jal	80004724 <__cmpdf2>
80001a98:	54054263          	bltz	a0,80001fdc <_etoa+0x5f4>
80001a9c:	00040513          	mv	a0,s0
80001aa0:	00048593          	mv	a1,s1
80001aa4:	00000613          	li	a2,0
80001aa8:	00000693          	li	a3,0
80001aac:	479020ef          	jal	80004724 <__cmpdf2>
80001ab0:	80000bb7          	lui	s7,0x80000
80001ab4:	00812a23          	sw	s0,20(sp)
80001ab8:	009bcbb3          	xor	s7,s7,s1
80001abc:	00054463          	bltz	a0,80001ac4 <_etoa+0xdc>
80001ac0:	00048b93          	mv	s7,s1
80001ac4:	400cf793          	and	a5,s9,1024
80001ac8:	02f12623          	sw	a5,44(sp)
80001acc:	00079463          	bnez	a5,80001ad4 <_etoa+0xec>
80001ad0:	00600c13          	li	s8,6
80001ad4:	014bd513          	srl	a0,s7,0x14
80001ad8:	7ff57513          	and	a0,a0,2047
80001adc:	c0150513          	add	a0,a0,-1023
80001ae0:	1a5030ef          	jal	80005484 <__floatsidf>
80001ae4:	00006797          	auipc	a5,0x6
80001ae8:	07478793          	add	a5,a5,116 # 80007b58 <__SDATA_BEGIN__+0x10>
80001aec:	0007a603          	lw	a2,0(a5)
80001af0:	0047a683          	lw	a3,4(a5)
80001af4:	381030ef          	jal	80005674 <__muldf3>
80001af8:	00006797          	auipc	a5,0x6
80001afc:	06878793          	add	a5,a5,104 # 80007b60 <__SDATA_BEGIN__+0x18>
80001b00:	0007a603          	lw	a2,0(a5)
80001b04:	0047a683          	lw	a3,4(a5)
80001b08:	0dc020ef          	jal	80003be4 <__adddf3>
80001b0c:	00006797          	auipc	a5,0x6
80001b10:	05c78793          	add	a5,a5,92 # 80007b68 <__SDATA_BEGIN__+0x20>
80001b14:	00cb9713          	sll	a4,s7,0xc
80001b18:	00c75713          	srl	a4,a4,0xc
80001b1c:	0007a603          	lw	a2,0(a5)
80001b20:	0047a683          	lw	a3,4(a5)
80001b24:	3ff007b7          	lui	a5,0x3ff00
80001b28:	00e7e7b3          	or	a5,a5,a4
80001b2c:	00050d93          	mv	s11,a0
80001b30:	00058d13          	mv	s10,a1
80001b34:	00040513          	mv	a0,s0
80001b38:	00078593          	mv	a1,a5
80001b3c:	424040ef          	jal	80005f60 <__subdf3>
80001b40:	00006797          	auipc	a5,0x6
80001b44:	03078793          	add	a5,a5,48 # 80007b70 <__SDATA_BEGIN__+0x28>
80001b48:	0007a603          	lw	a2,0(a5)
80001b4c:	0047a683          	lw	a3,4(a5)
80001b50:	325030ef          	jal	80005674 <__muldf3>
80001b54:	00050613          	mv	a2,a0
80001b58:	00058693          	mv	a3,a1
80001b5c:	000d8513          	mv	a0,s11
80001b60:	000d0593          	mv	a1,s10
80001b64:	080020ef          	jal	80003be4 <__adddf3>
80001b68:	7a8030ef          	jal	80005310 <__fixdfsi>
80001b6c:	00050d13          	mv	s10,a0
80001b70:	115030ef          	jal	80005484 <__floatsidf>
80001b74:	00006797          	auipc	a5,0x6
80001b78:	00478793          	add	a5,a5,4 # 80007b78 <__SDATA_BEGIN__+0x30>
80001b7c:	0007a603          	lw	a2,0(a5)
80001b80:	0047a683          	lw	a3,4(a5)
80001b84:	00058d93          	mv	s11,a1
80001b88:	00a12823          	sw	a0,16(sp)
80001b8c:	2e9030ef          	jal	80005674 <__muldf3>
80001b90:	00006717          	auipc	a4,0x6
80001b94:	ff070713          	add	a4,a4,-16 # 80007b80 <__SDATA_BEGIN__+0x38>
80001b98:	00072603          	lw	a2,0(a4)
80001b9c:	00472683          	lw	a3,4(a4)
80001ba0:	044020ef          	jal	80003be4 <__adddf3>
80001ba4:	76c030ef          	jal	80005310 <__fixdfsi>
80001ba8:	01012783          	lw	a5,16(sp)
80001bac:	00006697          	auipc	a3,0x6
80001bb0:	fdc68693          	add	a3,a3,-36 # 80007b88 <__SDATA_BEGIN__+0x40>
80001bb4:	0006a603          	lw	a2,0(a3)
80001bb8:	0046a683          	lw	a3,4(a3)
80001bbc:	00050713          	mv	a4,a0
80001bc0:	000d8593          	mv	a1,s11
80001bc4:	00078513          	mv	a0,a5
80001bc8:	00070d93          	mv	s11,a4
80001bcc:	2a9030ef          	jal	80005674 <__muldf3>
80001bd0:	00050793          	mv	a5,a0
80001bd4:	000d8513          	mv	a0,s11
80001bd8:	00f12823          	sw	a5,16(sp)
80001bdc:	01b12c23          	sw	s11,24(sp)
80001be0:	00058d93          	mv	s11,a1
80001be4:	0a1030ef          	jal	80005484 <__floatsidf>
80001be8:	00006717          	auipc	a4,0x6
80001bec:	fa870713          	add	a4,a4,-88 # 80007b90 <__SDATA_BEGIN__+0x48>
80001bf0:	00072603          	lw	a2,0(a4)
80001bf4:	00472683          	lw	a3,4(a4)
80001bf8:	27d030ef          	jal	80005674 <__muldf3>
80001bfc:	01012783          	lw	a5,16(sp)
80001c00:	00050613          	mv	a2,a0
80001c04:	00058693          	mv	a3,a1
80001c08:	00078513          	mv	a0,a5
80001c0c:	000d8593          	mv	a1,s11
80001c10:	350040ef          	jal	80005f60 <__subdf3>
80001c14:	00050613          	mv	a2,a0
80001c18:	00058693          	mv	a3,a1
80001c1c:	00a12e23          	sw	a0,28(sp)
80001c20:	00b12823          	sw	a1,16(sp)
80001c24:	251030ef          	jal	80005674 <__muldf3>
80001c28:	01012783          	lw	a5,16(sp)
80001c2c:	01c12703          	lw	a4,28(sp)
80001c30:	00050d93          	mv	s11,a0
80001c34:	00078693          	mv	a3,a5
80001c38:	00058813          	mv	a6,a1
80001c3c:	00070613          	mv	a2,a4
80001c40:	00078593          	mv	a1,a5
80001c44:	00070513          	mv	a0,a4
80001c48:	02f12223          	sw	a5,36(sp)
80001c4c:	02e12423          	sw	a4,40(sp)
80001c50:	01012823          	sw	a6,16(sp)
80001c54:	791010ef          	jal	80003be4 <__adddf3>
80001c58:	00006697          	auipc	a3,0x6
80001c5c:	f4068693          	add	a3,a3,-192 # 80007b98 <__SDATA_BEGIN__+0x50>
80001c60:	00058813          	mv	a6,a1
80001c64:	0006a603          	lw	a2,0(a3)
80001c68:	01012583          	lw	a1,16(sp)
80001c6c:	0046a683          	lw	a3,4(a3)
80001c70:	00050893          	mv	a7,a0
80001c74:	000d8513          	mv	a0,s11
80001c78:	03112023          	sw	a7,32(sp)
80001c7c:	01012e23          	sw	a6,28(sp)
80001c80:	495020ef          	jal	80004914 <__divdf3>
80001c84:	00006717          	auipc	a4,0x6
80001c88:	f1c70713          	add	a4,a4,-228 # 80007ba0 <__SDATA_BEGIN__+0x58>
80001c8c:	00072603          	lw	a2,0(a4)
80001c90:	00472683          	lw	a3,4(a4)
80001c94:	751010ef          	jal	80003be4 <__adddf3>
80001c98:	00058693          	mv	a3,a1
80001c9c:	01012583          	lw	a1,16(sp)
80001ca0:	00050613          	mv	a2,a0
80001ca4:	000d8513          	mv	a0,s11
80001ca8:	46d020ef          	jal	80004914 <__divdf3>
80001cac:	00006697          	auipc	a3,0x6
80001cb0:	efc68693          	add	a3,a3,-260 # 80007ba8 <__SDATA_BEGIN__+0x60>
80001cb4:	0006a603          	lw	a2,0(a3)
80001cb8:	0046a683          	lw	a3,4(a3)
80001cbc:	729010ef          	jal	80003be4 <__adddf3>
80001cc0:	00058693          	mv	a3,a1
80001cc4:	01012583          	lw	a1,16(sp)
80001cc8:	00050613          	mv	a2,a0
80001ccc:	000d8513          	mv	a0,s11
80001cd0:	445020ef          	jal	80004914 <__divdf3>
80001cd4:	02812703          	lw	a4,40(sp)
80001cd8:	02412783          	lw	a5,36(sp)
80001cdc:	00006697          	auipc	a3,0x6
80001ce0:	ed468693          	add	a3,a3,-300 # 80007bb0 <__SDATA_BEGIN__+0x68>
80001ce4:	00050313          	mv	t1,a0
80001ce8:	00058d93          	mv	s11,a1
80001cec:	0006a503          	lw	a0,0(a3)
80001cf0:	0046a583          	lw	a1,4(a3)
80001cf4:	00070613          	mv	a2,a4
80001cf8:	00078693          	mv	a3,a5
80001cfc:	00612823          	sw	t1,16(sp)
80001d00:	260040ef          	jal	80005f60 <__subdf3>
80001d04:	01012303          	lw	t1,16(sp)
80001d08:	00050613          	mv	a2,a0
80001d0c:	00058693          	mv	a3,a1
80001d10:	00030513          	mv	a0,t1
80001d14:	000d8593          	mv	a1,s11
80001d18:	6cd010ef          	jal	80003be4 <__adddf3>
80001d1c:	02012883          	lw	a7,32(sp)
80001d20:	01c12803          	lw	a6,28(sp)
80001d24:	00050613          	mv	a2,a0
80001d28:	00058693          	mv	a3,a1
80001d2c:	00088513          	mv	a0,a7
80001d30:	00080593          	mv	a1,a6
80001d34:	3e1020ef          	jal	80004914 <__divdf3>
80001d38:	00006797          	auipc	a5,0x6
80001d3c:	e8078793          	add	a5,a5,-384 # 80007bb8 <__SDATA_BEGIN__+0x70>
80001d40:	0007a603          	lw	a2,0(a5)
80001d44:	0047a683          	lw	a3,4(a5)
80001d48:	69d010ef          	jal	80003be4 <__adddf3>
80001d4c:	01812783          	lw	a5,24(sp)
80001d50:	00000613          	li	a2,0
80001d54:	3ff78793          	add	a5,a5,1023
80001d58:	01479793          	sll	a5,a5,0x14
80001d5c:	00078693          	mv	a3,a5
80001d60:	115030ef          	jal	80005674 <__muldf3>
80001d64:	00050613          	mv	a2,a0
80001d68:	00a12c23          	sw	a0,24(sp)
80001d6c:	00058693          	mv	a3,a1
80001d70:	00b12823          	sw	a1,16(sp)
80001d74:	00040513          	mv	a0,s0
80001d78:	000b8593          	mv	a1,s7
80001d7c:	1a9020ef          	jal	80004724 <__cmpdf2>
80001d80:	01012783          	lw	a5,16(sp)
80001d84:	01812703          	lw	a4,24(sp)
80001d88:	02055663          	bgez	a0,80001db4 <_etoa+0x3cc>
80001d8c:	00006697          	auipc	a3,0x6
80001d90:	e1468693          	add	a3,a3,-492 # 80007ba0 <__SDATA_BEGIN__+0x58>
80001d94:	0006a603          	lw	a2,0(a3)
80001d98:	0046a683          	lw	a3,4(a3)
80001d9c:	00070513          	mv	a0,a4
80001da0:	00078593          	mv	a1,a5
80001da4:	371020ef          	jal	80004914 <__divdf3>
80001da8:	fffd0d13          	add	s10,s10,-1
80001dac:	00050713          	mv	a4,a0
80001db0:	00058793          	mv	a5,a1
80001db4:	063d0d93          	add	s11,s10,99
80001db8:	00bcd693          	srl	a3,s9,0xb
80001dbc:	0c600613          	li	a2,198
80001dc0:	01b63db3          	sltu	s11,a2,s11
80001dc4:	0016f693          	and	a3,a3,1
80001dc8:	004d8d93          	add	s11,s11,4
80001dcc:	06068a63          	beqz	a3,80001e40 <_etoa+0x458>
80001dd0:	00006697          	auipc	a3,0x6
80001dd4:	df068693          	add	a3,a3,-528 # 80007bc0 <__SDATA_BEGIN__+0x78>
80001dd8:	0006a603          	lw	a2,0(a3)
80001ddc:	0046a683          	lw	a3,4(a3)
80001de0:	00040513          	mv	a0,s0
80001de4:	000b8593          	mv	a1,s7
80001de8:	00f12c23          	sw	a5,24(sp)
80001dec:	00e12823          	sw	a4,16(sp)
80001df0:	22d020ef          	jal	8000481c <__gedf2>
80001df4:	01012703          	lw	a4,16(sp)
80001df8:	01812783          	lw	a5,24(sp)
80001dfc:	26054463          	bltz	a0,80002064 <_etoa+0x67c>
80001e00:	00006697          	auipc	a3,0x6
80001e04:	dc868693          	add	a3,a3,-568 # 80007bc8 <__SDATA_BEGIN__+0x80>
80001e08:	0006a603          	lw	a2,0(a3)
80001e0c:	0046a683          	lw	a3,4(a3)
80001e10:	00040513          	mv	a0,s0
80001e14:	000b8593          	mv	a1,s7
80001e18:	10d020ef          	jal	80004724 <__cmpdf2>
80001e1c:	01012703          	lw	a4,16(sp)
80001e20:	01812783          	lw	a5,24(sp)
80001e24:	24055063          	bgez	a0,80002064 <_etoa+0x67c>
80001e28:	258d5863          	bge	s10,s8,80002078 <_etoa+0x690>
80001e2c:	41ac0d33          	sub	s10,s8,s10
80001e30:	fffd0c13          	add	s8,s10,-1
80001e34:	400cec93          	or	s9,s9,1024
80001e38:	00000d93          	li	s11,0
80001e3c:	00000d13          	li	s10,0
80001e40:	00000893          	li	a7,0
80001e44:	016df463          	bgeu	s11,s6,80001e4c <_etoa+0x464>
80001e48:	41bb08b3          	sub	a7,s6,s11
80001e4c:	002cf693          	and	a3,s9,2
80001e50:	00d12c23          	sw	a3,24(sp)
80001e54:	00068863          	beqz	a3,80001e64 <_etoa+0x47c>
80001e58:	001db693          	seqz	a3,s11
80001e5c:	40d006b3          	neg	a3,a3
80001e60:	00d8f8b3          	and	a7,a7,a3
80001e64:	1c0d1c63          	bnez	s10,8000203c <_etoa+0x654>
80001e68:	00040513          	mv	a0,s0
80001e6c:	00048593          	mv	a1,s1
80001e70:	00000613          	li	a2,0
80001e74:	00000693          	li	a3,0
80001e78:	01112823          	sw	a7,16(sp)
80001e7c:	0a9020ef          	jal	80004724 <__cmpdf2>
80001e80:	01012883          	lw	a7,16(sp)
80001e84:	00055663          	bgez	a0,80001e90 <_etoa+0x4a8>
80001e88:	800007b7          	lui	a5,0x80000
80001e8c:	0177cbb3          	xor	s7,a5,s7
80001e90:	01412783          	lw	a5,20(sp)
80001e94:	000c0813          	mv	a6,s8
80001e98:	000a8693          	mv	a3,s5
80001e9c:	00078613          	mv	a2,a5
80001ea0:	fffff7b7          	lui	a5,0xfffff
80001ea4:	7ff78793          	add	a5,a5,2047 # fffff7ff <__global_pointer+0x7fff74d3>
80001ea8:	00fcf7b3          	and	a5,s9,a5
80001eac:	00f12023          	sw	a5,0(sp)
80001eb0:	00060713          	mv	a4,a2
80001eb4:	000b8793          	mv	a5,s7
80001eb8:	00090613          	mv	a2,s2
80001ebc:	000a0593          	mv	a1,s4
80001ec0:	00098513          	mv	a0,s3
80001ec4:	1bc000ef          	jal	80002080 <_ftoa>
80001ec8:	00050413          	mv	s0,a0
80001ecc:	0c0d8863          	beqz	s11,80001f9c <_etoa+0x5b4>
80001ed0:	fffcc513          	not	a0,s9
80001ed4:	02057513          	and	a0,a0,32
80001ed8:	00040613          	mv	a2,s0
80001edc:	000a0593          	mv	a1,s4
80001ee0:	000a8693          	mv	a3,s5
80001ee4:	04550513          	add	a0,a0,69
80001ee8:	000980e7          	jalr	s3
80001eec:	41fd5793          	sra	a5,s10,0x1f
80001ef0:	01a7c733          	xor	a4,a5,s10
80001ef4:	40f70733          	sub	a4,a4,a5
80001ef8:	00140613          	add	a2,s0,1
80001efc:	01fd5813          	srl	a6,s10,0x1f
80001f00:	fffd8d93          	add	s11,s11,-1
80001f04:	00000793          	li	a5,0
80001f08:	00a00593          	li	a1,10
80001f0c:	00900313          	li	t1,9
80001f10:	02000e13          	li	t3,32
80001f14:	0080006f          	j	80001f1c <_etoa+0x534>
80001f18:	03c78463          	beq	a5,t3,80001f40 <_etoa+0x558>
80001f1c:	02b776b3          	remu	a3,a4,a1
80001f20:	03010513          	add	a0,sp,48
80001f24:	00178793          	add	a5,a5,1
80001f28:	00f508b3          	add	a7,a0,a5
80001f2c:	00070513          	mv	a0,a4
80001f30:	03068693          	add	a3,a3,48
80001f34:	fed88fa3          	sb	a3,-1(a7)
80001f38:	02b75733          	divu	a4,a4,a1
80001f3c:	fca36ee3          	bltu	t1,a0,80001f18 <_etoa+0x530>
80001f40:	00500713          	li	a4,5
80001f44:	00e12423          	sw	a4,8(sp)
80001f48:	01b12223          	sw	s11,4(sp)
80001f4c:	00012023          	sw	zero,0(sp)
80001f50:	00a00893          	li	a7,10
80001f54:	03010713          	add	a4,sp,48
80001f58:	000a8693          	mv	a3,s5
80001f5c:	000a0593          	mv	a1,s4
80001f60:	00098513          	mv	a0,s3
80001f64:	f44ff0ef          	jal	800016a8 <_ntoa_format>
80001f68:	01812783          	lw	a5,24(sp)
80001f6c:	00050413          	mv	s0,a0
80001f70:	02078663          	beqz	a5,80001f9c <_etoa+0x5b4>
80001f74:	41250933          	sub	s2,a0,s2
80001f78:	03697263          	bgeu	s2,s6,80001f9c <_etoa+0x5b4>
80001f7c:	00040613          	mv	a2,s0
80001f80:	00190913          	add	s2,s2,1
80001f84:	000a8693          	mv	a3,s5
80001f88:	000a0593          	mv	a1,s4
80001f8c:	02000513          	li	a0,32
80001f90:	00140413          	add	s0,s0,1
80001f94:	000980e7          	jalr	s3
80001f98:	ff6962e3          	bltu	s2,s6,80001f7c <_etoa+0x594>
80001f9c:	08c12083          	lw	ra,140(sp)
80001fa0:	00040513          	mv	a0,s0
80001fa4:	08812403          	lw	s0,136(sp)
80001fa8:	08412483          	lw	s1,132(sp)
80001fac:	08012903          	lw	s2,128(sp)
80001fb0:	07c12983          	lw	s3,124(sp)
80001fb4:	07812a03          	lw	s4,120(sp)
80001fb8:	07412a83          	lw	s5,116(sp)
80001fbc:	07012b03          	lw	s6,112(sp)
80001fc0:	06c12b83          	lw	s7,108(sp)
80001fc4:	06812c03          	lw	s8,104(sp)
80001fc8:	06412c83          	lw	s9,100(sp)
80001fcc:	06012d03          	lw	s10,96(sp)
80001fd0:	05c12d83          	lw	s11,92(sp)
80001fd4:	09010113          	add	sp,sp,144
80001fd8:	00008067          	ret
80001fdc:	00040713          	mv	a4,s0
80001fe0:	08812403          	lw	s0,136(sp)
80001fe4:	09912823          	sw	s9,144(sp)
80001fe8:	08c12083          	lw	ra,140(sp)
80001fec:	06c12b83          	lw	s7,108(sp)
80001ff0:	06412c83          	lw	s9,100(sp)
80001ff4:	06012d03          	lw	s10,96(sp)
80001ff8:	05c12d83          	lw	s11,92(sp)
80001ffc:	00048793          	mv	a5,s1
80002000:	000b0893          	mv	a7,s6
80002004:	08412483          	lw	s1,132(sp)
80002008:	07012b03          	lw	s6,112(sp)
8000200c:	000c0813          	mv	a6,s8
80002010:	000a8693          	mv	a3,s5
80002014:	06812c03          	lw	s8,104(sp)
80002018:	07412a83          	lw	s5,116(sp)
8000201c:	00090613          	mv	a2,s2
80002020:	000a0593          	mv	a1,s4
80002024:	08012903          	lw	s2,128(sp)
80002028:	07812a03          	lw	s4,120(sp)
8000202c:	00098513          	mv	a0,s3
80002030:	07c12983          	lw	s3,124(sp)
80002034:	09010113          	add	sp,sp,144
80002038:	0480006f          	j	80002080 <_ftoa>
8000203c:	000b8593          	mv	a1,s7
80002040:	00070613          	mv	a2,a4
80002044:	00040513          	mv	a0,s0
80002048:	00078693          	mv	a3,a5
8000204c:	01112823          	sw	a7,16(sp)
80002050:	0c5020ef          	jal	80004914 <__divdf3>
80002054:	01012883          	lw	a7,16(sp)
80002058:	00a12a23          	sw	a0,20(sp)
8000205c:	00058b93          	mv	s7,a1
80002060:	e09ff06f          	j	80001e68 <_etoa+0x480>
80002064:	dc0c0ee3          	beqz	s8,80001e40 <_etoa+0x458>
80002068:	02c12683          	lw	a3,44(sp)
8000206c:	00d036b3          	snez	a3,a3
80002070:	40dc0c33          	sub	s8,s8,a3
80002074:	dcdff06f          	j	80001e40 <_etoa+0x458>
80002078:	00000c13          	li	s8,0
8000207c:	db9ff06f          	j	80001e34 <_etoa+0x44c>

80002080 <_ftoa>:
80002080:	f8010113          	add	sp,sp,-128
80002084:	07312623          	sw	s3,108(sp)
80002088:	05812c23          	sw	s8,88(sp)
8000208c:	05912a23          	sw	s9,84(sp)
80002090:	05a12823          	sw	s10,80(sp)
80002094:	00050993          	mv	s3,a0
80002098:	00058c13          	mv	s8,a1
8000209c:	00060c93          	mv	s9,a2
800020a0:	00068d13          	mv	s10,a3
800020a4:	00070613          	mv	a2,a4
800020a8:	00078693          	mv	a3,a5
800020ac:	00070513          	mv	a0,a4
800020b0:	00078593          	mv	a1,a5
800020b4:	06812c23          	sw	s0,120(sp)
800020b8:	06912a23          	sw	s1,116(sp)
800020bc:	07212823          	sw	s2,112(sp)
800020c0:	07612023          	sw	s6,96(sp)
800020c4:	05b12623          	sw	s11,76(sp)
800020c8:	06112e23          	sw	ra,124(sp)
800020cc:	07412423          	sw	s4,104(sp)
800020d0:	07512223          	sw	s5,100(sp)
800020d4:	05712e23          	sw	s7,92(sp)
800020d8:	00070493          	mv	s1,a4
800020dc:	00078413          	mv	s0,a5
800020e0:	00080b13          	mv	s6,a6
800020e4:	00088913          	mv	s2,a7
800020e8:	63c020ef          	jal	80004724 <__cmpdf2>
800020ec:	08012d83          	lw	s11,128(sp)
800020f0:	20051463          	bnez	a0,800022f8 <_ftoa+0x278>
800020f4:	00006797          	auipc	a5,0x6
800020f8:	a5c78793          	add	a5,a5,-1444 # 80007b50 <__SDATA_BEGIN__+0x8>
800020fc:	0007a603          	lw	a2,0(a5)
80002100:	0047a683          	lw	a3,4(a5)
80002104:	00048513          	mv	a0,s1
80002108:	00040593          	mv	a1,s0
8000210c:	618020ef          	jal	80004724 <__cmpdf2>
80002110:	2e054063          	bltz	a0,800023f0 <_ftoa+0x370>
80002114:	00006797          	auipc	a5,0x6
80002118:	a3478793          	add	a5,a5,-1484 # 80007b48 <__SDATA_BEGIN__>
8000211c:	0007a603          	lw	a2,0(a5)
80002120:	0047a683          	lw	a3,4(a5)
80002124:	00048513          	mv	a0,s1
80002128:	00040593          	mv	a1,s0
8000212c:	6f0020ef          	jal	8000481c <__gedf2>
80002130:	1aa04463          	bgtz	a0,800022d8 <_ftoa+0x258>
80002134:	00006a17          	auipc	s4,0x6
80002138:	a9ca0a13          	add	s4,s4,-1380 # 80007bd0 <__SDATA_BEGIN__+0x88>
8000213c:	000a2603          	lw	a2,0(s4)
80002140:	004a2683          	lw	a3,4(s4)
80002144:	00048513          	mv	a0,s1
80002148:	00040593          	mv	a1,s0
8000214c:	6d0020ef          	jal	8000481c <__gedf2>
80002150:	24a04063          	bgtz	a0,80002390 <_ftoa+0x310>
80002154:	00006797          	auipc	a5,0x6
80002158:	a8478793          	add	a5,a5,-1404 # 80007bd8 <__SDATA_BEGIN__+0x90>
8000215c:	0007a603          	lw	a2,0(a5)
80002160:	0047a683          	lw	a3,4(a5)
80002164:	00048513          	mv	a0,s1
80002168:	00040593          	mv	a1,s0
8000216c:	5b8020ef          	jal	80004724 <__cmpdf2>
80002170:	22054063          	bltz	a0,80002390 <_ftoa+0x310>
80002174:	00048513          	mv	a0,s1
80002178:	00040593          	mv	a1,s0
8000217c:	00000613          	li	a2,0
80002180:	00000693          	li	a3,0
80002184:	5a0020ef          	jal	80004724 <__cmpdf2>
80002188:	1e054063          	bltz	a0,80002368 <_ftoa+0x2e8>
8000218c:	00012c23          	sw	zero,24(sp)
80002190:	400dfa93          	and	s5,s11,1024
80002194:	400a8c63          	beqz	s5,800025ac <_ftoa+0x52c>
80002198:	00900793          	li	a5,9
8000219c:	5167f663          	bgeu	a5,s6,800026a8 <_ftoa+0x628>
800021a0:	ff7b0a93          	add	s5,s6,-9
800021a4:	00000693          	li	a3,0
800021a8:	02010b93          	add	s7,sp,32
800021ac:	03000513          	li	a0,48
800021b0:	02000593          	li	a1,32
800021b4:	00168693          	add	a3,a3,1
800021b8:	00db8633          	add	a2,s7,a3
800021bc:	fea60fa3          	sb	a0,-1(a2)
800021c0:	40db0333          	sub	t1,s6,a3
800021c4:	44b68063          	beq	a3,a1,80002604 <_ftoa+0x584>
800021c8:	ff5696e3          	bne	a3,s5,800021b4 <_ftoa+0x134>
800021cc:	000a2783          	lw	a5,0(s4)
800021d0:	004a2803          	lw	a6,4(s4)
800021d4:	00f12023          	sw	a5,0(sp)
800021d8:	01012223          	sw	a6,4(sp)
800021dc:	00040593          	mv	a1,s0
800021e0:	00048513          	mv	a0,s1
800021e4:	00612a23          	sw	t1,20(sp)
800021e8:	128030ef          	jal	80005310 <__fixdfsi>
800021ec:	00050a13          	mv	s4,a0
800021f0:	294030ef          	jal	80005484 <__floatsidf>
800021f4:	00050613          	mv	a2,a0
800021f8:	00058693          	mv	a3,a1
800021fc:	00048513          	mv	a0,s1
80002200:	00040593          	mv	a1,s0
80002204:	55d030ef          	jal	80005f60 <__subdf3>
80002208:	00012603          	lw	a2,0(sp)
8000220c:	00412683          	lw	a3,4(sp)
80002210:	464030ef          	jal	80005674 <__muldf3>
80002214:	00058b13          	mv	s6,a1
80002218:	00a12823          	sw	a0,16(sp)
8000221c:	1c8030ef          	jal	800053e4 <__fixunsdfsi>
80002220:	00a12623          	sw	a0,12(sp)
80002224:	364030ef          	jal	80005588 <__floatunsidf>
80002228:	01012783          	lw	a5,16(sp)
8000222c:	00050613          	mv	a2,a0
80002230:	00058693          	mv	a3,a1
80002234:	00078513          	mv	a0,a5
80002238:	000b0593          	mv	a1,s6
8000223c:	525030ef          	jal	80005f60 <__subdf3>
80002240:	00006b17          	auipc	s6,0x6
80002244:	940b0b13          	add	s6,s6,-1728 # 80007b80 <__SDATA_BEGIN__+0x38>
80002248:	000b2603          	lw	a2,0(s6)
8000224c:	004b2683          	lw	a3,4(s6)
80002250:	00a12823          	sw	a0,16(sp)
80002254:	00b12e23          	sw	a1,28(sp)
80002258:	5c4020ef          	jal	8000481c <__gedf2>
8000225c:	00c12883          	lw	a7,12(sp)
80002260:	01412303          	lw	t1,20(sp)
80002264:	30a05663          	blez	a0,80002570 <_ftoa+0x4f0>
80002268:	00188893          	add	a7,a7,1
8000226c:	00088513          	mv	a0,a7
80002270:	00612823          	sw	t1,16(sp)
80002274:	01112623          	sw	a7,12(sp)
80002278:	310030ef          	jal	80005588 <__floatunsidf>
8000227c:	00012603          	lw	a2,0(sp)
80002280:	00412683          	lw	a3,4(sp)
80002284:	598020ef          	jal	8000481c <__gedf2>
80002288:	00c12883          	lw	a7,12(sp)
8000228c:	01012303          	lw	t1,16(sp)
80002290:	00054663          	bltz	a0,8000229c <_ftoa+0x21c>
80002294:	001a0a13          	add	s4,s4,1
80002298:	00000893          	li	a7,0
8000229c:	16030663          	beqz	t1,80002408 <_ftoa+0x388>
800022a0:	02000513          	li	a0,32
800022a4:	00a00613          	li	a2,10
800022a8:	00900e13          	li	t3,9
800022ac:	34aa8863          	beq	s5,a0,800025fc <_ftoa+0x57c>
800022b0:	02c8f6b3          	remu	a3,a7,a2
800022b4:	001a8a93          	add	s5,s5,1
800022b8:	015b85b3          	add	a1,s7,s5
800022bc:	fff30313          	add	t1,t1,-1
800022c0:	03068693          	add	a3,a3,48
800022c4:	fed58fa3          	sb	a3,-1(a1)
800022c8:	02c8d6b3          	divu	a3,a7,a2
800022cc:	311e7263          	bgeu	t3,a7,800025d0 <_ftoa+0x550>
800022d0:	00068893          	mv	a7,a3
800022d4:	fd9ff06f          	j	800022ac <_ftoa+0x22c>
800022d8:	004df793          	and	a5,s11,4
800022dc:	06079e63          	bnez	a5,80002358 <_ftoa+0x2d8>
800022e0:	00004717          	auipc	a4,0x4
800022e4:	4b070713          	add	a4,a4,1200 # 80006790 <__fe_raise_inexact+0x144>
800022e8:	00300793          	li	a5,3
800022ec:	000d8893          	mv	a7,s11
800022f0:	00090813          	mv	a6,s2
800022f4:	0180006f          	j	8000230c <_ftoa+0x28c>
800022f8:	000d8893          	mv	a7,s11
800022fc:	00090813          	mv	a6,s2
80002300:	00300793          	li	a5,3
80002304:	00004717          	auipc	a4,0x4
80002308:	49070713          	add	a4,a4,1168 # 80006794 <__fe_raise_inexact+0x148>
8000230c:	07812403          	lw	s0,120(sp)
80002310:	07c12083          	lw	ra,124(sp)
80002314:	07412483          	lw	s1,116(sp)
80002318:	07012903          	lw	s2,112(sp)
8000231c:	06812a03          	lw	s4,104(sp)
80002320:	06412a83          	lw	s5,100(sp)
80002324:	06012b03          	lw	s6,96(sp)
80002328:	05c12b83          	lw	s7,92(sp)
8000232c:	04c12d83          	lw	s11,76(sp)
80002330:	000d0693          	mv	a3,s10
80002334:	000c8613          	mv	a2,s9
80002338:	05012d03          	lw	s10,80(sp)
8000233c:	05412c83          	lw	s9,84(sp)
80002340:	000c0593          	mv	a1,s8
80002344:	00098513          	mv	a0,s3
80002348:	05812c03          	lw	s8,88(sp)
8000234c:	06c12983          	lw	s3,108(sp)
80002350:	08010113          	add	sp,sp,128
80002354:	a28ff06f          	j	8000157c <_out_rev>
80002358:	00004717          	auipc	a4,0x4
8000235c:	43070713          	add	a4,a4,1072 # 80006788 <__fe_raise_inexact+0x13c>
80002360:	00400793          	li	a5,4
80002364:	f89ff06f          	j	800022ec <_ftoa+0x26c>
80002368:	00048613          	mv	a2,s1
8000236c:	00040693          	mv	a3,s0
80002370:	00000513          	li	a0,0
80002374:	00000593          	li	a1,0
80002378:	3e9030ef          	jal	80005f60 <__subdf3>
8000237c:	00100793          	li	a5,1
80002380:	00050493          	mv	s1,a0
80002384:	00058413          	mv	s0,a1
80002388:	00f12c23          	sw	a5,24(sp)
8000238c:	e05ff06f          	j	80002190 <_ftoa+0x110>
80002390:	00040793          	mv	a5,s0
80002394:	07812403          	lw	s0,120(sp)
80002398:	09b12023          	sw	s11,128(sp)
8000239c:	07c12083          	lw	ra,124(sp)
800023a0:	06812a03          	lw	s4,104(sp)
800023a4:	06412a83          	lw	s5,100(sp)
800023a8:	05c12b83          	lw	s7,92(sp)
800023ac:	04c12d83          	lw	s11,76(sp)
800023b0:	00048713          	mv	a4,s1
800023b4:	00090893          	mv	a7,s2
800023b8:	07412483          	lw	s1,116(sp)
800023bc:	07012903          	lw	s2,112(sp)
800023c0:	000b0813          	mv	a6,s6
800023c4:	000d0693          	mv	a3,s10
800023c8:	06012b03          	lw	s6,96(sp)
800023cc:	05012d03          	lw	s10,80(sp)
800023d0:	000c8613          	mv	a2,s9
800023d4:	000c0593          	mv	a1,s8
800023d8:	05412c83          	lw	s9,84(sp)
800023dc:	05812c03          	lw	s8,88(sp)
800023e0:	00098513          	mv	a0,s3
800023e4:	06c12983          	lw	s3,108(sp)
800023e8:	08010113          	add	sp,sp,128
800023ec:	dfcff06f          	j	800019e8 <_etoa>
800023f0:	000d8893          	mv	a7,s11
800023f4:	00090813          	mv	a6,s2
800023f8:	00400793          	li	a5,4
800023fc:	00004717          	auipc	a4,0x4
80002400:	39c70713          	add	a4,a4,924 # 80006798 <__fe_raise_inexact+0x14c>
80002404:	f09ff06f          	j	8000230c <_ftoa+0x28c>
80002408:	000a0513          	mv	a0,s4
8000240c:	078030ef          	jal	80005484 <__floatsidf>
80002410:	00050613          	mv	a2,a0
80002414:	00058693          	mv	a3,a1
80002418:	00048513          	mv	a0,s1
8000241c:	00040593          	mv	a1,s0
80002420:	341030ef          	jal	80005f60 <__subdf3>
80002424:	000b2403          	lw	s0,0(s6)
80002428:	004b2483          	lw	s1,4(s6)
8000242c:	00a12023          	sw	a0,0(sp)
80002430:	00040613          	mv	a2,s0
80002434:	00048693          	mv	a3,s1
80002438:	00058b13          	mv	s6,a1
8000243c:	2e8020ef          	jal	80004724 <__cmpdf2>
80002440:	00055e63          	bgez	a0,8000245c <_ftoa+0x3dc>
80002444:	00012503          	lw	a0,0(sp)
80002448:	000b0593          	mv	a1,s6
8000244c:	00040613          	mv	a2,s0
80002450:	00048693          	mv	a3,s1
80002454:	3c8020ef          	jal	8000481c <__gedf2>
80002458:	00a05663          	blez	a0,80002464 <_ftoa+0x3e4>
8000245c:	001a7693          	and	a3,s4,1
80002460:	00da0a33          	add	s4,s4,a3
80002464:	02000513          	li	a0,32
80002468:	00a00613          	li	a2,10
8000246c:	0aaa8a63          	beq	s5,a0,80002520 <_ftoa+0x4a0>
80002470:	02ca66b3          	rem	a3,s4,a2
80002474:	001a8a93          	add	s5,s5,1
80002478:	015b85b3          	add	a1,s7,s5
8000247c:	02ca4a33          	div	s4,s4,a2
80002480:	03068693          	add	a3,a3,48
80002484:	fed58fa3          	sb	a3,-1(a1)
80002488:	fe0a12e3          	bnez	s4,8000246c <_ftoa+0x3ec>
8000248c:	003df693          	and	a3,s11,3
80002490:	00100613          	li	a2,1
80002494:	24c68263          	beq	a3,a2,800026d8 <_ftoa+0x658>
80002498:	02000693          	li	a3,32
8000249c:	02da8263          	beq	s5,a3,800024c0 <_ftoa+0x440>
800024a0:	01812783          	lw	a5,24(sp)
800024a4:	18078063          	beqz	a5,80002624 <_ftoa+0x5a4>
800024a8:	020a8793          	add	a5,s5,32
800024ac:	02010713          	add	a4,sp,32
800024b0:	00e786b3          	add	a3,a5,a4
800024b4:	02d00613          	li	a2,45
800024b8:	fec68023          	sb	a2,-32(a3)
800024bc:	001a8a93          	add	s5,s5,1
800024c0:	000d8893          	mv	a7,s11
800024c4:	00090813          	mv	a6,s2
800024c8:	000a8793          	mv	a5,s5
800024cc:	000b8713          	mv	a4,s7
800024d0:	000d0693          	mv	a3,s10
800024d4:	000c8613          	mv	a2,s9
800024d8:	000c0593          	mv	a1,s8
800024dc:	00098513          	mv	a0,s3
800024e0:	89cff0ef          	jal	8000157c <_out_rev>
800024e4:	07c12083          	lw	ra,124(sp)
800024e8:	07812403          	lw	s0,120(sp)
800024ec:	07412483          	lw	s1,116(sp)
800024f0:	07012903          	lw	s2,112(sp)
800024f4:	06c12983          	lw	s3,108(sp)
800024f8:	06812a03          	lw	s4,104(sp)
800024fc:	06412a83          	lw	s5,100(sp)
80002500:	06012b03          	lw	s6,96(sp)
80002504:	05c12b83          	lw	s7,92(sp)
80002508:	05812c03          	lw	s8,88(sp)
8000250c:	05412c83          	lw	s9,84(sp)
80002510:	05012d03          	lw	s10,80(sp)
80002514:	04c12d83          	lw	s11,76(sp)
80002518:	08010113          	add	sp,sp,128
8000251c:	00008067          	ret
80002520:	003df693          	and	a3,s11,3
80002524:	00100613          	li	a2,1
80002528:	f8c69ce3          	bne	a3,a2,800024c0 <_ftoa+0x440>
8000252c:	f8090ae3          	beqz	s2,800024c0 <_ftoa+0x440>
80002530:	01812783          	lw	a5,24(sp)
80002534:	16079463          	bnez	a5,8000269c <_ftoa+0x61c>
80002538:	00cdf693          	and	a3,s11,12
8000253c:	16069063          	bnez	a3,8000269c <_ftoa+0x61c>
80002540:	0d2afe63          	bgeu	s5,s2,8000261c <_ftoa+0x59c>
80002544:	02000693          	li	a3,32
80002548:	03000613          	li	a2,48
8000254c:	02000593          	li	a1,32
80002550:	00da8c63          	beq	s5,a3,80002568 <_ftoa+0x4e8>
80002554:	001a8a93          	add	s5,s5,1
80002558:	015b86b3          	add	a3,s7,s5
8000255c:	fec68fa3          	sb	a2,-1(a3)
80002560:	f32a8ce3          	beq	s5,s2,80002498 <_ftoa+0x418>
80002564:	feba98e3          	bne	s5,a1,80002554 <_ftoa+0x4d4>
80002568:	02000a93          	li	s5,32
8000256c:	f55ff06f          	j	800024c0 <_ftoa+0x440>
80002570:	00005797          	auipc	a5,0x5
80002574:	61078793          	add	a5,a5,1552 # 80007b80 <__SDATA_BEGIN__+0x38>
80002578:	01012503          	lw	a0,16(sp)
8000257c:	01c12583          	lw	a1,28(sp)
80002580:	0007a603          	lw	a2,0(a5)
80002584:	0047a683          	lw	a3,4(a5)
80002588:	01112623          	sw	a7,12(sp)
8000258c:	00612023          	sw	t1,0(sp)
80002590:	194020ef          	jal	80004724 <__cmpdf2>
80002594:	00012303          	lw	t1,0(sp)
80002598:	00c12883          	lw	a7,12(sp)
8000259c:	d00540e3          	bltz	a0,8000229c <_ftoa+0x21c>
800025a0:	0e089663          	bnez	a7,8000268c <_ftoa+0x60c>
800025a4:	00188893          	add	a7,a7,1
800025a8:	cf5ff06f          	j	8000229c <_ftoa+0x21c>
800025ac:	00005717          	auipc	a4,0x5
800025b0:	61c70713          	add	a4,a4,1564 # 80007bc8 <__SDATA_BEGIN__+0x80>
800025b4:	00072783          	lw	a5,0(a4)
800025b8:	00472803          	lw	a6,4(a4)
800025bc:	00600313          	li	t1,6
800025c0:	00f12023          	sw	a5,0(sp)
800025c4:	01012223          	sw	a6,4(sp)
800025c8:	02010b93          	add	s7,sp,32
800025cc:	c11ff06f          	j	800021dc <_ftoa+0x15c>
800025d0:	02aa8663          	beq	s5,a0,800025fc <_ftoa+0x57c>
800025d4:	01530633          	add	a2,t1,s5
800025d8:	03000513          	li	a0,48
800025dc:	02000593          	li	a1,32
800025e0:	00031663          	bnez	t1,800025ec <_ftoa+0x56c>
800025e4:	06c0006f          	j	80002650 <_ftoa+0x5d0>
800025e8:	06ca8663          	beq	s5,a2,80002654 <_ftoa+0x5d4>
800025ec:	001a8a93          	add	s5,s5,1
800025f0:	015b86b3          	add	a3,s7,s5
800025f4:	fea68fa3          	sb	a0,-1(a3)
800025f8:	feba98e3          	bne	s5,a1,800025e8 <_ftoa+0x568>
800025fc:	02000a93          	li	s5,32
80002600:	e65ff06f          	j	80002464 <_ftoa+0x3e4>
80002604:	000a2783          	lw	a5,0(s4)
80002608:	004a2803          	lw	a6,4(s4)
8000260c:	02000a93          	li	s5,32
80002610:	00f12023          	sw	a5,0(sp)
80002614:	01012223          	sw	a6,4(sp)
80002618:	bc5ff06f          	j	800021dc <_ftoa+0x15c>
8000261c:	02000693          	li	a3,32
80002620:	eada80e3          	beq	s5,a3,800024c0 <_ftoa+0x440>
80002624:	004df693          	and	a3,s11,4
80002628:	04069463          	bnez	a3,80002670 <_ftoa+0x5f0>
8000262c:	008df693          	and	a3,s11,8
80002630:	e80688e3          	beqz	a3,800024c0 <_ftoa+0x440>
80002634:	020a8793          	add	a5,s5,32
80002638:	02010713          	add	a4,sp,32
8000263c:	00e786b3          	add	a3,a5,a4
80002640:	02000613          	li	a2,32
80002644:	fec68023          	sb	a2,-32(a3)
80002648:	001a8a93          	add	s5,s5,1
8000264c:	e75ff06f          	j	800024c0 <_ftoa+0x440>
80002650:	000a8613          	mv	a2,s5
80002654:	02060793          	add	a5,a2,32
80002658:	02010713          	add	a4,sp,32
8000265c:	00e786b3          	add	a3,a5,a4
80002660:	00160a93          	add	s5,a2,1
80002664:	02e00613          	li	a2,46
80002668:	fec68023          	sb	a2,-32(a3)
8000266c:	df9ff06f          	j	80002464 <_ftoa+0x3e4>
80002670:	020a8793          	add	a5,s5,32
80002674:	02010713          	add	a4,sp,32
80002678:	00e786b3          	add	a3,a5,a4
8000267c:	02b00613          	li	a2,43
80002680:	fec68023          	sb	a2,-32(a3)
80002684:	001a8a93          	add	s5,s5,1
80002688:	e39ff06f          	j	800024c0 <_ftoa+0x440>
8000268c:	0018f693          	and	a3,a7,1
80002690:	c00686e3          	beqz	a3,8000229c <_ftoa+0x21c>
80002694:	00188893          	add	a7,a7,1
80002698:	c05ff06f          	j	8000229c <_ftoa+0x21c>
8000269c:	fff90913          	add	s2,s2,-1
800026a0:	eb2ae2e3          	bltu	s5,s2,80002544 <_ftoa+0x4c4>
800026a4:	df5ff06f          	j	80002498 <_ftoa+0x418>
800026a8:	003b1713          	sll	a4,s6,0x3
800026ac:	00004797          	auipc	a5,0x4
800026b0:	29478793          	add	a5,a5,660 # 80006940 <pow10.0>
800026b4:	00e787b3          	add	a5,a5,a4
800026b8:	0047a803          	lw	a6,4(a5)
800026bc:	0007a783          	lw	a5,0(a5)
800026c0:	000b0313          	mv	t1,s6
800026c4:	01012223          	sw	a6,4(sp)
800026c8:	00f12023          	sw	a5,0(sp)
800026cc:	00000a93          	li	s5,0
800026d0:	02010b93          	add	s7,sp,32
800026d4:	b09ff06f          	j	800021dc <_ftoa+0x15c>
800026d8:	dc0900e3          	beqz	s2,80002498 <_ftoa+0x418>
800026dc:	e55ff06f          	j	80002530 <_ftoa+0x4b0>

800026e0 <_vsnprintf>:
800026e0:	f7010113          	add	sp,sp,-144
800026e4:	09212023          	sw	s2,128(sp)
800026e8:	07612823          	sw	s6,112(sp)
800026ec:	07712623          	sw	s7,108(sp)
800026f0:	07912223          	sw	s9,100(sp)
800026f4:	05b12e23          	sw	s11,92(sp)
800026f8:	08112623          	sw	ra,140(sp)
800026fc:	08812423          	sw	s0,136(sp)
80002700:	08912223          	sw	s1,132(sp)
80002704:	07312e23          	sw	s3,124(sp)
80002708:	07412c23          	sw	s4,120(sp)
8000270c:	07512a23          	sw	s5,116(sp)
80002710:	07812423          	sw	s8,104(sp)
80002714:	07a12023          	sw	s10,96(sp)
80002718:	00058b13          	mv	s6,a1
8000271c:	00060d93          	mv	s11,a2
80002720:	00068913          	mv	s2,a3
80002724:	00070c93          	mv	s9,a4
80002728:	fffffb97          	auipc	s7,0xfffff
8000272c:	e50b8b93          	add	s7,s7,-432 # 80001578 <_out_null>
80002730:	00058463          	beqz	a1,80002738 <_vsnprintf+0x58>
80002734:	00050b93          	mv	s7,a0
80002738:	00094503          	lbu	a0,0(s2)
8000273c:	00000413          	li	s0,0
80002740:	78050463          	beqz	a0,80002ec8 <_vsnprintf+0x7e8>
80002744:	000097b7          	lui	a5,0x9
80002748:	04178793          	add	a5,a5,65 # 9041 <__tbss_size+0x9021>
8000274c:	02500a93          	li	s5,37
80002750:	01000a13          	li	s4,16
80002754:	00004997          	auipc	s3,0x4
80002758:	04c98993          	add	s3,s3,76 # 800067a0 <__fe_raise_inexact+0x154>
8000275c:	00f12a23          	sw	a5,20(sp)
80002760:	0200006f          	j	80002780 <_vsnprintf+0xa0>
80002764:	00040613          	mv	a2,s0
80002768:	000d8693          	mv	a3,s11
8000276c:	000b0593          	mv	a1,s6
80002770:	00140413          	add	s0,s0,1
80002774:	000b80e7          	jalr	s7
80002778:	00094503          	lbu	a0,0(s2)
8000277c:	1c050a63          	beqz	a0,80002950 <_vsnprintf+0x270>
80002780:	00190913          	add	s2,s2,1
80002784:	ff5510e3          	bne	a0,s5,80002764 <_vsnprintf+0x84>
80002788:	00000693          	li	a3,0
8000278c:	00094503          	lbu	a0,0(s2)
80002790:	00190713          	add	a4,s2,1
80002794:	fe050793          	add	a5,a0,-32
80002798:	0ff7f793          	zext.b	a5,a5
8000279c:	00fa6c63          	bltu	s4,a5,800027b4 <_vsnprintf+0xd4>
800027a0:	00279793          	sll	a5,a5,0x2
800027a4:	013787b3          	add	a5,a5,s3
800027a8:	0007a783          	lw	a5,0(a5)
800027ac:	013787b3          	add	a5,a5,s3
800027b0:	00078067          	jr	a5
800027b4:	fd050793          	add	a5,a0,-48
800027b8:	0ff7f793          	zext.b	a5,a5
800027bc:	00900613          	li	a2,9
800027c0:	1ef67863          	bgeu	a2,a5,800029b0 <_vsnprintf+0x2d0>
800027c4:	02a00793          	li	a5,42
800027c8:	00000893          	li	a7,0
800027cc:	26f50263          	beq	a0,a5,80002a30 <_vsnprintf+0x350>
800027d0:	02e00793          	li	a5,46
800027d4:	00000813          	li	a6,0
800027d8:	22f50463          	beq	a0,a5,80002a00 <_vsnprintf+0x320>
800027dc:	f9850793          	add	a5,a0,-104
800027e0:	0ff7f793          	zext.b	a5,a5
800027e4:	01200613          	li	a2,18
800027e8:	06f66463          	bltu	a2,a5,80002850 <_vsnprintf+0x170>
800027ec:	00004617          	auipc	a2,0x4
800027f0:	ff860613          	add	a2,a2,-8 # 800067e4 <__fe_raise_inexact+0x198>
800027f4:	00279793          	sll	a5,a5,0x2
800027f8:	00c787b3          	add	a5,a5,a2
800027fc:	0007a783          	lw	a5,0(a5)
80002800:	00c787b3          	add	a5,a5,a2
80002804:	00078067          	jr	a5
80002808:	0016e693          	or	a3,a3,1
8000280c:	00070913          	mv	s2,a4
80002810:	f7dff06f          	j	8000278c <_vsnprintf+0xac>
80002814:	0026e693          	or	a3,a3,2
80002818:	00070913          	mv	s2,a4
8000281c:	f71ff06f          	j	8000278c <_vsnprintf+0xac>
80002820:	0046e693          	or	a3,a3,4
80002824:	00070913          	mv	s2,a4
80002828:	f65ff06f          	j	8000278c <_vsnprintf+0xac>
8000282c:	0106e693          	or	a3,a3,16
80002830:	00070913          	mv	s2,a4
80002834:	f59ff06f          	j	8000278c <_vsnprintf+0xac>
80002838:	0086e693          	or	a3,a3,8
8000283c:	00070913          	mv	s2,a4
80002840:	f4dff06f          	j	8000278c <_vsnprintf+0xac>
80002844:	00194503          	lbu	a0,1(s2)
80002848:	1006e693          	or	a3,a3,256
8000284c:	00170713          	add	a4,a4,1
80002850:	06700793          	li	a5,103
80002854:	00070913          	mv	s2,a4
80002858:	02a7ec63          	bltu	a5,a0,80002890 <_vsnprintf+0x1b0>
8000285c:	02400793          	li	a5,36
80002860:	f0a7f2e3          	bgeu	a5,a0,80002764 <_vsnprintf+0x84>
80002864:	fdb50793          	add	a5,a0,-37
80002868:	0ff7f793          	zext.b	a5,a5
8000286c:	04200713          	li	a4,66
80002870:	eef76ae3          	bltu	a4,a5,80002764 <_vsnprintf+0x84>
80002874:	00004717          	auipc	a4,0x4
80002878:	fbc70713          	add	a4,a4,-68 # 80006830 <__fe_raise_inexact+0x1e4>
8000287c:	00279793          	sll	a5,a5,0x2
80002880:	00e787b3          	add	a5,a5,a4
80002884:	0007a783          	lw	a5,0(a5)
80002888:	00e787b3          	add	a5,a5,a4
8000288c:	00078067          	jr	a5
80002890:	f9750793          	add	a5,a0,-105
80002894:	0ff7f793          	zext.b	a5,a5
80002898:	00f00713          	li	a4,15
8000289c:	ecf764e3          	bltu	a4,a5,80002764 <_vsnprintf+0x84>
800028a0:	01412703          	lw	a4,20(sp)
800028a4:	00100493          	li	s1,1
800028a8:	00f494b3          	sll	s1,s1,a5
800028ac:	00e4f4b3          	and	s1,s1,a4
800028b0:	58049663          	bnez	s1,80002e3c <_vsnprintf+0x75c>
800028b4:	00a00713          	li	a4,10
800028b8:	2ee78863          	beq	a5,a4,80002ba8 <_vsnprintf+0x4c8>
800028bc:	00700713          	li	a4,7
800028c0:	eae792e3          	bne	a5,a4,80002764 <_vsnprintf+0x84>
800028c4:	000ca783          	lw	a5,0(s9)
800028c8:	0216e593          	or	a1,a3,33
800028cc:	004c8c93          	add	s9,s9,4
800028d0:	3e078263          	beqz	a5,80002cb4 <_vsnprintf+0x5d4>
800028d4:	03010713          	add	a4,sp,48
800028d8:	00900893          	li	a7,9
800028dc:	00f00513          	li	a0,15
800028e0:	02000313          	li	t1,32
800028e4:	00c0006f          	j	800028f0 <_vsnprintf+0x210>
800028e8:	02648663          	beq	s1,t1,80002914 <_vsnprintf+0x234>
800028ec:	00068793          	mv	a5,a3
800028f0:	00f7fe13          	and	t3,a5,15
800028f4:	037e0613          	add	a2,t3,55
800028f8:	01c8e463          	bltu	a7,t3,80002900 <_vsnprintf+0x220>
800028fc:	030e0613          	add	a2,t3,48
80002900:	00148493          	add	s1,s1,1
80002904:	009706b3          	add	a3,a4,s1
80002908:	fec68fa3          	sb	a2,-1(a3)
8000290c:	0047d693          	srl	a3,a5,0x4
80002910:	fcf56ce3          	bltu	a0,a5,800028e8 <_vsnprintf+0x208>
80002914:	00800793          	li	a5,8
80002918:	00f12223          	sw	a5,4(sp)
8000291c:	01012023          	sw	a6,0(sp)
80002920:	00040613          	mv	a2,s0
80002924:	00b12423          	sw	a1,8(sp)
80002928:	01000893          	li	a7,16
8000292c:	00000813          	li	a6,0
80002930:	00048793          	mv	a5,s1
80002934:	000d8693          	mv	a3,s11
80002938:	000b0593          	mv	a1,s6
8000293c:	000b8513          	mv	a0,s7
80002940:	d69fe0ef          	jal	800016a8 <_ntoa_format>
80002944:	00050413          	mv	s0,a0
80002948:	00094503          	lbu	a0,0(s2)
8000294c:	e2051ae3          	bnez	a0,80002780 <_vsnprintf+0xa0>
80002950:	00040493          	mv	s1,s0
80002954:	01b46463          	bltu	s0,s11,8000295c <_vsnprintf+0x27c>
80002958:	fffd8413          	add	s0,s11,-1
8000295c:	000d8693          	mv	a3,s11
80002960:	00040613          	mv	a2,s0
80002964:	000b0593          	mv	a1,s6
80002968:	00000513          	li	a0,0
8000296c:	000b80e7          	jalr	s7
80002970:	08c12083          	lw	ra,140(sp)
80002974:	08812403          	lw	s0,136(sp)
80002978:	08012903          	lw	s2,128(sp)
8000297c:	07c12983          	lw	s3,124(sp)
80002980:	07812a03          	lw	s4,120(sp)
80002984:	07412a83          	lw	s5,116(sp)
80002988:	07012b03          	lw	s6,112(sp)
8000298c:	06c12b83          	lw	s7,108(sp)
80002990:	06812c03          	lw	s8,104(sp)
80002994:	06412c83          	lw	s9,100(sp)
80002998:	06012d03          	lw	s10,96(sp)
8000299c:	05c12d83          	lw	s11,92(sp)
800029a0:	00048513          	mv	a0,s1
800029a4:	08412483          	lw	s1,132(sp)
800029a8:	09010113          	add	sp,sp,144
800029ac:	00008067          	ret
800029b0:	00000893          	li	a7,0
800029b4:	00900613          	li	a2,9
800029b8:	00088593          	mv	a1,a7
800029bc:	0080006f          	j	800029c4 <_vsnprintf+0x2e4>
800029c0:	00170713          	add	a4,a4,1
800029c4:	00259893          	sll	a7,a1,0x2
800029c8:	00b888b3          	add	a7,a7,a1
800029cc:	00189893          	sll	a7,a7,0x1
800029d0:	00a888b3          	add	a7,a7,a0
800029d4:	00074503          	lbu	a0,0(a4)
800029d8:	00070913          	mv	s2,a4
800029dc:	fd088593          	add	a1,a7,-48
800029e0:	fd050793          	add	a5,a0,-48
800029e4:	0ff7f793          	zext.b	a5,a5
800029e8:	fcf67ce3          	bgeu	a2,a5,800029c0 <_vsnprintf+0x2e0>
800029ec:	02e00793          	li	a5,46
800029f0:	00058893          	mv	a7,a1
800029f4:	00170713          	add	a4,a4,1
800029f8:	00000813          	li	a6,0
800029fc:	def510e3          	bne	a0,a5,800027dc <_vsnprintf+0xfc>
80002a00:	00194503          	lbu	a0,1(s2)
80002a04:	00900593          	li	a1,9
80002a08:	00070613          	mv	a2,a4
80002a0c:	fd050793          	add	a5,a0,-48
80002a10:	0ff7f793          	zext.b	a5,a5
80002a14:	4006e693          	or	a3,a3,1024
80002a18:	22f5fa63          	bgeu	a1,a5,80002c4c <_vsnprintf+0x56c>
80002a1c:	02a00793          	li	a5,42
80002a20:	26f50263          	beq	a0,a5,80002c84 <_vsnprintf+0x5a4>
80002a24:	00070913          	mv	s2,a4
80002a28:	00170713          	add	a4,a4,1
80002a2c:	db1ff06f          	j	800027dc <_vsnprintf+0xfc>
80002a30:	000ca883          	lw	a7,0(s9)
80002a34:	004c8c93          	add	s9,s9,4
80002a38:	0008ca63          	bltz	a7,80002a4c <_vsnprintf+0x36c>
80002a3c:	00194503          	lbu	a0,1(s2)
80002a40:	00070913          	mv	s2,a4
80002a44:	00170713          	add	a4,a4,1
80002a48:	d89ff06f          	j	800027d0 <_vsnprintf+0xf0>
80002a4c:	00194503          	lbu	a0,1(s2)
80002a50:	0026e693          	or	a3,a3,2
80002a54:	00070913          	mv	s2,a4
80002a58:	411008b3          	neg	a7,a7
80002a5c:	00170713          	add	a4,a4,1
80002a60:	d71ff06f          	j	800027d0 <_vsnprintf+0xf0>
80002a64:	06700793          	li	a5,103
80002a68:	32f50a63          	beq	a0,a5,80002d9c <_vsnprintf+0x6bc>
80002a6c:	04700793          	li	a5,71
80002a70:	42f50a63          	beq	a0,a5,80002ea4 <_vsnprintf+0x7c4>
80002a74:	04500793          	li	a5,69
80002a78:	42f50c63          	beq	a0,a5,80002eb0 <_vsnprintf+0x7d0>
80002a7c:	007c8c93          	add	s9,s9,7
80002a80:	ff8cfc93          	and	s9,s9,-8
80002a84:	000ca703          	lw	a4,0(s9)
80002a88:	004ca783          	lw	a5,4(s9)
80002a8c:	00040613          	mv	a2,s0
80002a90:	00d12023          	sw	a3,0(sp)
80002a94:	000b0593          	mv	a1,s6
80002a98:	000d8693          	mv	a3,s11
80002a9c:	000b8513          	mv	a0,s7
80002aa0:	f49fe0ef          	jal	800019e8 <_etoa>
80002aa4:	008c8c93          	add	s9,s9,8
80002aa8:	00050413          	mv	s0,a0
80002aac:	ccdff06f          	j	80002778 <_vsnprintf+0x98>
80002ab0:	00194503          	lbu	a0,1(s2)
80002ab4:	06c00793          	li	a5,108
80002ab8:	d8f518e3          	bne	a0,a5,80002848 <_vsnprintf+0x168>
80002abc:	00294503          	lbu	a0,2(s2)
80002ac0:	3006e693          	or	a3,a3,768
80002ac4:	00390713          	add	a4,s2,3
80002ac8:	d89ff06f          	j	80002850 <_vsnprintf+0x170>
80002acc:	00194503          	lbu	a0,1(s2)
80002ad0:	2006e693          	or	a3,a3,512
80002ad4:	00170713          	add	a4,a4,1
80002ad8:	d79ff06f          	j	80002850 <_vsnprintf+0x170>
80002adc:	00194503          	lbu	a0,1(s2)
80002ae0:	06800793          	li	a5,104
80002ae4:	3cf50a63          	beq	a0,a5,80002eb8 <_vsnprintf+0x7d8>
80002ae8:	0806e693          	or	a3,a3,128
80002aec:	00170713          	add	a4,a4,1
80002af0:	d61ff06f          	j	80002850 <_vsnprintf+0x170>
80002af4:	04600793          	li	a5,70
80002af8:	2af50a63          	beq	a0,a5,80002dac <_vsnprintf+0x6cc>
80002afc:	007c8c93          	add	s9,s9,7
80002b00:	ff8cfc93          	and	s9,s9,-8
80002b04:	000ca703          	lw	a4,0(s9)
80002b08:	004ca783          	lw	a5,4(s9)
80002b0c:	00040613          	mv	a2,s0
80002b10:	00d12023          	sw	a3,0(sp)
80002b14:	000b0593          	mv	a1,s6
80002b18:	000d8693          	mv	a3,s11
80002b1c:	000b8513          	mv	a0,s7
80002b20:	d60ff0ef          	jal	80002080 <_ftoa>
80002b24:	008c8c93          	add	s9,s9,8
80002b28:	00050413          	mv	s0,a0
80002b2c:	c4dff06f          	j	80002778 <_vsnprintf+0x98>
80002b30:	00040613          	mv	a2,s0
80002b34:	000d8693          	mv	a3,s11
80002b38:	000b0593          	mv	a1,s6
80002b3c:	02500513          	li	a0,37
80002b40:	00140413          	add	s0,s0,1
80002b44:	000b80e7          	jalr	s7
80002b48:	c31ff06f          	j	80002778 <_vsnprintf+0x98>
80002b4c:	0026f693          	and	a3,a3,2
80002b50:	004c8c13          	add	s8,s9,4
80002b54:	00140493          	add	s1,s0,1
80002b58:	3a068663          	beqz	a3,80002f04 <_vsnprintf+0x824>
80002b5c:	000cc503          	lbu	a0,0(s9)
80002b60:	01112c23          	sw	a7,24(sp)
80002b64:	00040613          	mv	a2,s0
80002b68:	000d8693          	mv	a3,s11
80002b6c:	000b0593          	mv	a1,s6
80002b70:	000b80e7          	jalr	s7
80002b74:	01812883          	lw	a7,24(sp)
80002b78:	00100793          	li	a5,1
80002b7c:	01140433          	add	s0,s0,a7
80002b80:	5917f463          	bgeu	a5,a7,80003108 <_vsnprintf+0xa28>
80002b84:	00048613          	mv	a2,s1
80002b88:	000d8693          	mv	a3,s11
80002b8c:	00148493          	add	s1,s1,1
80002b90:	000b0593          	mv	a1,s6
80002b94:	02000513          	li	a0,32
80002b98:	000b80e7          	jalr	s7
80002b9c:	fe8494e3          	bne	s1,s0,80002b84 <_vsnprintf+0x4a4>
80002ba0:	000c0c93          	mv	s9,s8
80002ba4:	bd5ff06f          	j	80002778 <_vsnprintf+0x98>
80002ba8:	000cad03          	lw	s10,0(s9)
80002bac:	004c8793          	add	a5,s9,4
80002bb0:	00f12c23          	sw	a5,24(sp)
80002bb4:	000d4603          	lbu	a2,0(s10)
80002bb8:	00060513          	mv	a0,a2
80002bbc:	0e081663          	bnez	a6,80002ca8 <_vsnprintf+0x5c8>
80002bc0:	ffe00793          	li	a5,-2
80002bc4:	02060463          	beqz	a2,80002bec <_vsnprintf+0x50c>
80002bc8:	00178793          	add	a5,a5,1
80002bcc:	00fd0733          	add	a4,s10,a5
80002bd0:	000d0493          	mv	s1,s10
80002bd4:	0080006f          	j	80002bdc <_vsnprintf+0x4fc>
80002bd8:	00e48863          	beq	s1,a4,80002be8 <_vsnprintf+0x508>
80002bdc:	0014c783          	lbu	a5,1(s1)
80002be0:	00148493          	add	s1,s1,1
80002be4:	fe079ae3          	bnez	a5,80002bd8 <_vsnprintf+0x4f8>
80002be8:	41a484b3          	sub	s1,s1,s10
80002bec:	4006fc13          	and	s8,a3,1024
80002bf0:	000c0663          	beqz	s8,80002bfc <_vsnprintf+0x51c>
80002bf4:	00987463          	bgeu	a6,s1,80002bfc <_vsnprintf+0x51c>
80002bf8:	00080493          	mv	s1,a6
80002bfc:	0026f693          	and	a3,a3,2
80002c00:	36068c63          	beqz	a3,80002f78 <_vsnprintf+0x898>
80002c04:	20060263          	beqz	a2,80002e08 <_vsnprintf+0x728>
80002c08:	1a0c0663          	beqz	s8,80002db4 <_vsnprintf+0x6d4>
80002c0c:	00880cb3          	add	s9,a6,s0
80002c10:	00040613          	mv	a2,s0
80002c14:	00068c13          	mv	s8,a3
80002c18:	00912e23          	sw	s1,28(sp)
80002c1c:	03112023          	sw	a7,32(sp)
80002c20:	2acc8a63          	beq	s9,a2,80002ed4 <_vsnprintf+0x7f4>
80002c24:	000d8693          	mv	a3,s11
80002c28:	000b0593          	mv	a1,s6
80002c2c:	00160493          	add	s1,a2,1
80002c30:	000b80e7          	jalr	s7
80002c34:	408487b3          	sub	a5,s1,s0
80002c38:	00fd07b3          	add	a5,s10,a5
80002c3c:	0007c503          	lbu	a0,0(a5)
80002c40:	2a050663          	beqz	a0,80002eec <_vsnprintf+0x80c>
80002c44:	00048613          	mv	a2,s1
80002c48:	fd9ff06f          	j	80002c20 <_vsnprintf+0x540>
80002c4c:	00900713          	li	a4,9
80002c50:	00281793          	sll	a5,a6,0x2
80002c54:	010787b3          	add	a5,a5,a6
80002c58:	00160613          	add	a2,a2,1
80002c5c:	00179793          	sll	a5,a5,0x1
80002c60:	00a787b3          	add	a5,a5,a0
80002c64:	00064503          	lbu	a0,0(a2)
80002c68:	fd078813          	add	a6,a5,-48
80002c6c:	fd050793          	add	a5,a0,-48
80002c70:	0ff7f793          	zext.b	a5,a5
80002c74:	fcf77ee3          	bgeu	a4,a5,80002c50 <_vsnprintf+0x570>
80002c78:	00060913          	mv	s2,a2
80002c7c:	00160713          	add	a4,a2,1
80002c80:	b5dff06f          	j	800027dc <_vsnprintf+0xfc>
80002c84:	000ca803          	lw	a6,0(s9)
80002c88:	00294503          	lbu	a0,2(s2)
80002c8c:	00290913          	add	s2,s2,2
80002c90:	fff84793          	not	a5,a6
80002c94:	41f7d793          	sra	a5,a5,0x1f
80002c98:	00f87833          	and	a6,a6,a5
80002c9c:	004c8c93          	add	s9,s9,4
80002ca0:	00190713          	add	a4,s2,1
80002ca4:	b39ff06f          	j	800027dc <_vsnprintf+0xfc>
80002ca8:	f40602e3          	beqz	a2,80002bec <_vsnprintf+0x50c>
80002cac:	fff80793          	add	a5,a6,-1
80002cb0:	f19ff06f          	j	80002bc8 <_vsnprintf+0x4e8>
80002cb4:	fef6f593          	and	a1,a3,-17
80002cb8:	4006f793          	and	a5,a3,1024
80002cbc:	0215e593          	or	a1,a1,33
80002cc0:	03010713          	add	a4,sp,48
80002cc4:	c40798e3          	bnez	a5,80002914 <_vsnprintf+0x234>
80002cc8:	c0dff06f          	j	800028d4 <_vsnprintf+0x1f4>
80002ccc:	06200793          	li	a5,98
80002cd0:	44f50263          	beq	a0,a5,80003114 <_vsnprintf+0xa34>
80002cd4:	05800793          	li	a5,88
80002cd8:	44f50863          	beq	a0,a5,80003128 <_vsnprintf+0xa48>
80002cdc:	4006f513          	and	a0,a3,1024
80002ce0:	fee6fe13          	and	t3,a3,-18
80002ce4:	3e050663          	beqz	a0,800030d0 <_vsnprintf+0x9f0>
80002ce8:	200e7693          	and	a3,t3,512
80002cec:	2e069263          	bnez	a3,80002fd0 <_vsnprintf+0x8f0>
80002cf0:	100e7793          	and	a5,t3,256
80002cf4:	004c8493          	add	s1,s9,4
80002cf8:	52079663          	bnez	a5,80003224 <_vsnprintf+0xb44>
80002cfc:	040e7713          	and	a4,t3,64
80002d00:	3c071263          	bnez	a4,800030c4 <_vsnprintf+0x9e4>
80002d04:	080e7713          	and	a4,t3,128
80002d08:	72070a63          	beqz	a4,8000343c <_vsnprintf+0xd5c>
80002d0c:	000c9703          	lh	a4,0(s9)
80002d10:	40f75613          	sra	a2,a4,0xf
80002d14:	00c746b3          	xor	a3,a4,a2
80002d18:	40c686b3          	sub	a3,a3,a2
80002d1c:	01069693          	sll	a3,a3,0x10
80002d20:	0106d693          	srl	a3,a3,0x10
80002d24:	01f75593          	srl	a1,a4,0x1f
80002d28:	4e070863          	beqz	a4,80003218 <_vsnprintf+0xb38>
80002d2c:	00068513          	mv	a0,a3
80002d30:	03010713          	add	a4,sp,48
80002d34:	00a00613          	li	a2,10
80002d38:	00900e93          	li	t4,9
80002d3c:	02000f13          	li	t5,32
80002d40:	0080006f          	j	80002d48 <_vsnprintf+0x668>
80002d44:	03e78263          	beq	a5,t5,80002d68 <_vsnprintf+0x688>
80002d48:	02c576b3          	remu	a3,a0,a2
80002d4c:	00178793          	add	a5,a5,1
80002d50:	00f70fb3          	add	t6,a4,a5
80002d54:	00050313          	mv	t1,a0
80002d58:	03068693          	add	a3,a3,48
80002d5c:	fedf8fa3          	sb	a3,-1(t6)
80002d60:	02c55533          	divu	a0,a0,a2
80002d64:	fe6ee0e3          	bltu	t4,t1,80002d44 <_vsnprintf+0x664>
80002d68:	01112223          	sw	a7,4(sp)
80002d6c:	01012023          	sw	a6,0(sp)
80002d70:	00040613          	mv	a2,s0
80002d74:	01c12423          	sw	t3,8(sp)
80002d78:	00a00893          	li	a7,10
80002d7c:	00058813          	mv	a6,a1
80002d80:	000d8693          	mv	a3,s11
80002d84:	000b0593          	mv	a1,s6
80002d88:	000b8513          	mv	a0,s7
80002d8c:	91dfe0ef          	jal	800016a8 <_ntoa_format>
80002d90:	00050413          	mv	s0,a0
80002d94:	00048c93          	mv	s9,s1
80002d98:	9e1ff06f          	j	80002778 <_vsnprintf+0x98>
80002d9c:	000017b7          	lui	a5,0x1
80002da0:	80078793          	add	a5,a5,-2048 # 800 <__tbss_size+0x7e0>
80002da4:	00f6e6b3          	or	a3,a3,a5
80002da8:	cd5ff06f          	j	80002a7c <_vsnprintf+0x39c>
80002dac:	0206e693          	or	a3,a3,32
80002db0:	d4dff06f          	j	80002afc <_vsnprintf+0x41c>
80002db4:	00912e23          	sw	s1,28(sp)
80002db8:	00090c13          	mv	s8,s2
80002dbc:	00068c93          	mv	s9,a3
80002dc0:	00040493          	mv	s1,s0
80002dc4:	00088913          	mv	s2,a7
80002dc8:	00048613          	mv	a2,s1
80002dcc:	000d8693          	mv	a3,s11
80002dd0:	000b0593          	mv	a1,s6
80002dd4:	000b80e7          	jalr	s7
80002dd8:	00148493          	add	s1,s1,1
80002ddc:	40848733          	sub	a4,s1,s0
80002de0:	00ed0733          	add	a4,s10,a4
80002de4:	00074503          	lbu	a0,0(a4)
80002de8:	fe0510e3          	bnez	a0,80002dc8 <_vsnprintf+0x6e8>
80002dec:	00090893          	mv	a7,s2
80002df0:	000c0913          	mv	s2,s8
80002df4:	00048c13          	mv	s8,s1
80002df8:	01c12483          	lw	s1,28(sp)
80002dfc:	000c8693          	mv	a3,s9
80002e00:	000c0413          	mv	s0,s8
80002e04:	02068863          	beqz	a3,80002e34 <_vsnprintf+0x754>
80002e08:	00040c13          	mv	s8,s0
80002e0c:	0314f463          	bgeu	s1,a7,80002e34 <_vsnprintf+0x754>
80002e10:	008888b3          	add	a7,a7,s0
80002e14:	40988433          	sub	s0,a7,s1
80002e18:	000c0613          	mv	a2,s8
80002e1c:	000d8693          	mv	a3,s11
80002e20:	001c0c13          	add	s8,s8,1
80002e24:	000b0593          	mv	a1,s6
80002e28:	02000513          	li	a0,32
80002e2c:	000b80e7          	jalr	s7
80002e30:	fe8c14e3          	bne	s8,s0,80002e18 <_vsnprintf+0x738>
80002e34:	01812c83          	lw	s9,24(sp)
80002e38:	941ff06f          	j	80002778 <_vsnprintf+0x98>
80002e3c:	07800793          	li	a5,120
80002e40:	34f51663          	bne	a0,a5,8000318c <_vsnprintf+0xaac>
80002e44:	4006f613          	and	a2,a3,1024
80002e48:	62060463          	beqz	a2,80003470 <_vsnprintf+0xd90>
80002e4c:	ff26fe93          	and	t4,a3,-14
80002e50:	01000d13          	li	s10,16
80002e54:	200ef593          	and	a1,t4,512
80002e58:	2e059463          	bnez	a1,80003140 <_vsnprintf+0xa60>
80002e5c:	100ef793          	and	a5,t4,256
80002e60:	004c8493          	add	s1,s9,4
80002e64:	4e079e63          	bnez	a5,80003360 <_vsnprintf+0xc80>
80002e68:	040ef713          	and	a4,t4,64
80002e6c:	4e070263          	beqz	a4,80003350 <_vsnprintf+0xc70>
80002e70:	000cc583          	lbu	a1,0(s9)
80002e74:	34059063          	bnez	a1,800031b4 <_vsnprintf+0xad4>
80002e78:	fefefe93          	and	t4,t4,-17
80002e7c:	32060c63          	beqz	a2,800031b4 <_vsnprintf+0xad4>
80002e80:	00000793          	li	a5,0
80002e84:	03010713          	add	a4,sp,48
80002e88:	01112223          	sw	a7,4(sp)
80002e8c:	01012023          	sw	a6,0(sp)
80002e90:	00040613          	mv	a2,s0
80002e94:	01d12423          	sw	t4,8(sp)
80002e98:	000d0893          	mv	a7,s10
80002e9c:	00000813          	li	a6,0
80002ea0:	ee1ff06f          	j	80002d80 <_vsnprintf+0x6a0>
80002ea4:	000017b7          	lui	a5,0x1
80002ea8:	80078793          	add	a5,a5,-2048 # 800 <__tbss_size+0x7e0>
80002eac:	00f6e6b3          	or	a3,a3,a5
80002eb0:	0206e693          	or	a3,a3,32
80002eb4:	bc9ff06f          	j	80002a7c <_vsnprintf+0x39c>
80002eb8:	00294503          	lbu	a0,2(s2)
80002ebc:	0c06e693          	or	a3,a3,192
80002ec0:	00390713          	add	a4,s2,3
80002ec4:	98dff06f          	j	80002850 <_vsnprintf+0x170>
80002ec8:	00000493          	li	s1,0
80002ecc:	a9b468e3          	bltu	s0,s11,8000295c <_vsnprintf+0x27c>
80002ed0:	a89ff06f          	j	80002958 <_vsnprintf+0x278>
80002ed4:	000c0693          	mv	a3,s8
80002ed8:	01c12483          	lw	s1,28(sp)
80002edc:	02012883          	lw	a7,32(sp)
80002ee0:	000c8413          	mv	s0,s9
80002ee4:	f40688e3          	beqz	a3,80002e34 <_vsnprintf+0x754>
80002ee8:	f21ff06f          	j	80002e08 <_vsnprintf+0x728>
80002eec:	000c0693          	mv	a3,s8
80002ef0:	00048c13          	mv	s8,s1
80002ef4:	02012883          	lw	a7,32(sp)
80002ef8:	01c12483          	lw	s1,28(sp)
80002efc:	000c0413          	mv	s0,s8
80002f00:	f05ff06f          	j	80002e04 <_vsnprintf+0x724>
80002f04:	00100793          	li	a5,1
80002f08:	1f17f663          	bgeu	a5,a7,800030f4 <_vsnprintf+0xa14>
80002f0c:	000c8793          	mv	a5,s9
80002f10:	fff40493          	add	s1,s0,-1
80002f14:	00090c93          	mv	s9,s2
80002f18:	011484b3          	add	s1,s1,a7
80002f1c:	01112c23          	sw	a7,24(sp)
80002f20:	00040913          	mv	s2,s0
80002f24:	00078d13          	mv	s10,a5
80002f28:	00040613          	mv	a2,s0
80002f2c:	000d8693          	mv	a3,s11
80002f30:	00140413          	add	s0,s0,1
80002f34:	000b0593          	mv	a1,s6
80002f38:	02000513          	li	a0,32
80002f3c:	000b80e7          	jalr	s7
80002f40:	fe9414e3          	bne	s0,s1,80002f28 <_vsnprintf+0x848>
80002f44:	000d0793          	mv	a5,s10
80002f48:	01812883          	lw	a7,24(sp)
80002f4c:	0007c503          	lbu	a0,0(a5)
80002f50:	00040d13          	mv	s10,s0
80002f54:	000d8693          	mv	a3,s11
80002f58:	00090413          	mv	s0,s2
80002f5c:	000d0613          	mv	a2,s10
80002f60:	000b0593          	mv	a1,s6
80002f64:	000c8913          	mv	s2,s9
80002f68:	01140433          	add	s0,s0,a7
80002f6c:	000c0c93          	mv	s9,s8
80002f70:	000b80e7          	jalr	s7
80002f74:	805ff06f          	j	80002778 <_vsnprintf+0x98>
80002f78:	4f14f663          	bgeu	s1,a7,80003464 <_vsnprintf+0xd84>
80002f7c:	008887b3          	add	a5,a7,s0
80002f80:	409784b3          	sub	s1,a5,s1
80002f84:	00068c93          	mv	s9,a3
80002f88:	01112e23          	sw	a7,28(sp)
80002f8c:	03012023          	sw	a6,32(sp)
80002f90:	00040613          	mv	a2,s0
80002f94:	000d8693          	mv	a3,s11
80002f98:	00140413          	add	s0,s0,1
80002f9c:	000b0593          	mv	a1,s6
80002fa0:	02000513          	li	a0,32
80002fa4:	000b80e7          	jalr	s7
80002fa8:	fe9414e3          	bne	s0,s1,80002f90 <_vsnprintf+0x8b0>
80002fac:	01c12883          	lw	a7,28(sp)
80002fb0:	02012803          	lw	a6,32(sp)
80002fb4:	000d4603          	lbu	a2,0(s10)
80002fb8:	000c8693          	mv	a3,s9
80002fbc:	00188493          	add	s1,a7,1
80002fc0:	00060513          	mv	a0,a2
80002fc4:	c40612e3          	bnez	a2,80002c08 <_vsnprintf+0x528>
80002fc8:	01812c83          	lw	s9,24(sp)
80002fcc:	facff06f          	j	80002778 <_vsnprintf+0x98>
80002fd0:	007c8c93          	add	s9,s9,7
80002fd4:	ff8cfc93          	and	s9,s9,-8
80002fd8:	004ca583          	lw	a1,4(s9)
80002fdc:	000ca603          	lw	a2,0(s9)
80002fe0:	008c8c93          	add	s9,s9,8
80002fe4:	01f5df93          	srl	t6,a1,0x1f
80002fe8:	00b667b3          	or	a5,a2,a1
80002fec:	0e078663          	beqz	a5,800030d8 <_vsnprintf+0x9f8>
80002ff0:	41f5d793          	sra	a5,a1,0x1f
80002ff4:	00c7c633          	xor	a2,a5,a2
80002ff8:	40f60733          	sub	a4,a2,a5
80002ffc:	00b7c5b3          	xor	a1,a5,a1
80003000:	00e636b3          	sltu	a3,a2,a4
80003004:	40f587b3          	sub	a5,a1,a5
80003008:	00070613          	mv	a2,a4
8000300c:	40d785b3          	sub	a1,a5,a3
80003010:	ccccdeb7          	lui	t4,0xccccd
80003014:	ccde8513          	add	a0,t4,-819 # cccccccd <__global_pointer+0x4ccc49a1>
80003018:	00000793          	li	a5,0
8000301c:	03010713          	add	a4,sp,48
80003020:	00500f13          	li	t5,5
80003024:	ccce8e93          	add	t4,t4,-820
80003028:	02000393          	li	t2,32
8000302c:	00058493          	mv	s1,a1
80003030:	009606b3          	add	a3,a2,s1
80003034:	00c6b5b3          	sltu	a1,a3,a2
80003038:	00b686b3          	add	a3,a3,a1
8000303c:	03e6f6b3          	remu	a3,a3,t5
80003040:	00048313          	mv	t1,s1
80003044:	00178793          	add	a5,a5,1
80003048:	00060093          	mv	ra,a2
8000304c:	00f702b3          	add	t0,a4,a5
80003050:	40d606b3          	sub	a3,a2,a3
80003054:	00d635b3          	sltu	a1,a2,a3
80003058:	40b485b3          	sub	a1,s1,a1
8000305c:	03d68c33          	mul	s8,a3,t4
80003060:	02a585b3          	mul	a1,a1,a0
80003064:	02a6b4b3          	mulhu	s1,a3,a0
80003068:	018585b3          	add	a1,a1,s8
8000306c:	02a686b3          	mul	a3,a3,a0
80003070:	009585b3          	add	a1,a1,s1
80003074:	01f59c13          	sll	s8,a1,0x1f
80003078:	0015d493          	srl	s1,a1,0x1
8000307c:	0016d693          	srl	a3,a3,0x1
80003080:	00dc66b3          	or	a3,s8,a3
80003084:	00269593          	sll	a1,a3,0x2
80003088:	00d585b3          	add	a1,a1,a3
8000308c:	00159593          	sll	a1,a1,0x1
80003090:	40b60633          	sub	a2,a2,a1
80003094:	03060613          	add	a2,a2,48
80003098:	fec28fa3          	sb	a2,-1(t0)
8000309c:	00068613          	mv	a2,a3
800030a0:	04030463          	beqz	t1,800030e8 <_vsnprintf+0xa08>
800030a4:	f87796e3          	bne	a5,t2,80003030 <_vsnprintf+0x950>
800030a8:	01112223          	sw	a7,4(sp)
800030ac:	01012023          	sw	a6,0(sp)
800030b0:	00040613          	mv	a2,s0
800030b4:	01c12423          	sw	t3,8(sp)
800030b8:	00a00893          	li	a7,10
800030bc:	000f8813          	mv	a6,t6
800030c0:	875ff06f          	j	80002934 <_vsnprintf+0x254>
800030c4:	000cc703          	lbu	a4,0(s9)
800030c8:	00070693          	mv	a3,a4
800030cc:	c59ff06f          	j	80002d24 <_vsnprintf+0x644>
800030d0:	fef6fe13          	and	t3,a3,-17
800030d4:	c15ff06f          	j	80002ce8 <_vsnprintf+0x608>
800030d8:	38051063          	bnez	a0,80003458 <_vsnprintf+0xd78>
800030dc:	00000613          	li	a2,0
800030e0:	00000593          	li	a1,0
800030e4:	f2dff06f          	j	80003010 <_vsnprintf+0x930>
800030e8:	00900693          	li	a3,9
800030ec:	fa16ece3          	bltu	a3,ra,800030a4 <_vsnprintf+0x9c4>
800030f0:	fb9ff06f          	j	800030a8 <_vsnprintf+0x9c8>
800030f4:	000cc503          	lbu	a0,0(s9)
800030f8:	000d8693          	mv	a3,s11
800030fc:	00040613          	mv	a2,s0
80003100:	000b0593          	mv	a1,s6
80003104:	000b80e7          	jalr	s7
80003108:	00048413          	mv	s0,s1
8000310c:	000c0c93          	mv	s9,s8
80003110:	e68ff06f          	j	80002778 <_vsnprintf+0x98>
80003114:	4006f613          	and	a2,a3,1024
80003118:	2e060063          	beqz	a2,800033f8 <_vsnprintf+0xd18>
8000311c:	ff26fe93          	and	t4,a3,-14
80003120:	00200d13          	li	s10,2
80003124:	d31ff06f          	j	80002e54 <_vsnprintf+0x774>
80003128:	4006f613          	and	a2,a3,1024
8000312c:	34060063          	beqz	a2,8000346c <_vsnprintf+0xd8c>
80003130:	ff26fe93          	and	t4,a3,-14
80003134:	020eee93          	or	t4,t4,32
80003138:	01000d13          	li	s10,16
8000313c:	d19ff06f          	j	80002e54 <_vsnprintf+0x774>
80003140:	007c8c93          	add	s9,s9,7
80003144:	ff8cfc93          	and	s9,s9,-8
80003148:	000ca683          	lw	a3,0(s9)
8000314c:	004ca483          	lw	s1,4(s9)
80003150:	008c8c93          	add	s9,s9,8
80003154:	0096e7b3          	or	a5,a3,s1
80003158:	12079e63          	bnez	a5,80003294 <_vsnprintf+0xbb4>
8000315c:	fefefe93          	and	t4,t4,-17
80003160:	12060a63          	beqz	a2,80003294 <_vsnprintf+0xbb4>
80003164:	00000c13          	li	s8,0
80003168:	03010713          	add	a4,sp,48
8000316c:	01112223          	sw	a7,4(sp)
80003170:	01012023          	sw	a6,0(sp)
80003174:	00040613          	mv	a2,s0
80003178:	01d12423          	sw	t4,8(sp)
8000317c:	000d0893          	mv	a7,s10
80003180:	00000813          	li	a6,0
80003184:	000c0793          	mv	a5,s8
80003188:	facff06f          	j	80002934 <_vsnprintf+0x254>
8000318c:	06f00793          	li	a5,111
80003190:	2ef51863          	bne	a0,a5,80003480 <_vsnprintf+0xda0>
80003194:	4006f613          	and	a2,a3,1024
80003198:	ff36fe93          	and	t4,a3,-13
8000319c:	00800d13          	li	s10,8
800031a0:	ca060ae3          	beqz	a2,80002e54 <_vsnprintf+0x774>
800031a4:	00068e13          	mv	t3,a3
800031a8:	00800d13          	li	s10,8
800031ac:	ff2e7e93          	and	t4,t3,-14
800031b0:	ca5ff06f          	j	80002e54 <_vsnprintf+0x774>
800031b4:	020ef613          	and	a2,t4,32
800031b8:	06100713          	li	a4,97
800031bc:	00060463          	beqz	a2,800031c4 <_vsnprintf+0xae4>
800031c0:	04100713          	li	a4,65
800031c4:	0ff77f13          	zext.b	t5,a4
800031c8:	00900313          	li	t1,9
800031cc:	03010713          	add	a4,sp,48
800031d0:	ff6f0f13          	add	t5,t5,-10
800031d4:	02000e13          	li	t3,32
800031d8:	0280006f          	j	80003200 <_vsnprintf+0xb20>
800031dc:	03068693          	add	a3,a3,48
800031e0:	0ff6f693          	zext.b	a3,a3
800031e4:	00178793          	add	a5,a5,1
800031e8:	00f70633          	add	a2,a4,a5
800031ec:	fed60fa3          	sb	a3,-1(a2)
800031f0:	03a5d6b3          	divu	a3,a1,s10
800031f4:	c9a5eae3          	bltu	a1,s10,80002e88 <_vsnprintf+0x7a8>
800031f8:	c9c788e3          	beq	a5,t3,80002e88 <_vsnprintf+0x7a8>
800031fc:	00068593          	mv	a1,a3
80003200:	03a5f633          	remu	a2,a1,s10
80003204:	0ff67693          	zext.b	a3,a2
80003208:	fcc37ae3          	bgeu	t1,a2,800031dc <_vsnprintf+0xafc>
8000320c:	01e686b3          	add	a3,a3,t5
80003210:	0ff6f693          	zext.b	a3,a3
80003214:	fd1ff06f          	j	800031e4 <_vsnprintf+0xb04>
80003218:	03010713          	add	a4,sp,48
8000321c:	b40516e3          	bnez	a0,80002d68 <_vsnprintf+0x688>
80003220:	b11ff06f          	j	80002d30 <_vsnprintf+0x650>
80003224:	000ca783          	lw	a5,0(s9)
80003228:	01f7d593          	srl	a1,a5,0x1f
8000322c:	1c078c63          	beqz	a5,80003404 <_vsnprintf+0xd24>
80003230:	41f7d713          	sra	a4,a5,0x1f
80003234:	00f74533          	xor	a0,a4,a5
80003238:	40e50533          	sub	a0,a0,a4
8000323c:	03010713          	add	a4,sp,48
80003240:	00a00613          	li	a2,10
80003244:	00900e93          	li	t4,9
80003248:	02000f13          	li	t5,32
8000324c:	0080006f          	j	80003254 <_vsnprintf+0xb74>
80003250:	03e68263          	beq	a3,t5,80003274 <_vsnprintf+0xb94>
80003254:	02c577b3          	remu	a5,a0,a2
80003258:	00168693          	add	a3,a3,1
8000325c:	00d70fb3          	add	t6,a4,a3
80003260:	00050313          	mv	t1,a0
80003264:	03078793          	add	a5,a5,48
80003268:	feff8fa3          	sb	a5,-1(t6)
8000326c:	02c55533          	divu	a0,a0,a2
80003270:	fe6ee0e3          	bltu	t4,t1,80003250 <_vsnprintf+0xb70>
80003274:	01112223          	sw	a7,4(sp)
80003278:	01012023          	sw	a6,0(sp)
8000327c:	00040613          	mv	a2,s0
80003280:	01c12423          	sw	t3,8(sp)
80003284:	00a00893          	li	a7,10
80003288:	00058813          	mv	a6,a1
8000328c:	00068793          	mv	a5,a3
80003290:	af1ff06f          	j	80002d80 <_vsnprintf+0x6a0>
80003294:	020ef713          	and	a4,t4,32
80003298:	06100793          	li	a5,97
8000329c:	00070463          	beqz	a4,800032a4 <_vsnprintf+0xbc4>
800032a0:	04100793          	li	a5,65
800032a4:	0ff7f613          	zext.b	a2,a5
800032a8:	00000c13          	li	s8,0
800032ac:	03010713          	add	a4,sp,48
800032b0:	ff660793          	add	a5,a2,-10
800032b4:	02812023          	sw	s0,32(sp)
800032b8:	03712423          	sw	s7,40(sp)
800032bc:	03612623          	sw	s6,44(sp)
800032c0:	01112c23          	sw	a7,24(sp)
800032c4:	000c0b13          	mv	s6,s8
800032c8:	01012e23          	sw	a6,28(sp)
800032cc:	00090c13          	mv	s8,s2
800032d0:	03d12223          	sw	t4,36(sp)
800032d4:	00068413          	mv	s0,a3
800032d8:	00070b93          	mv	s7,a4
800032dc:	00078913          	mv	s2,a5
800032e0:	0440006f          	j	80003324 <_vsnprintf+0xc44>
800032e4:	03050793          	add	a5,a0,48
800032e8:	0ff7f793          	zext.b	a5,a5
800032ec:	001b0b13          	add	s6,s6,1
800032f0:	016b8833          	add	a6,s7,s6
800032f4:	fef80fa3          	sb	a5,-1(a6)
800032f8:	000d0613          	mv	a2,s10
800032fc:	00000693          	li	a3,0
80003300:	00040513          	mv	a0,s0
80003304:	00048593          	mv	a1,s1
80003308:	465020ef          	jal	80005f6c <__udivdi3>
8000330c:	00000793          	li	a5,0
80003310:	10978063          	beq	a5,s1,80003410 <_vsnprintf+0xd30>
80003314:	02000793          	li	a5,32
80003318:	0efb0e63          	beq	s6,a5,80003414 <_vsnprintf+0xd34>
8000331c:	00050413          	mv	s0,a0
80003320:	00058493          	mv	s1,a1
80003324:	000d0613          	mv	a2,s10
80003328:	00000693          	li	a3,0
8000332c:	00040513          	mv	a0,s0
80003330:	00048593          	mv	a1,s1
80003334:	79d020ef          	jal	800062d0 <__umoddi3>
80003338:	0ff57513          	zext.b	a0,a0
8000333c:	00900793          	li	a5,9
80003340:	faa7f2e3          	bgeu	a5,a0,800032e4 <_vsnprintf+0xc04>
80003344:	012507b3          	add	a5,a0,s2
80003348:	0ff7f793          	zext.b	a5,a5
8000334c:	fa1ff06f          	j	800032ec <_vsnprintf+0xc0c>
80003350:	080ef713          	and	a4,t4,128
80003354:	0e070e63          	beqz	a4,80003450 <_vsnprintf+0xd70>
80003358:	000cd583          	lhu	a1,0(s9)
8000335c:	b19ff06f          	j	80002e74 <_vsnprintf+0x794>
80003360:	000ca783          	lw	a5,0(s9)
80003364:	00079863          	bnez	a5,80003374 <_vsnprintf+0xc94>
80003368:	fefefe93          	and	t4,t4,-17
8000336c:	03010713          	add	a4,sp,48
80003370:	06061463          	bnez	a2,800033d8 <_vsnprintf+0xcf8>
80003374:	020ef613          	and	a2,t4,32
80003378:	06100713          	li	a4,97
8000337c:	00060463          	beqz	a2,80003384 <_vsnprintf+0xca4>
80003380:	04100713          	li	a4,65
80003384:	0ff77f13          	zext.b	t5,a4
80003388:	00900e13          	li	t3,9
8000338c:	03010713          	add	a4,sp,48
80003390:	ff6f0f13          	add	t5,t5,-10
80003394:	02000313          	li	t1,32
80003398:	0280006f          	j	800033c0 <_vsnprintf+0xce0>
8000339c:	03068693          	add	a3,a3,48
800033a0:	0ff6f693          	zext.b	a3,a3
800033a4:	00158593          	add	a1,a1,1
800033a8:	00b70633          	add	a2,a4,a1
800033ac:	fed60fa3          	sb	a3,-1(a2)
800033b0:	03a7d6b3          	divu	a3,a5,s10
800033b4:	03a7e263          	bltu	a5,s10,800033d8 <_vsnprintf+0xcf8>
800033b8:	02658063          	beq	a1,t1,800033d8 <_vsnprintf+0xcf8>
800033bc:	00068793          	mv	a5,a3
800033c0:	03a7f633          	remu	a2,a5,s10
800033c4:	0ff67693          	zext.b	a3,a2
800033c8:	fcce7ae3          	bgeu	t3,a2,8000339c <_vsnprintf+0xcbc>
800033cc:	01e686b3          	add	a3,a3,t5
800033d0:	0ff6f693          	zext.b	a3,a3
800033d4:	fd1ff06f          	j	800033a4 <_vsnprintf+0xcc4>
800033d8:	01112223          	sw	a7,4(sp)
800033dc:	01012023          	sw	a6,0(sp)
800033e0:	00040613          	mv	a2,s0
800033e4:	01d12423          	sw	t4,8(sp)
800033e8:	000d0893          	mv	a7,s10
800033ec:	00000813          	li	a6,0
800033f0:	00058793          	mv	a5,a1
800033f4:	98dff06f          	j	80002d80 <_vsnprintf+0x6a0>
800033f8:	ff36fe93          	and	t4,a3,-13
800033fc:	00200d13          	li	s10,2
80003400:	a55ff06f          	j	80002e54 <_vsnprintf+0x774>
80003404:	03010713          	add	a4,sp,48
80003408:	e60516e3          	bnez	a0,80003274 <_vsnprintf+0xb94>
8000340c:	e31ff06f          	j	8000323c <_vsnprintf+0xb5c>
80003410:	f1a472e3          	bgeu	s0,s10,80003314 <_vsnprintf+0xc34>
80003414:	000c0913          	mv	s2,s8
80003418:	000b8713          	mv	a4,s7
8000341c:	000b0c13          	mv	s8,s6
80003420:	01812883          	lw	a7,24(sp)
80003424:	01c12803          	lw	a6,28(sp)
80003428:	02012403          	lw	s0,32(sp)
8000342c:	02412e83          	lw	t4,36(sp)
80003430:	02c12b03          	lw	s6,44(sp)
80003434:	02812b83          	lw	s7,40(sp)
80003438:	d35ff06f          	j	8000316c <_vsnprintf+0xa8c>
8000343c:	000ca703          	lw	a4,0(s9)
80003440:	41f75613          	sra	a2,a4,0x1f
80003444:	00e646b3          	xor	a3,a2,a4
80003448:	40c686b3          	sub	a3,a3,a2
8000344c:	8d9ff06f          	j	80002d24 <_vsnprintf+0x644>
80003450:	000ca583          	lw	a1,0(s9)
80003454:	a21ff06f          	j	80002e74 <_vsnprintf+0x794>
80003458:	00000793          	li	a5,0
8000345c:	03010713          	add	a4,sp,48
80003460:	c49ff06f          	j	800030a8 <_vsnprintf+0x9c8>
80003464:	00148493          	add	s1,s1,1
80003468:	b59ff06f          	j	80002fc0 <_vsnprintf+0x8e0>
8000346c:	0206e693          	or	a3,a3,32
80003470:	ff36fe93          	and	t4,a3,-13
80003474:	00000613          	li	a2,0
80003478:	01000d13          	li	s10,16
8000347c:	9d9ff06f          	j	80002e54 <_vsnprintf+0x774>
80003480:	06900793          	li	a5,105
80003484:	fef6fe13          	and	t3,a3,-17
80003488:	00f51a63          	bne	a0,a5,8000349c <_vsnprintf+0xdbc>
8000348c:	4006f513          	and	a0,a3,1024
80003490:	84050ce3          	beqz	a0,80002ce8 <_vsnprintf+0x608>
80003494:	fee6fe13          	and	t3,a3,-18
80003498:	851ff06f          	j	80002ce8 <_vsnprintf+0x608>
8000349c:	4006f613          	and	a2,a3,1024
800034a0:	fe36fe93          	and	t4,a3,-29
800034a4:	00a00d13          	li	s10,10
800034a8:	9a0606e3          	beqz	a2,80002e54 <_vsnprintf+0x774>
800034ac:	ff2e7e93          	and	t4,t3,-14
800034b0:	9a5ff06f          	j	80002e54 <_vsnprintf+0x774>

800034b4 <tiny_vprintf>:
800034b4:	fe010113          	add	sp,sp,-32
800034b8:	00050693          	mv	a3,a0
800034bc:	00058713          	mv	a4,a1
800034c0:	fff00613          	li	a2,-1
800034c4:	00c10593          	add	a1,sp,12
800034c8:	ffffe517          	auipc	a0,0xffffe
800034cc:	51450513          	add	a0,a0,1300 # 800019dc <_out_char>
800034d0:	00112e23          	sw	ra,28(sp)
800034d4:	a0cff0ef          	jal	800026e0 <_vsnprintf>
800034d8:	01c12083          	lw	ra,28(sp)
800034dc:	02010113          	add	sp,sp,32
800034e0:	00008067          	ret

800034e4 <__stdio_exit>:
800034e4:	00008067          	ret

800034e8 <__libc_exit_fini>:
800034e8:	ff010113          	add	sp,sp,-16
800034ec:	00112623          	sw	ra,12(sp)
800034f0:	00812423          	sw	s0,8(sp)
800034f4:	00912223          	sw	s1,4(sp)
800034f8:	00004517          	auipc	a0,0x4
800034fc:	64452503          	lw	a0,1604(a0) # 80007b3c <_GLOBAL_OFFSET_TABLE_+0x8>
80003500:	00004597          	auipc	a1,0x4
80003504:	6405a403          	lw	s0,1600(a1) # 80007b40 <_GLOBAL_OFFSET_TABLE_+0xc>
80003508:	00a47c63          	bgeu	s0,a0,80003520 <__libc_exit_fini+0x38>
8000350c:	ffc52583          	lw	a1,-4(a0)
80003510:	ffc50493          	add	s1,a0,-4
80003514:	000580e7          	jalr	a1
80003518:	00048513          	mv	a0,s1
8000351c:	fe9468e3          	bltu	s0,s1,8000350c <__libc_exit_fini+0x24>
80003520:	00c12083          	lw	ra,12(sp)
80003524:	00812403          	lw	s0,8(sp)
80003528:	00412483          	lw	s1,4(sp)
8000352c:	01010113          	add	sp,sp,16
80003530:	fb5ff06f          	j	800034e4 <__stdio_exit>

80003534 <memcpy>:
80003534:	ff010113          	add	sp,sp,-16
80003538:	00812623          	sw	s0,12(sp)
8000353c:	00912423          	sw	s1,8(sp)
80003540:	01212223          	sw	s2,4(sp)
80003544:	01312023          	sw	s3,0(sp)
80003548:	0035f693          	and	a3,a1,3
8000354c:	00d036b3          	snez	a3,a3
80003550:	00c03733          	snez	a4,a2
80003554:	00e6f7b3          	and	a5,a3,a4
80003558:	0017a70b          	.4byte	0x17a70b
8000355c:	00050693          	mv	a3,a0
80003560:	04078663          	beqz	a5,800035ac <memcpy+0x78>
80003564:	00158793          	add	a5,a1,1
80003568:	cc402873          	csrr	a6,0xcc4
8000356c:	00058893          	mv	a7,a1
80003570:	00050293          	mv	t0,a0
80003574:	0008c303          	lbu	t1,0(a7)
80003578:	00188593          	add	a1,a7,1
8000357c:	00128693          	add	a3,t0,1
80003580:	00628023          	sb	t1,0(t0)
80003584:	fff60613          	add	a2,a2,-1
80003588:	0037f893          	and	a7,a5,3
8000358c:	0018b893          	seqz	a7,a7
80003590:	00163293          	seqz	t0,a2
80003594:	0058e333          	or	t1,a7,t0
80003598:	00178793          	add	a5,a5,1
8000359c:	0103508b          	.4byte	0x103508b
800035a0:	00058893          	mv	a7,a1
800035a4:	00068293          	mv	t0,a3
800035a8:	fc0306e3          	beqz	t1,80003574 <memcpy+0x40>
800035ac:	0007300b          	.4byte	0x7300b
800035b0:	00000813          	li	a6,0
800035b4:	0036fe93          	and	t4,a3,3
800035b8:	01d03333          	snez	t1,t4
800035bc:	0013270b          	.4byte	0x13270b
800035c0:	00100893          	li	a7,1
800035c4:	38030663          	beqz	t1,80003950 <memcpy+0x41c>
800035c8:	02063793          	sltiu	a5,a2,32
800035cc:	0017c313          	xor	t1,a5,1
800035d0:	0013288b          	.4byte	0x13288b
800035d4:	00058293          	mv	t0,a1
800035d8:	00068793          	mv	a5,a3
800035dc:	00060813          	mv	a6,a2
800035e0:	1e030a63          	beqz	t1,800037d4 <memcpy+0x2a0>
800035e4:	0005a303          	lw	t1,0(a1)
800035e8:	003ea793          	slti	a5,t4,3
800035ec:	0017ce13          	xor	t3,a5,1
800035f0:	001e238b          	.4byte	0x1e238b
800035f4:	00100f13          	li	t5,1
800035f8:	080e0663          	beqz	t3,80003684 <memcpy+0x150>
800035fc:	00168793          	add	a5,a3,1
80003600:	00668023          	sb	t1,0(a3)
80003604:	fff60813          	add	a6,a2,-1
80003608:	01058293          	add	t0,a1,16
8000360c:	cc402e73          	csrr	t3,0xcc4
80003610:	00030f13          	mv	t5,t1
80003614:	ff42af83          	lw	t6,-12(t0)
80003618:	008f5f13          	srl	t5,t5,0x8
8000361c:	018f9413          	sll	s0,t6,0x18
80003620:	ff82a483          	lw	s1,-8(t0)
80003624:	01e46f33          	or	t5,s0,t5
80003628:	01e7a023          	sw	t5,0(a5)
8000362c:	008fdf13          	srl	t5,t6,0x8
80003630:	01849f93          	sll	t6,s1,0x18
80003634:	ffc2a403          	lw	s0,-4(t0)
80003638:	01efef33          	or	t5,t6,t5
8000363c:	01e7a223          	sw	t5,4(a5)
80003640:	0084d493          	srl	s1,s1,0x8
80003644:	01841f93          	sll	t6,s0,0x18
80003648:	0002af03          	lw	t5,0(t0)
8000364c:	009fefb3          	or	t6,t6,s1
80003650:	01f7a423          	sw	t6,8(a5)
80003654:	00845413          	srl	s0,s0,0x8
80003658:	018f1f93          	sll	t6,t5,0x18
8000365c:	008fefb3          	or	t6,t6,s0
80003660:	01f7a623          	sw	t6,12(a5)
80003664:	01078793          	add	a5,a5,16
80003668:	ff080813          	add	a6,a6,-16
8000366c:	01028293          	add	t0,t0,16
80003670:	01383f93          	sltiu	t6,a6,19
80003674:	01cfd08b          	.4byte	0x1cfd08b
80003678:	f80f8ee3          	beqz	t6,80003614 <memcpy+0xe0>
8000367c:	00000f13          	li	t5,0
80003680:	ff128293          	add	t0,t0,-15
80003684:	01058e13          	add	t3,a1,16
80003688:	0003b00b          	.4byte	0x3b00b
8000368c:	001f238b          	.4byte	0x1f238b
80003690:	140f0063          	beqz	t5,800037d0 <memcpy+0x29c>
80003694:	ffee8e93          	add	t4,t4,-2
80003698:	01d03433          	snez	s0,t4
8000369c:	00142f0b          	.4byte	0x142f0b
800036a0:	00100f93          	li	t6,1
800036a4:	00835e93          	srl	t4,t1,0x8
800036a8:	08040c63          	beqz	s0,80003740 <memcpy+0x20c>
800036ac:	00668023          	sb	t1,0(a3)
800036b0:	01d680a3          	sb	t4,1(a3)
800036b4:	01035813          	srl	a6,t1,0x10
800036b8:	00368793          	add	a5,a3,3
800036bc:	01068123          	sb	a6,2(a3)
800036c0:	ffd60813          	add	a6,a2,-3
800036c4:	01058293          	add	t0,a1,16
800036c8:	cc402ff3          	csrr	t6,0xcc4
800036cc:	00030413          	mv	s0,t1
800036d0:	ff42a483          	lw	s1,-12(t0)
800036d4:	01845413          	srl	s0,s0,0x18
800036d8:	00849913          	sll	s2,s1,0x8
800036dc:	ff82a983          	lw	s3,-8(t0)
800036e0:	00896433          	or	s0,s2,s0
800036e4:	0087a023          	sw	s0,0(a5)
800036e8:	0184d493          	srl	s1,s1,0x18
800036ec:	00899413          	sll	s0,s3,0x8
800036f0:	ffc2a903          	lw	s2,-4(t0)
800036f4:	00946433          	or	s0,s0,s1
800036f8:	0087a223          	sw	s0,4(a5)
800036fc:	0189d493          	srl	s1,s3,0x18
80003700:	00891993          	sll	s3,s2,0x8
80003704:	0002a403          	lw	s0,0(t0)
80003708:	0099e4b3          	or	s1,s3,s1
8000370c:	0097a423          	sw	s1,8(a5)
80003710:	01895493          	srl	s1,s2,0x18
80003714:	00841913          	sll	s2,s0,0x8
80003718:	009964b3          	or	s1,s2,s1
8000371c:	0097a623          	sw	s1,12(a5)
80003720:	01078793          	add	a5,a5,16
80003724:	ff080813          	add	a6,a6,-16
80003728:	01028293          	add	t0,t0,16
8000372c:	01183493          	sltiu	s1,a6,17
80003730:	01f4d08b          	.4byte	0x1f4d08b
80003734:	f8048ee3          	beqz	s1,800036d0 <memcpy+0x19c>
80003738:	00000f93          	li	t6,0
8000373c:	ff328293          	add	t0,t0,-13
80003740:	000f300b          	.4byte	0xf300b
80003744:	001faf0b          	.4byte	0x1faf0b
80003748:	080f8263          	beqz	t6,800037cc <memcpy+0x298>
8000374c:	00668023          	sb	t1,0(a3)
80003750:	00268793          	add	a5,a3,2
80003754:	01d680a3          	sb	t4,1(a3)
80003758:	ffe60813          	add	a6,a2,-2
8000375c:	cc4022f3          	csrr	t0,0xcc4
80003760:	ff4e2e83          	lw	t4,-12(t3)
80003764:	01035313          	srl	t1,t1,0x10
80003768:	010e9f93          	sll	t6,t4,0x10
8000376c:	ff8e2403          	lw	s0,-8(t3)
80003770:	006fe333          	or	t1,t6,t1
80003774:	0067a023          	sw	t1,0(a5)
80003778:	010ed313          	srl	t1,t4,0x10
8000377c:	01041e93          	sll	t4,s0,0x10
80003780:	ffce2f83          	lw	t6,-4(t3)
80003784:	006ee333          	or	t1,t4,t1
80003788:	0067a223          	sw	t1,4(a5)
8000378c:	01045413          	srl	s0,s0,0x10
80003790:	010f9e93          	sll	t4,t6,0x10
80003794:	000e2303          	lw	t1,0(t3)
80003798:	008eeeb3          	or	t4,t4,s0
8000379c:	01d7a423          	sw	t4,8(a5)
800037a0:	010fde93          	srl	t4,t6,0x10
800037a4:	01031f93          	sll	t6,t1,0x10
800037a8:	01dfeeb3          	or	t4,t6,t4
800037ac:	01d7a623          	sw	t4,12(a5)
800037b0:	01078793          	add	a5,a5,16
800037b4:	ff080813          	add	a6,a6,-16
800037b8:	010e0e13          	add	t3,t3,16
800037bc:	01283e93          	sltiu	t4,a6,18
800037c0:	005ed08b          	.4byte	0x5ed08b
800037c4:	f80e8ee3          	beqz	t4,80003760 <memcpy+0x22c>
800037c8:	ff2e0293          	add	t0,t3,-14
800037cc:	000f300b          	.4byte	0xf300b
800037d0:	0003b00b          	.4byte	0x3b00b
800037d4:	0008b00b          	.4byte	0x8b00b
800037d8:	01083893          	sltiu	a7,a6,16
800037dc:	0018c313          	xor	t1,a7,1
800037e0:	0013288b          	.4byte	0x13288b
800037e4:	08030863          	beqz	t1,80003874 <memcpy+0x340>
800037e8:	0002c303          	lbu	t1,0(t0)
800037ec:	0012c383          	lbu	t2,1(t0)
800037f0:	0022ce03          	lbu	t3,2(t0)
800037f4:	00678023          	sb	t1,0(a5)
800037f8:	007780a3          	sb	t2,1(a5)
800037fc:	0032c303          	lbu	t1,3(t0)
80003800:	01c78123          	sb	t3,2(a5)
80003804:	0042c383          	lbu	t2,4(t0)
80003808:	0052ce03          	lbu	t3,5(t0)
8000380c:	006781a3          	sb	t1,3(a5)
80003810:	0062c303          	lbu	t1,6(t0)
80003814:	00778223          	sb	t2,4(a5)
80003818:	01c782a3          	sb	t3,5(a5)
8000381c:	0072c383          	lbu	t2,7(t0)
80003820:	00678323          	sb	t1,6(a5)
80003824:	0082c303          	lbu	t1,8(t0)
80003828:	0092ce03          	lbu	t3,9(t0)
8000382c:	007783a3          	sb	t2,7(a5)
80003830:	00a2c383          	lbu	t2,10(t0)
80003834:	00678423          	sb	t1,8(a5)
80003838:	01c784a3          	sb	t3,9(a5)
8000383c:	00b2c303          	lbu	t1,11(t0)
80003840:	00778523          	sb	t2,10(a5)
80003844:	00c2c383          	lbu	t2,12(t0)
80003848:	00d2ce03          	lbu	t3,13(t0)
8000384c:	006785a3          	sb	t1,11(a5)
80003850:	00e2c303          	lbu	t1,14(t0)
80003854:	00778623          	sb	t2,12(a5)
80003858:	01c786a3          	sb	t3,13(a5)
8000385c:	00f2c383          	lbu	t2,15(t0)
80003860:	00678723          	sb	t1,14(a5)
80003864:	01028293          	add	t0,t0,16
80003868:	01078313          	add	t1,a5,16
8000386c:	007787a3          	sb	t2,15(a5)
80003870:	00030793          	mv	a5,t1
80003874:	0008b00b          	.4byte	0x8b00b
80003878:	01c81893          	sll	a7,a6,0x1c
8000387c:	01f8d313          	srl	t1,a7,0x1f
80003880:	0013288b          	.4byte	0x13288b
80003884:	04030863          	beqz	t1,800038d4 <memcpy+0x3a0>
80003888:	0002c303          	lbu	t1,0(t0)
8000388c:	0012c383          	lbu	t2,1(t0)
80003890:	0022ce03          	lbu	t3,2(t0)
80003894:	00678023          	sb	t1,0(a5)
80003898:	007780a3          	sb	t2,1(a5)
8000389c:	0032c303          	lbu	t1,3(t0)
800038a0:	01c78123          	sb	t3,2(a5)
800038a4:	0042c383          	lbu	t2,4(t0)
800038a8:	0052ce03          	lbu	t3,5(t0)
800038ac:	006781a3          	sb	t1,3(a5)
800038b0:	0062c303          	lbu	t1,6(t0)
800038b4:	00778223          	sb	t2,4(a5)
800038b8:	01c782a3          	sb	t3,5(a5)
800038bc:	0072c383          	lbu	t2,7(t0)
800038c0:	00678323          	sb	t1,6(a5)
800038c4:	00828293          	add	t0,t0,8
800038c8:	00878313          	add	t1,a5,8
800038cc:	007783a3          	sb	t2,7(a5)
800038d0:	00030793          	mv	a5,t1
800038d4:	0008b00b          	.4byte	0x8b00b
800038d8:	01d81893          	sll	a7,a6,0x1d
800038dc:	01f8d313          	srl	t1,a7,0x1f
800038e0:	0013288b          	.4byte	0x13288b
800038e4:	02030863          	beqz	t1,80003914 <memcpy+0x3e0>
800038e8:	0002c303          	lbu	t1,0(t0)
800038ec:	0012c383          	lbu	t2,1(t0)
800038f0:	0022ce03          	lbu	t3,2(t0)
800038f4:	00678023          	sb	t1,0(a5)
800038f8:	007780a3          	sb	t2,1(a5)
800038fc:	0032c303          	lbu	t1,3(t0)
80003900:	01c78123          	sb	t3,2(a5)
80003904:	00428293          	add	t0,t0,4
80003908:	00478393          	add	t2,a5,4
8000390c:	006781a3          	sb	t1,3(a5)
80003910:	00038793          	mv	a5,t2
80003914:	0008b00b          	.4byte	0x8b00b
80003918:	01e81893          	sll	a7,a6,0x1e
8000391c:	01f8d313          	srl	t1,a7,0x1f
80003920:	0013288b          	.4byte	0x13288b
80003924:	02030063          	beqz	t1,80003944 <memcpy+0x410>
80003928:	0002c303          	lbu	t1,0(t0)
8000392c:	0012c383          	lbu	t2,1(t0)
80003930:	00678023          	sb	t1,0(a5)
80003934:	00278313          	add	t1,a5,2
80003938:	00228293          	add	t0,t0,2
8000393c:	007780a3          	sb	t2,1(a5)
80003940:	00030793          	mv	a5,t1
80003944:	0008b00b          	.4byte	0x8b00b
80003948:	00000893          	li	a7,0
8000394c:	00187813          	and	a6,a6,1
80003950:	0007300b          	.4byte	0x7300b
80003954:	0018a70b          	.4byte	0x18a70b
80003958:	0e088463          	beqz	a7,80003a40 <memcpy+0x50c>
8000395c:	01063793          	sltiu	a5,a2,16
80003960:	0017c813          	xor	a6,a5,1
80003964:	0018278b          	.4byte	0x18278b
80003968:	04080063          	beqz	a6,800039a8 <memcpy+0x474>
8000396c:	cc402873          	csrr	a6,0xcc4
80003970:	0005a883          	lw	a7,0(a1)
80003974:	0045a283          	lw	t0,4(a1)
80003978:	0085a303          	lw	t1,8(a1)
8000397c:	00c5a383          	lw	t2,12(a1)
80003980:	0116a023          	sw	a7,0(a3)
80003984:	0056a223          	sw	t0,4(a3)
80003988:	0066a423          	sw	t1,8(a3)
8000398c:	0076a623          	sw	t2,12(a3)
80003990:	01058593          	add	a1,a1,16
80003994:	01068693          	add	a3,a3,16
80003998:	ff060613          	add	a2,a2,-16
8000399c:	01063893          	sltiu	a7,a2,16
800039a0:	0108d08b          	.4byte	0x108d08b
800039a4:	fc0886e3          	beqz	a7,80003970 <memcpy+0x43c>
800039a8:	0007b00b          	.4byte	0x7b00b
800039ac:	00863793          	sltiu	a5,a2,8
800039b0:	0017c813          	xor	a6,a5,1
800039b4:	0018278b          	.4byte	0x18278b
800039b8:	02080063          	beqz	a6,800039d8 <memcpy+0x4a4>
800039bc:	0005a803          	lw	a6,0(a1)
800039c0:	0045a883          	lw	a7,4(a1)
800039c4:	00858593          	add	a1,a1,8
800039c8:	0106a023          	sw	a6,0(a3)
800039cc:	00868813          	add	a6,a3,8
800039d0:	0116a223          	sw	a7,4(a3)
800039d4:	00080693          	mv	a3,a6
800039d8:	0007b00b          	.4byte	0x7b00b
800039dc:	01d61793          	sll	a5,a2,0x1d
800039e0:	01f7d813          	srl	a6,a5,0x1f
800039e4:	0018278b          	.4byte	0x18278b
800039e8:	00080c63          	beqz	a6,80003a00 <memcpy+0x4cc>
800039ec:	0005a803          	lw	a6,0(a1)
800039f0:	00458593          	add	a1,a1,4
800039f4:	00468893          	add	a7,a3,4
800039f8:	0106a023          	sw	a6,0(a3)
800039fc:	00088693          	mv	a3,a7
80003a00:	0007b00b          	.4byte	0x7b00b
80003a04:	01e61793          	sll	a5,a2,0x1e
80003a08:	01f7d813          	srl	a6,a5,0x1f
80003a0c:	0018278b          	.4byte	0x18278b
80003a10:	02080063          	beqz	a6,80003a30 <memcpy+0x4fc>
80003a14:	0005c803          	lbu	a6,0(a1)
80003a18:	0015c883          	lbu	a7,1(a1)
80003a1c:	01068023          	sb	a6,0(a3)
80003a20:	00268813          	add	a6,a3,2
80003a24:	00258593          	add	a1,a1,2
80003a28:	011680a3          	sb	a7,1(a3)
80003a2c:	00080693          	mv	a3,a6
80003a30:	0007b00b          	.4byte	0x7b00b
80003a34:	00167813          	and	a6,a2,1
80003a38:	00058293          	mv	t0,a1
80003a3c:	00068793          	mv	a5,a3
80003a40:	0007300b          	.4byte	0x7300b
80003a44:	0018258b          	.4byte	0x18258b
80003a48:	00080663          	beqz	a6,80003a54 <memcpy+0x520>
80003a4c:	0002c603          	lbu	a2,0(t0)
80003a50:	00c78023          	sb	a2,0(a5)
80003a54:	0005b00b          	.4byte	0x5b00b
80003a58:	00c12403          	lw	s0,12(sp)
80003a5c:	00812483          	lw	s1,8(sp)
80003a60:	00412903          	lw	s2,4(sp)
80003a64:	00012983          	lw	s3,0(sp)
80003a68:	01010113          	add	sp,sp,16
80003a6c:	00008067          	ret

80003a70 <memset>:
80003a70:	00c03733          	snez	a4,a2
80003a74:	0017268b          	.4byte	0x17268b
80003a78:	16070263          	beqz	a4,80003bdc <memset+0x16c>
80003a7c:	00b50023          	sb	a1,0(a0)
80003a80:	00c50833          	add	a6,a0,a2
80003a84:	feb80fa3          	sb	a1,-1(a6)
80003a88:	00363713          	sltiu	a4,a2,3
80003a8c:	00174793          	xor	a5,a4,1
80003a90:	0017a70b          	.4byte	0x17a70b
80003a94:	14078263          	beqz	a5,80003bd8 <memset+0x168>
80003a98:	00b500a3          	sb	a1,1(a0)
80003a9c:	00b50123          	sb	a1,2(a0)
80003aa0:	feb80f23          	sb	a1,-2(a6)
80003aa4:	feb80ea3          	sb	a1,-3(a6)
80003aa8:	00763793          	sltiu	a5,a2,7
80003aac:	0017c893          	xor	a7,a5,1
80003ab0:	0018a78b          	.4byte	0x18a78b
80003ab4:	12088063          	beqz	a7,80003bd4 <memset+0x164>
80003ab8:	00b501a3          	sb	a1,3(a0)
80003abc:	feb80e23          	sb	a1,-4(a6)
80003ac0:	00963813          	sltiu	a6,a2,9
80003ac4:	00184893          	xor	a7,a6,1
80003ac8:	0018a80b          	.4byte	0x18a80b
80003acc:	10088263          	beqz	a7,80003bd0 <memset+0x160>
80003ad0:	40a008b3          	neg	a7,a0
80003ad4:	0038f293          	and	t0,a7,3
80003ad8:	00550333          	add	t1,a0,t0
80003adc:	40560633          	sub	a2,a2,t0
80003ae0:	ffc67393          	and	t2,a2,-4
80003ae4:	0ff5f593          	zext.b	a1,a1
80003ae8:	01010637          	lui	a2,0x1010
80003aec:	10160613          	add	a2,a2,257 # 1010101 <__tbss_size+0x10100e1>
80003af0:	02c58633          	mul	a2,a1,a2
80003af4:	00c32023          	sw	a2,0(t1)
80003af8:	00730e33          	add	t3,t1,t2
80003afc:	fece2e23          	sw	a2,-4(t3)
80003b00:	0093b593          	sltiu	a1,t2,9
80003b04:	0015c893          	xor	a7,a1,1
80003b08:	0018a58b          	.4byte	0x18a58b
80003b0c:	0c088063          	beqz	a7,80003bcc <memset+0x15c>
80003b10:	00c32223          	sw	a2,4(t1)
80003b14:	00c32423          	sw	a2,8(t1)
80003b18:	fece2a23          	sw	a2,-12(t3)
80003b1c:	fece2c23          	sw	a2,-8(t3)
80003b20:	0193b893          	sltiu	a7,t2,25
80003b24:	0018ce93          	xor	t4,a7,1
80003b28:	001ea88b          	.4byte	0x1ea88b
80003b2c:	080e8e63          	beqz	t4,80003bc8 <memset+0x158>
80003b30:	00c32623          	sw	a2,12(t1)
80003b34:	00c32823          	sw	a2,16(t1)
80003b38:	00c32a23          	sw	a2,20(t1)
80003b3c:	00c32c23          	sw	a2,24(t1)
80003b40:	fece2223          	sw	a2,-28(t3)
80003b44:	fece2423          	sw	a2,-24(t3)
80003b48:	fece2623          	sw	a2,-20(t3)
80003b4c:	fece2823          	sw	a2,-16(t3)
80003b50:	00437e93          	and	t4,t1,4
80003b54:	018e8f13          	add	t5,t4,24
80003b58:	41e38e33          	sub	t3,t2,t5
80003b5c:	020e3e13          	sltiu	t3,t3,32
80003b60:	001e4f93          	xor	t6,t3,1
80003b64:	001fae0b          	.4byte	0x1fae0b
80003b68:	040f8e63          	beqz	t6,80003bc4 <memset+0x154>
80003b6c:	01e30333          	add	t1,t1,t5
80003b70:	41d383b3          	sub	t2,t2,t4
80003b74:	fc838393          	add	t2,t2,-56
80003b78:	fe03f393          	and	t2,t2,-32
80003b7c:	01d3e3b3          	or	t2,t2,t4
80003b80:	00a282b3          	add	t0,t0,a0
80003b84:	005382b3          	add	t0,t2,t0
80003b88:	03828293          	add	t0,t0,56
80003b8c:	cc4023f3          	csrr	t2,0xcc4
80003b90:	00c32023          	sw	a2,0(t1)
80003b94:	00c32223          	sw	a2,4(t1)
80003b98:	00c32423          	sw	a2,8(t1)
80003b9c:	00c32623          	sw	a2,12(t1)
80003ba0:	00c32823          	sw	a2,16(t1)
80003ba4:	00c32a23          	sw	a2,20(t1)
80003ba8:	00c32c23          	sw	a2,24(t1)
80003bac:	00c32e23          	sw	a2,28(t1)
80003bb0:	02030313          	add	t1,t1,32
80003bb4:	00534eb3          	xor	t4,t1,t0
80003bb8:	001ebe93          	seqz	t4,t4
80003bbc:	007ed08b          	.4byte	0x7ed08b
80003bc0:	fc0e88e3          	beqz	t4,80003b90 <memset+0x120>
80003bc4:	000e300b          	.4byte	0xe300b
80003bc8:	0008b00b          	.4byte	0x8b00b
80003bcc:	0005b00b          	.4byte	0x5b00b
80003bd0:	0008300b          	.4byte	0x8300b
80003bd4:	0007b00b          	.4byte	0x7b00b
80003bd8:	0007300b          	.4byte	0x7300b
80003bdc:	0006b00b          	.4byte	0x6b00b
80003be0:	00008067          	ret

80003be4 <__adddf3>:
80003be4:	fb010113          	add	sp,sp,-80
80003be8:	04112623          	sw	ra,76(sp)
80003bec:	04812423          	sw	s0,72(sp)
80003bf0:	04912223          	sw	s1,68(sp)
80003bf4:	05212023          	sw	s2,64(sp)
80003bf8:	03312e23          	sw	s3,60(sp)
80003bfc:	03412c23          	sw	s4,56(sp)
80003c00:	03512a23          	sw	s5,52(sp)
80003c04:	03612823          	sw	s6,48(sp)
80003c08:	03712623          	sw	s7,44(sp)
80003c0c:	03812423          	sw	s8,40(sp)
80003c10:	03912223          	sw	s9,36(sp)
80003c14:	03a12023          	sw	s10,32(sp)
80003c18:	01b12e23          	sw	s11,28(sp)
80003c1c:	00068993          	mv	s3,a3
80003c20:	00060913          	mv	s2,a2
80003c24:	00058493          	mv	s1,a1
80003c28:	00050413          	mv	s0,a0
80003c2c:	00000b93          	li	s7,0
80003c30:	00000d13          	li	s10,0
80003c34:	00000093          	li	ra,0
80003c38:	00000c13          	li	s8,0
80003c3c:	80000537          	lui	a0,0x80000
80003c40:	fff50513          	add	a0,a0,-1 # 7fffffff <__tbss_size+0x7fffffdf>
80003c44:	00a5f5b3          	and	a1,a1,a0
80003c48:	00a6fb33          	and	s6,a3,a0
80003c4c:	80100537          	lui	a0,0x80100
80003c50:	00a58633          	add	a2,a1,a0
80003c54:	00a63633          	sltu	a2,a2,a0
80003c58:	0eb656b3          	.4byte	0xeb656b3
80003c5c:	00143613          	seqz	a2,s0
80003c60:	0eb67733          	.4byte	0xeb67733
80003c64:	00d766b3          	or	a3,a4,a3
80003c68:	00ab0733          	add	a4,s6,a0
80003c6c:	00a73533          	sltu	a0,a4,a0
80003c70:	0f655533          	.4byte	0xf655533
80003c74:	00193713          	seqz	a4,s2
80003c78:	0f6777b3          	.4byte	0xf6777b3
80003c7c:	00a7e533          	or	a0,a5,a0
80003c80:	00a6e7b3          	or	a5,a3,a0
80003c84:	0017a50b          	.4byte	0x17a50b
80003c88:	00100693          	li	a3,1
80003c8c:	10078063          	beqz	a5,80003d8c <__adddf3+0x1a8>
80003c90:	00000693          	li	a3,0
80003c94:	00000b93          	li	s7,0
80003c98:	00000d13          	li	s10,0
80003c9c:	00000093          	li	ra,0
80003ca0:	7ff007b7          	lui	a5,0x7ff00
80003ca4:	00f5c833          	xor	a6,a1,a5
80003ca8:	0f067633          	.4byte	0xf067633
80003cac:	0145d893          	srl	a7,a1,0x14
80003cb0:	7ff8b893          	sltiu	a7,a7,2047
80003cb4:	0f08d833          	.4byte	0xf08d833
80003cb8:	01066833          	or	a6,a2,a6
80003cbc:	0018260b          	.4byte	0x18260b
80003cc0:	00100c13          	li	s8,1
80003cc4:	0c080263          	beqz	a6,80003d88 <__adddf3+0x1a4>
80003cc8:	00000693          	li	a3,0
80003ccc:	00000b93          	li	s7,0
80003cd0:	00000d13          	li	s10,0
80003cd4:	00fb47b3          	xor	a5,s6,a5
80003cd8:	0ef77733          	.4byte	0xef77733
80003cdc:	014b5813          	srl	a6,s6,0x14
80003ce0:	7ff83813          	sltiu	a6,a6,2047
80003ce4:	0ef857b3          	.4byte	0xef857b3
80003ce8:	00f767b3          	or	a5,a4,a5
80003cec:	0017a70b          	.4byte	0x17a70b
80003cf0:	00100093          	li	ra,1
80003cf4:	08078663          	beqz	a5,80003d80 <__adddf3+0x19c>
80003cf8:	00000693          	li	a3,0
80003cfc:	00000b93          	li	s7,0
80003d00:	7ff00837          	lui	a6,0x7ff00
80003d04:	0105c7b3          	xor	a5,a1,a6
80003d08:	00f467b3          	or	a5,s0,a5
80003d0c:	00f038b3          	snez	a7,a5
80003d10:	0018a78b          	.4byte	0x18a78b
80003d14:	00100d13          	li	s10,1
80003d18:	06088063          	beqz	a7,80003d78 <__adddf3+0x194>
80003d1c:	00000693          	li	a3,0
80003d20:	00000b93          	li	s7,0
80003d24:	010b4833          	xor	a6,s6,a6
80003d28:	01096833          	or	a6,s2,a6
80003d2c:	010038b3          	snez	a7,a6
80003d30:	0018a80b          	.4byte	0x18a80b
80003d34:	00090a13          	mv	s4,s2
80003d38:	00098a93          	mv	s5,s3
80003d3c:	02088a63          	beqz	a7,80003d70 <__adddf3+0x18c>
80003d40:	00000693          	li	a3,0
80003d44:	00b468b3          	or	a7,s0,a1
80003d48:	011032b3          	snez	t0,a7
80003d4c:	0012a88b          	.4byte	0x12a88b
80003d50:	00100b93          	li	s7,1
80003d54:	00028c63          	beqz	t0,80003d6c <__adddf3+0x188>
80003d58:	00000b93          	li	s7,0
80003d5c:	016966b3          	or	a3,s2,s6
80003d60:	00d036b3          	snez	a3,a3
80003d64:	00040a13          	mv	s4,s0
80003d68:	00048a93          	mv	s5,s1
80003d6c:	0008b00b          	.4byte	0x8b00b
80003d70:	0008300b          	.4byte	0x8300b
80003d74:	00000d13          	li	s10,0
80003d78:	0007b00b          	.4byte	0x7b00b
80003d7c:	00000093          	li	ra,0
80003d80:	0007300b          	.4byte	0x7300b
80003d84:	00000c13          	li	s8,0
80003d88:	0006300b          	.4byte	0x6300b
80003d8c:	0005300b          	.4byte	0x5300b
80003d90:	0016a50b          	.4byte	0x16a50b
80003d94:	0099ccb3          	xor	s9,s3,s1
80003d98:	0a068ae3          	beqz	a3,8000464c <__adddf3+0xa68>
80003d9c:	00a12c23          	sw	a0,24(sp)
80003da0:	00100537          	lui	a0,0x100
80003da4:	fff50513          	add	a0,a0,-1 # fffff <__tbss_size+0xfffdf>
80003da8:	00bb4633          	xor	a2,s6,a1
80003dac:	0165b5b3          	sltu	a1,a1,s6
80003db0:	0ec5d5b3          	.4byte	0xec5d5b3
80003db4:	012436b3          	sltu	a3,s0,s2
80003db8:	0ec6f633          	.4byte	0xec6f633
80003dbc:	00b665b3          	or	a1,a2,a1
80003dc0:	0eb97633          	.4byte	0xeb97633
80003dc4:	0eb457b3          	.4byte	0xeb457b3
80003dc8:	00c7e7b3          	or	a5,a5,a2
80003dcc:	0eb9f633          	.4byte	0xeb9f633
80003dd0:	0eb4d6b3          	.4byte	0xeb4d6b3
80003dd4:	00c6e8b3          	or	a7,a3,a2
80003dd8:	0eb47633          	.4byte	0xeb47633
80003ddc:	0eb956b3          	.4byte	0xeb956b3
80003de0:	00c6e6b3          	or	a3,a3,a2
80003de4:	0eb4f633          	.4byte	0xeb4f633
80003de8:	0eb9d733          	.4byte	0xeb9d733
80003dec:	00c76733          	or	a4,a4,a2
80003df0:	00171613          	sll	a2,a4,0x1
80003df4:	01565613          	srl	a2,a2,0x15
80003df8:	00189293          	sll	t0,a7,0x1
80003dfc:	00a77833          	and	a6,a4,a0
80003e00:	00163593          	seqz	a1,a2
80003e04:	0015a30b          	.4byte	0x15a30b
80003e08:	16058463          	beqz	a1,80003f70 <__adddf3+0x38c>
80003e0c:	01003e33          	snez	t3,a6
80003e10:	001e258b          	.4byte	0x1e258b
80003e14:	00100613          	li	a2,1
80003e18:	080e0263          	beqz	t3,80003e9c <__adddf3+0x2b8>
80003e1c:	00000613          	li	a2,0
80003e20:	00185393          	srl	t2,a6,0x1
80003e24:	007863b3          	or	t2,a6,t2
80003e28:	0023de13          	srl	t3,t2,0x2
80003e2c:	01c3e3b3          	or	t2,t2,t3
80003e30:	0043de13          	srl	t3,t2,0x4
80003e34:	01c3e3b3          	or	t2,t2,t3
80003e38:	0083de13          	srl	t3,t2,0x8
80003e3c:	01c3e3b3          	or	t2,t2,t3
80003e40:	0103de13          	srl	t3,t2,0x10
80003e44:	01c3e3b3          	or	t2,t2,t3
80003e48:	fff3c393          	not	t2,t2
80003e4c:	0013de13          	srl	t3,t2,0x1
80003e50:	55555eb7          	lui	t4,0x55555
80003e54:	555e8e93          	add	t4,t4,1365 # 55555555 <__tbss_size+0x55555535>
80003e58:	01de7e33          	and	t3,t3,t4
80003e5c:	41c383b3          	sub	t2,t2,t3
80003e60:	33333e37          	lui	t3,0x33333
80003e64:	333e0e13          	add	t3,t3,819 # 33333333 <__tbss_size+0x33333313>
80003e68:	01c3feb3          	and	t4,t2,t3
80003e6c:	0023d393          	srl	t2,t2,0x2
80003e70:	01c3f3b3          	and	t2,t2,t3
80003e74:	007e83b3          	add	t2,t4,t2
80003e78:	0043de13          	srl	t3,t2,0x4
80003e7c:	01c383b3          	add	t2,t2,t3
80003e80:	0f0f1e37          	lui	t3,0xf0f1
80003e84:	f0fe0e13          	add	t3,t3,-241 # f0f0f0f <__tbss_size+0xf0f0eef>
80003e88:	01c3f3b3          	and	t2,t2,t3
80003e8c:	01010e37          	lui	t3,0x1010
80003e90:	101e0e13          	add	t3,t3,257 # 1010101 <__tbss_size+0x10100e1>
80003e94:	03c383b3          	mul	t2,t2,t3
80003e98:	0183d393          	srl	t2,t2,0x18
80003e9c:	0005b00b          	.4byte	0x5b00b
80003ea0:	0016258b          	.4byte	0x16258b
80003ea4:	08060263          	beqz	a2,80003f28 <__adddf3+0x344>
80003ea8:	0016d613          	srl	a2,a3,0x1
80003eac:	00c6e633          	or	a2,a3,a2
80003eb0:	00265393          	srl	t2,a2,0x2
80003eb4:	00766633          	or	a2,a2,t2
80003eb8:	00465393          	srl	t2,a2,0x4
80003ebc:	00766633          	or	a2,a2,t2
80003ec0:	00865393          	srl	t2,a2,0x8
80003ec4:	00766633          	or	a2,a2,t2
80003ec8:	01065393          	srl	t2,a2,0x10
80003ecc:	00766633          	or	a2,a2,t2
80003ed0:	fff64613          	not	a2,a2
80003ed4:	00165393          	srl	t2,a2,0x1
80003ed8:	55555e37          	lui	t3,0x55555
80003edc:	555e0e13          	add	t3,t3,1365 # 55555555 <__tbss_size+0x55555535>
80003ee0:	01c3f3b3          	and	t2,t2,t3
80003ee4:	40760633          	sub	a2,a2,t2
80003ee8:	333333b7          	lui	t2,0x33333
80003eec:	33338393          	add	t2,t2,819 # 33333333 <__tbss_size+0x33333313>
80003ef0:	00767e33          	and	t3,a2,t2
80003ef4:	00265613          	srl	a2,a2,0x2
80003ef8:	00767633          	and	a2,a2,t2
80003efc:	00ce0633          	add	a2,t3,a2
80003f00:	00465393          	srl	t2,a2,0x4
80003f04:	00760633          	add	a2,a2,t2
80003f08:	0f0f13b7          	lui	t2,0xf0f1
80003f0c:	f0f38393          	add	t2,t2,-241 # f0f0f0f <__tbss_size+0xf0f0eef>
80003f10:	00767633          	and	a2,a2,t2
80003f14:	010103b7          	lui	t2,0x1010
80003f18:	10138393          	add	t2,t2,257 # 1010101 <__tbss_size+0x10100e1>
80003f1c:	02760633          	mul	a2,a2,t2
80003f20:	01865613          	srl	a2,a2,0x18
80003f24:	02066393          	or	t2,a2,32
80003f28:	0005b00b          	.4byte	0x5b00b
80003f2c:	ff538593          	add	a1,t2,-11
80003f30:	02a00613          	li	a2,42
80003f34:	40760633          	sub	a2,a2,t2
80003f38:	0016de13          	srl	t3,a3,0x1
80003f3c:	00ce5633          	srl	a2,t3,a2
80003f40:	00b81833          	sll	a6,a6,a1
80003f44:	00c86633          	or	a2,a6,a2
80003f48:	fd538813          	add	a6,t2,-43
80003f4c:	00082e13          	slti	t3,a6,0
80003f50:	0fc65633          	.4byte	0xfc65633
80003f54:	01069833          	sll	a6,a3,a6
80003f58:	0fc87833          	.4byte	0xfc87833
80003f5c:	01066833          	or	a6,a2,a6
80003f60:	00b695b3          	sll	a1,a3,a1
80003f64:	0fc5d6b3          	.4byte	0xfc5d6b3
80003f68:	00c00593          	li	a1,12
80003f6c:	40758633          	sub	a2,a1,t2
80003f70:	fff00593          	li	a1,-1
80003f74:	0152de93          	srl	t4,t0,0x15
80003f78:	00a8f8b3          	and	a7,a7,a0
80003f7c:	0003300b          	.4byte	0x3300b
80003f80:	001eb313          	seqz	t1,t4
80003f84:	0013228b          	.4byte	0x13228b
80003f88:	16030463          	beqz	t1,800040f0 <__adddf3+0x50c>
80003f8c:	01103eb3          	snez	t4,a7
80003f90:	001ea30b          	.4byte	0x1ea30b
80003f94:	00100393          	li	t2,1
80003f98:	080e8263          	beqz	t4,8000401c <__adddf3+0x438>
80003f9c:	00000393          	li	t2,0
80003fa0:	0018de13          	srl	t3,a7,0x1
80003fa4:	01c8ee33          	or	t3,a7,t3
80003fa8:	002e5e93          	srl	t4,t3,0x2
80003fac:	01de6e33          	or	t3,t3,t4
80003fb0:	004e5e93          	srl	t4,t3,0x4
80003fb4:	01de6e33          	or	t3,t3,t4
80003fb8:	008e5e93          	srl	t4,t3,0x8
80003fbc:	01de6e33          	or	t3,t3,t4
80003fc0:	010e5e93          	srl	t4,t3,0x10
80003fc4:	01de6e33          	or	t3,t3,t4
80003fc8:	fffe4e13          	not	t3,t3
80003fcc:	001e5e93          	srl	t4,t3,0x1
80003fd0:	55555f37          	lui	t5,0x55555
80003fd4:	555f0f13          	add	t5,t5,1365 # 55555555 <__tbss_size+0x55555535>
80003fd8:	01eefeb3          	and	t4,t4,t5
80003fdc:	41de0e33          	sub	t3,t3,t4
80003fe0:	33333eb7          	lui	t4,0x33333
80003fe4:	333e8e93          	add	t4,t4,819 # 33333333 <__tbss_size+0x33333313>
80003fe8:	01de7f33          	and	t5,t3,t4
80003fec:	002e5e13          	srl	t3,t3,0x2
80003ff0:	01de7e33          	and	t3,t3,t4
80003ff4:	01cf0e33          	add	t3,t5,t3
80003ff8:	004e5e93          	srl	t4,t3,0x4
80003ffc:	01de0e33          	add	t3,t3,t4
80004000:	0f0f1eb7          	lui	t4,0xf0f1
80004004:	f0fe8e93          	add	t4,t4,-241 # f0f0f0f <__tbss_size+0xf0f0eef>
80004008:	01de7e33          	and	t3,t3,t4
8000400c:	01010eb7          	lui	t4,0x1010
80004010:	101e8e93          	add	t4,t4,257 # 1010101 <__tbss_size+0x10100e1>
80004014:	03de0e33          	mul	t3,t3,t4
80004018:	018e5e13          	srl	t3,t3,0x18
8000401c:	0003300b          	.4byte	0x3300b
80004020:	0013a30b          	.4byte	0x13a30b
80004024:	08038263          	beqz	t2,800040a8 <__adddf3+0x4c4>
80004028:	0017d393          	srl	t2,a5,0x1
8000402c:	0077e3b3          	or	t2,a5,t2
80004030:	0023de13          	srl	t3,t2,0x2
80004034:	01c3e3b3          	or	t2,t2,t3
80004038:	0043de13          	srl	t3,t2,0x4
8000403c:	01c3e3b3          	or	t2,t2,t3
80004040:	0083de13          	srl	t3,t2,0x8
80004044:	01c3e3b3          	or	t2,t2,t3
80004048:	0103de13          	srl	t3,t2,0x10
8000404c:	01c3e3b3          	or	t2,t2,t3
80004050:	fff3c393          	not	t2,t2
80004054:	0013de13          	srl	t3,t2,0x1
80004058:	55555eb7          	lui	t4,0x55555
8000405c:	555e8e93          	add	t4,t4,1365 # 55555555 <__tbss_size+0x55555535>
80004060:	01de7e33          	and	t3,t3,t4
80004064:	41c383b3          	sub	t2,t2,t3
80004068:	33333e37          	lui	t3,0x33333
8000406c:	333e0e13          	add	t3,t3,819 # 33333333 <__tbss_size+0x33333313>
80004070:	01c3feb3          	and	t4,t2,t3
80004074:	0023d393          	srl	t2,t2,0x2
80004078:	01c3f3b3          	and	t2,t2,t3
8000407c:	007e83b3          	add	t2,t4,t2
80004080:	0043de13          	srl	t3,t2,0x4
80004084:	01c383b3          	add	t2,t2,t3
80004088:	0f0f1e37          	lui	t3,0xf0f1
8000408c:	f0fe0e13          	add	t3,t3,-241 # f0f0f0f <__tbss_size+0xf0f0eef>
80004090:	01c3f3b3          	and	t2,t2,t3
80004094:	01010e37          	lui	t3,0x1010
80004098:	101e0e13          	add	t3,t3,257 # 1010101 <__tbss_size+0x10100e1>
8000409c:	03c383b3          	mul	t2,t2,t3
800040a0:	0183d393          	srl	t2,t2,0x18
800040a4:	0203ee13          	or	t3,t2,32
800040a8:	0003300b          	.4byte	0x3300b
800040ac:	ff5e0313          	add	t1,t3,-11
800040b0:	02a00393          	li	t2,42
800040b4:	41c383b3          	sub	t2,t2,t3
800040b8:	0017de93          	srl	t4,a5,0x1
800040bc:	007ed3b3          	srl	t2,t4,t2
800040c0:	006898b3          	sll	a7,a7,t1
800040c4:	0078e8b3          	or	a7,a7,t2
800040c8:	fd5e0393          	add	t2,t3,-43
800040cc:	0003ae93          	slti	t4,t2,0
800040d0:	0fd8d8b3          	.4byte	0xfd8d8b3
800040d4:	007793b3          	sll	t2,a5,t2
800040d8:	0fd3f3b3          	.4byte	0xfd3f3b3
800040dc:	0078e8b3          	or	a7,a7,t2
800040e0:	006797b3          	sll	a5,a5,t1
800040e4:	0fd7d7b3          	.4byte	0xfd7d7b3
800040e8:	00c00313          	li	t1,12
800040ec:	41c30eb3          	sub	t4,t1,t3
800040f0:	0002b00b          	.4byte	0x2b00b
800040f4:	800002b7          	lui	t0,0x80000
800040f8:	01d6d313          	srl	t1,a3,0x1d
800040fc:	00381813          	sll	a6,a6,0x3
80004100:	00686333          	or	t1,a6,t1
80004104:	008003b7          	lui	t2,0x800
80004108:	01d7de13          	srl	t3,a5,0x1d
8000410c:	00389893          	sll	a7,a7,0x3
80004110:	00379813          	sll	a6,a5,0x3
80004114:	007e67b3          	or	a5,t3,t2
80004118:	00f8e7b3          	or	a5,a7,a5
8000411c:	01d648b3          	xor	a7,a2,t4
80004120:	011038b3          	snez	a7,a7
80004124:	0018ae0b          	.4byte	0x18ae0b
80004128:	0a088c63          	beqz	a7,800041e0 <__adddf3+0x5fc>
8000412c:	00000f13          	li	t5,0
80004130:	41d60eb3          	sub	t4,a2,t4
80004134:	040eba13          	sltiu	s4,t4,64
80004138:	001a288b          	.4byte	0x1a288b
8000413c:	00100f93          	li	t6,1
80004140:	080a0a63          	beqz	s4,800041d4 <__adddf3+0x5f0>
80004144:	04000f13          	li	t5,64
80004148:	41df0f33          	sub	t5,t5,t4
8000414c:	41d00fb3          	neg	t6,t4
80004150:	01f81a33          	sll	s4,a6,t6
80004154:	02000a93          	li	s5,32
80004158:	41da8ab3          	sub	s5,s5,t4
8000415c:	000aaa93          	slti	s5,s5,0
80004160:	000c0d93          	mv	s11,s8
80004164:	0f5a7c33          	.4byte	0xf5a7c33
80004168:	01f79fb3          	sll	t6,a5,t6
8000416c:	ffff4f13          	not	t5,t5
80004170:	000c8593          	mv	a1,s9
80004174:	00185c93          	srl	s9,a6,0x1
80004178:	01ecdf33          	srl	t5,s9,t5
8000417c:	00058c93          	mv	s9,a1
80004180:	fff00593          	li	a1,-1
80004184:	01efef33          	or	t5,t6,t5
80004188:	0f5f5f33          	.4byte	0xf5f5f33
8000418c:	0f5a5fb3          	.4byte	0xf5a5fb3
80004190:	018fefb3          	or	t6,t6,s8
80004194:	000d8c13          	mv	s8,s11
80004198:	01efef33          	or	t5,t6,t5
8000419c:	01e03fb3          	snez	t6,t5
800041a0:	01d85833          	srl	a6,a6,t4
800041a4:	fffecf13          	not	t5,t4
800041a8:	00179a13          	sll	s4,a5,0x1
800041ac:	01ea1f33          	sll	t5,s4,t5
800041b0:	01e86833          	or	a6,a6,t5
800041b4:	fe0e8f13          	add	t5,t4,-32
800041b8:	000f2f13          	slti	t5,t5,0
800041bc:	0fe85833          	.4byte	0xfe85833
800041c0:	01d7d7b3          	srl	a5,a5,t4
800041c4:	0fe7feb3          	.4byte	0xfe7feb3
800041c8:	01d86833          	or	a6,a6,t4
800041cc:	0fe7df33          	.4byte	0xfe7df33
800041d0:	01f86fb3          	or	t6,a6,t6
800041d4:	0008b00b          	.4byte	0x8b00b
800041d8:	000f8813          	mv	a6,t6
800041dc:	000f0793          	mv	a5,t5
800041e0:	00577fb3          	and	t6,a4,t0
800041e4:	00369293          	sll	t0,a3,0x3
800041e8:	007368b3          	or	a7,t1,t2
800041ec:	000e300b          	.4byte	0xe300b
800041f0:	00000e13          	li	t3,0
800041f4:	01fcdf13          	srl	t5,s9,0x1f
800041f8:	001f230b          	.4byte	0x1f230b
800041fc:	00100393          	li	t2,1
80004200:	1c0f0063          	beqz	t5,800043c0 <__adddf3+0x7dc>
80004204:	00000e13          	li	t3,0
80004208:	0102c6b3          	xor	a3,t0,a6
8000420c:	00f8c733          	xor	a4,a7,a5
80004210:	00e6e6b3          	or	a3,a3,a4
80004214:	00d03f33          	snez	t5,a3
80004218:	001f238b          	.4byte	0x1f238b
8000421c:	180f0a63          	beqz	t5,800043b0 <__adddf3+0x7cc>
80004220:	0102b6b3          	sltu	a3,t0,a6
80004224:	40f88733          	sub	a4,a7,a5
80004228:	40d706b3          	sub	a3,a4,a3
8000422c:	41028733          	sub	a4,t0,a6
80004230:	0176de13          	srl	t3,a3,0x17
80004234:	001e3f13          	seqz	t5,t3
80004238:	001f2e0b          	.4byte	0x1f2e0b
8000423c:	00060e93          	mv	t4,a2
80004240:	160f0463          	beqz	t5,800043a8 <__adddf3+0x7c4>
80004244:	000f8d93          	mv	s11,t6
80004248:	00d03fb3          	snez	t6,a3
8000424c:	001fae8b          	.4byte	0x1fae8b
80004250:	00100f13          	li	t5,1
80004254:	080f8263          	beqz	t6,800042d8 <__adddf3+0x6f4>
80004258:	00000f13          	li	t5,0
8000425c:	0016df93          	srl	t6,a3,0x1
80004260:	01f6efb3          	or	t6,a3,t6
80004264:	002fda13          	srl	s4,t6,0x2
80004268:	014fefb3          	or	t6,t6,s4
8000426c:	004fda13          	srl	s4,t6,0x4
80004270:	014fefb3          	or	t6,t6,s4
80004274:	008fda13          	srl	s4,t6,0x8
80004278:	014fefb3          	or	t6,t6,s4
8000427c:	010fda13          	srl	s4,t6,0x10
80004280:	014fefb3          	or	t6,t6,s4
80004284:	ffffcf93          	not	t6,t6
80004288:	001fda13          	srl	s4,t6,0x1
8000428c:	55555ab7          	lui	s5,0x55555
80004290:	555a8a93          	add	s5,s5,1365 # 55555555 <__tbss_size+0x55555535>
80004294:	015a7a33          	and	s4,s4,s5
80004298:	414f8fb3          	sub	t6,t6,s4
8000429c:	33333a37          	lui	s4,0x33333
800042a0:	333a0a13          	add	s4,s4,819 # 33333333 <__tbss_size+0x33333313>
800042a4:	014ffab3          	and	s5,t6,s4
800042a8:	002fdf93          	srl	t6,t6,0x2
800042ac:	014fffb3          	and	t6,t6,s4
800042b0:	01fa8fb3          	add	t6,s5,t6
800042b4:	004fda13          	srl	s4,t6,0x4
800042b8:	014f8fb3          	add	t6,t6,s4
800042bc:	0f0f1a37          	lui	s4,0xf0f1
800042c0:	f0fa0a13          	add	s4,s4,-241 # f0f0f0f <__tbss_size+0xf0f0eef>
800042c4:	014fffb3          	and	t6,t6,s4
800042c8:	01010a37          	lui	s4,0x1010
800042cc:	101a0a13          	add	s4,s4,257 # 1010101 <__tbss_size+0x10100e1>
800042d0:	034f8fb3          	mul	t6,t6,s4
800042d4:	018fda13          	srl	s4,t6,0x18
800042d8:	000eb00b          	.4byte	0xeb00b
800042dc:	001f2f8b          	.4byte	0x1f2f8b
800042e0:	00175e93          	srl	t4,a4,0x1
800042e4:	080f0063          	beqz	t5,80004364 <__adddf3+0x780>
800042e8:	01d76f33          	or	t5,a4,t4
800042ec:	002f5a13          	srl	s4,t5,0x2
800042f0:	014f6f33          	or	t5,t5,s4
800042f4:	004f5a13          	srl	s4,t5,0x4
800042f8:	014f6f33          	or	t5,t5,s4
800042fc:	008f5a13          	srl	s4,t5,0x8
80004300:	014f6f33          	or	t5,t5,s4
80004304:	010f5a13          	srl	s4,t5,0x10
80004308:	014f6f33          	or	t5,t5,s4
8000430c:	ffff4f13          	not	t5,t5
80004310:	001f5a13          	srl	s4,t5,0x1
80004314:	55555ab7          	lui	s5,0x55555
80004318:	555a8a93          	add	s5,s5,1365 # 55555555 <__tbss_size+0x55555535>
8000431c:	015a7a33          	and	s4,s4,s5
80004320:	414f0f33          	sub	t5,t5,s4
80004324:	33333a37          	lui	s4,0x33333
80004328:	333a0a13          	add	s4,s4,819 # 33333333 <__tbss_size+0x33333313>
8000432c:	014f7ab3          	and	s5,t5,s4
80004330:	002f5f13          	srl	t5,t5,0x2
80004334:	014f7f33          	and	t5,t5,s4
80004338:	01ea8f33          	add	t5,s5,t5
8000433c:	004f5a13          	srl	s4,t5,0x4
80004340:	014f0f33          	add	t5,t5,s4
80004344:	0f0f1a37          	lui	s4,0xf0f1
80004348:	f0fa0a13          	add	s4,s4,-241 # f0f0f0f <__tbss_size+0xf0f0eef>
8000434c:	014f7f33          	and	t5,t5,s4
80004350:	01010a37          	lui	s4,0x1010
80004354:	101a0a13          	add	s4,s4,257 # 1010101 <__tbss_size+0x10100e1>
80004358:	034f0f33          	mul	t5,t5,s4
8000435c:	018f5f13          	srl	t5,t5,0x18
80004360:	020f6a13          	or	s4,t5,32
80004364:	000fb00b          	.4byte	0xfb00b
80004368:	ff8a0f13          	add	t5,s4,-8
8000436c:	02700f93          	li	t6,39
80004370:	414f8fb3          	sub	t6,t6,s4
80004374:	01fedeb3          	srl	t4,t4,t6
80004378:	01e696b3          	sll	a3,a3,t5
8000437c:	01d6e6b3          	or	a3,a3,t4
80004380:	fd8a0e93          	add	t4,s4,-40
80004384:	000eaf93          	slti	t6,t4,0
80004388:	0ff6d6b3          	.4byte	0xff6d6b3
8000438c:	01d71eb3          	sll	t4,a4,t4
80004390:	0ffefeb3          	.4byte	0xffefeb3
80004394:	01d6e6b3          	or	a3,a3,t4
80004398:	01e71733          	sll	a4,a4,t5
8000439c:	0ff75733          	.4byte	0xff75733
800043a0:	41e60eb3          	sub	t4,a2,t5
800043a4:	000d8f93          	mv	t6,s11
800043a8:	000e300b          	.4byte	0xe300b
800043ac:	00100e13          	li	t3,1
800043b0:	0003b00b          	.4byte	0x3b00b
800043b4:	00000393          	li	t2,0
800043b8:	00000a13          	li	s4,0
800043bc:	00000a93          	li	s5,0
800043c0:	0003300b          	.4byte	0x3300b
800043c4:	0013a30b          	.4byte	0x13a30b
800043c8:	04038663          	beqz	t2,80004414 <__adddf3+0x830>
800043cc:	005802b3          	add	t0,a6,t0
800043d0:	0102b6b3          	sltu	a3,t0,a6
800043d4:	011787b3          	add	a5,a5,a7
800043d8:	00d786b3          	add	a3,a5,a3
800043dc:	01000737          	lui	a4,0x1000
800043e0:	00e6f733          	and	a4,a3,a4
800043e4:	00187793          	and	a5,a6,1
800043e8:	01f69813          	sll	a6,a3,0x1f
800043ec:	0012d893          	srl	a7,t0,0x1
800043f0:	00f8e7b3          	or	a5,a7,a5
800043f4:	0107e7b3          	or	a5,a5,a6
800043f8:	01875e93          	srl	t4,a4,0x18
800043fc:	01d6d6b3          	srl	a3,a3,t4
80004400:	0ee7d7b3          	.4byte	0xee7d7b3
80004404:	0ee2f733          	.4byte	0xee2f733
80004408:	00f76733          	or	a4,a4,a5
8000440c:	01d60eb3          	add	t4,a2,t4
80004410:	00100e13          	li	t3,1
80004414:	0003300b          	.4byte	0x3300b
80004418:	001e2d8b          	.4byte	0x1e2d8b
8000441c:	220e0463          	beqz	t3,80004644 <__adddf3+0xa60>
80004420:	7ffea793          	slti	a5,t4,2047
80004424:	0017a60b          	.4byte	0x17a60b
80004428:	00c12a23          	sw	a2,20(sp)
8000442c:	00100613          	li	a2,1
80004430:	1e078a63          	beqz	a5,80004624 <__adddf3+0xa40>
80004434:	001ea793          	slti	a5,t4,1
80004438:	0017a60b          	.4byte	0x17a60b
8000443c:	08078663          	beqz	a5,800044c8 <__adddf3+0x8e4>
80004440:	00100793          	li	a5,1
80004444:	41d787b3          	sub	a5,a5,t4
80004448:	03fe8813          	add	a6,t4,63
8000444c:	41d008b3          	neg	a7,t4
80004450:	00175293          	srl	t0,a4,0x1
80004454:	0112d8b3          	srl	a7,t0,a7
80004458:	010692b3          	sll	t0,a3,a6
8000445c:	0112e8b3          	or	a7,t0,a7
80004460:	01fe8293          	add	t0,t4,31
80004464:	0002a313          	slti	t1,t0,0
80004468:	0e68d8b3          	.4byte	0xe68d8b3
8000446c:	005712b3          	sll	t0,a4,t0
80004470:	0e62f2b3          	.4byte	0xe62f2b3
80004474:	01071833          	sll	a6,a4,a6
80004478:	0e685833          	.4byte	0xe685833
8000447c:	00586833          	or	a6,a6,t0
80004480:	01186833          	or	a6,a6,a7
80004484:	01003833          	snez	a6,a6
80004488:	fe100893          	li	a7,-31
8000448c:	41d888b3          	sub	a7,a7,t4
80004490:	0116d2b3          	srl	t0,a3,a7
80004494:	0008a893          	slti	a7,a7,0
80004498:	0f12f2b3          	.4byte	0xf12f2b3
8000449c:	00f75733          	srl	a4,a4,a5
800044a0:	fff7c313          	not	t1,a5
800044a4:	00169393          	sll	t2,a3,0x1
800044a8:	00639333          	sll	t1,t2,t1
800044ac:	00676733          	or	a4,a4,t1
800044b0:	0f175733          	.4byte	0xf175733
800044b4:	00576733          	or	a4,a4,t0
800044b8:	00f6d6b3          	srl	a3,a3,a5
800044bc:	0f16d6b3          	.4byte	0xf16d6b3
800044c0:	01076733          	or	a4,a4,a6
800044c4:	00000e93          	li	t4,0
800044c8:	01712023          	sw	s7,0(sp)
800044cc:	01912223          	sw	s9,4(sp)
800044d0:	01812423          	sw	s8,8(sp)
800044d4:	00112823          	sw	ra,16(sp)
800044d8:	01a12623          	sw	s10,12(sp)
800044dc:	0006300b          	.4byte	0x6300b
800044e0:	00777d13          	and	s10,a4,7
800044e4:	00375713          	srl	a4,a4,0x3
800044e8:	01d69613          	sll	a2,a3,0x1d
800044ec:	00c76633          	or	a2,a4,a2
800044f0:	0036d693          	srl	a3,a3,0x3
800044f4:	00b67c33          	and	s8,a2,a1
800044f8:	00a6f533          	and	a0,a3,a0
800044fc:	014e9e93          	sll	t4,t4,0x14
80004500:	00aee533          	or	a0,t4,a0
80004504:	01f56cb3          	or	s9,a0,t6
80004508:	000f8b93          	mv	s7,t6
8000450c:	10c020ef          	jal	80006618 <__fe_getround>
80004510:	000b8f93          	mv	t6,s7
80004514:	00a026b3          	sgtz	a3,a0
80004518:	0016a58b          	.4byte	0x16a58b
8000451c:	00100613          	li	a2,1
80004520:	06068e63          	beqz	a3,8000459c <__adddf3+0x9b8>
80004524:	00252613          	slti	a2,a0,2
80004528:	00164713          	xor	a4,a2,1
8000452c:	0017260b          	.4byte	0x17260b
80004530:	00100693          	li	a3,1
80004534:	02070e63          	beqz	a4,80004570 <__adddf3+0x98c>
80004538:	ffe50693          	add	a3,a0,-2
8000453c:	0016b713          	seqz	a4,a3
80004540:	0017268b          	.4byte	0x17268b
80004544:	000c0a13          	mv	s4,s8
80004548:	000c8a93          	mv	s5,s9
8000454c:	00070e63          	beqz	a4,80004568 <__adddf3+0x984>
80004550:	001fb713          	seqz	a4,t6
80004554:	01a037b3          	snez	a5,s10
80004558:	00f77733          	and	a4,a4,a5
8000455c:	00ec0a33          	add	s4,s8,a4
80004560:	018a3ab3          	sltu	s5,s4,s8
80004564:	015c8ab3          	add	s5,s9,s5
80004568:	0006b00b          	.4byte	0x6b00b
8000456c:	00000693          	li	a3,0
80004570:	0006300b          	.4byte	0x6300b
80004574:	0016a60b          	.4byte	0x16a60b
80004578:	00068e63          	beqz	a3,80004594 <__adddf3+0x9b0>
8000457c:	01f036b3          	snez	a3,t6
80004580:	01a03733          	snez	a4,s10
80004584:	00e6f6b3          	and	a3,a3,a4
80004588:	00dc0a33          	add	s4,s8,a3
8000458c:	018a3ab3          	sltu	s5,s4,s8
80004590:	015c8ab3          	add	s5,s9,s5
80004594:	0006300b          	.4byte	0x6300b
80004598:	00000613          	li	a2,0
8000459c:	0005b00b          	.4byte	0x5b00b
800045a0:	0016258b          	.4byte	0x16258b
800045a4:	01012083          	lw	ra,16(sp)
800045a8:	04060463          	beqz	a2,800045f0 <__adddf3+0xa0c>
800045ac:	00153613          	seqz	a2,a0
800045b0:	0016250b          	.4byte	0x16250b
800045b4:	02060863          	beqz	a2,800045e4 <__adddf3+0xa00>
800045b8:	005d3613          	sltiu	a2,s10,5
800045bc:	00164613          	xor	a2,a2,1
800045c0:	00cc0633          	add	a2,s8,a2
800045c4:	018636b3          	sltu	a3,a2,s8
800045c8:	ffcd0713          	add	a4,s10,-4
800045cc:	00173713          	seqz	a4,a4
800045d0:	00c77733          	and	a4,a4,a2
800045d4:	00c70c33          	add	s8,a4,a2
800045d8:	00ec3633          	sltu	a2,s8,a4
800045dc:	00c68633          	add	a2,a3,a2
800045e0:	00cc8cb3          	add	s9,s9,a2
800045e4:	0005300b          	.4byte	0x5300b
800045e8:	000c0a13          	mv	s4,s8
800045ec:	000c8a93          	mv	s5,s9
800045f0:	0005b00b          	.4byte	0x5b00b
800045f4:	01a03533          	snez	a0,s10
800045f8:	00152c0b          	.4byte	0x152c0b
800045fc:	00412c83          	lw	s9,4(sp)
80004600:	00050863          	beqz	a0,80004610 <__adddf3+0xa2c>
80004604:	048020ef          	jal	8000664c <__fe_raise_inexact>
80004608:	000b8f93          	mv	t6,s7
8000460c:	01012083          	lw	ra,16(sp)
80004610:	000c300b          	.4byte	0xc300b
80004614:	00c12d03          	lw	s10,12(sp)
80004618:	00000613          	li	a2,0
8000461c:	00812c03          	lw	s8,8(sp)
80004620:	00012b83          	lw	s7,0(sp)
80004624:	01412503          	lw	a0,20(sp)
80004628:	0005300b          	.4byte	0x5300b
8000462c:	0016250b          	.4byte	0x16250b
80004630:	00060863          	beqz	a2,80004640 <__adddf3+0xa5c>
80004634:	00000a13          	li	s4,0
80004638:	7ff005b7          	lui	a1,0x7ff00
8000463c:	00bfeab3          	or	s5,t6,a1
80004640:	0005300b          	.4byte	0x5300b
80004644:	000db00b          	.4byte	0xdb00b
80004648:	01812503          	lw	a0,24(sp)
8000464c:	0005300b          	.4byte	0x5300b
80004650:	001ba50b          	.4byte	0x1ba50b
80004654:	020b8463          	beqz	s7,8000467c <__adddf3+0xa98>
80004658:	016965b3          	or	a1,s2,s6
8000465c:	00897633          	and	a2,s2,s0
80004660:	0099f6b3          	and	a3,s3,s1
80004664:	0eb6f6b3          	.4byte	0xeb6f6b3
80004668:	0eb9d733          	.4byte	0xeb9d733
8000466c:	00e6eab3          	or	s5,a3,a4
80004670:	0eb67633          	.4byte	0xeb67633
80004674:	0eb955b3          	.4byte	0xeb955b3
80004678:	00b66a33          	or	s4,a2,a1
8000467c:	0005300b          	.4byte	0x5300b
80004680:	001d250b          	.4byte	0x1d250b
80004684:	020d0463          	beqz	s10,800046ac <__adddf3+0xac8>
80004688:	008945b3          	xor	a1,s2,s0
8000468c:	80000637          	lui	a2,0x80000
80004690:	00ccc633          	xor	a2,s9,a2
80004694:	00c5e5b3          	or	a1,a1,a2
80004698:	0eb4d633          	.4byte	0xeb4d633
8000469c:	7ff806b7          	lui	a3,0x7ff80
800046a0:	0eb6f6b3          	.4byte	0xeb6f6b3
800046a4:	00c6eab3          	or	s5,a3,a2
800046a8:	0eb45a33          	.4byte	0xeb45a33
800046ac:	0005300b          	.4byte	0x5300b
800046b0:	0010a50b          	.4byte	0x10a50b
800046b4:	00008863          	beqz	ra,800046c4 <__adddf3+0xae0>
800046b8:	000805b7          	lui	a1,0x80
800046bc:	00b9eab3          	or	s5,s3,a1
800046c0:	00090a13          	mv	s4,s2
800046c4:	0005300b          	.4byte	0x5300b
800046c8:	001c250b          	.4byte	0x1c250b
800046cc:	000c0863          	beqz	s8,800046dc <__adddf3+0xaf8>
800046d0:	000805b7          	lui	a1,0x80
800046d4:	00b4eab3          	or	s5,s1,a1
800046d8:	00040a13          	mv	s4,s0
800046dc:	0005300b          	.4byte	0x5300b
800046e0:	000a0513          	mv	a0,s4
800046e4:	000a8593          	mv	a1,s5
800046e8:	04c12083          	lw	ra,76(sp)
800046ec:	04812403          	lw	s0,72(sp)
800046f0:	04412483          	lw	s1,68(sp)
800046f4:	04012903          	lw	s2,64(sp)
800046f8:	03c12983          	lw	s3,60(sp)
800046fc:	03812a03          	lw	s4,56(sp)
80004700:	03412a83          	lw	s5,52(sp)
80004704:	03012b03          	lw	s6,48(sp)
80004708:	02c12b83          	lw	s7,44(sp)
8000470c:	02812c03          	lw	s8,40(sp)
80004710:	02412c83          	lw	s9,36(sp)
80004714:	02012d03          	lw	s10,32(sp)
80004718:	01c12d83          	lw	s11,28(sp)
8000471c:	05010113          	add	sp,sp,80
80004720:	00008067          	ret

80004724 <__cmpdf2>:
80004724:	80000737          	lui	a4,0x80000
80004728:	fff70713          	add	a4,a4,-1 # 7fffffff <__tbss_size+0x7fffffdf>
8000472c:	00e5f833          	and	a6,a1,a4
80004730:	00e6f8b3          	and	a7,a3,a4
80004734:	7ff00737          	lui	a4,0x7ff00
80004738:	00e847b3          	xor	a5,a6,a4
8000473c:	01485293          	srl	t0,a6,0x14
80004740:	7ff2b293          	sltiu	t0,t0,2047
80004744:	0ef2d2b3          	.4byte	0xef2d2b3
80004748:	00153313          	seqz	t1,a0
8000474c:	0ef377b3          	.4byte	0xef377b3
80004750:	0057e7b3          	or	a5,a5,t0
80004754:	00e8c733          	xor	a4,a7,a4
80004758:	0148d293          	srl	t0,a7,0x14
8000475c:	7ff2b293          	sltiu	t0,t0,2047
80004760:	0ee2d2b3          	.4byte	0xee2d2b3
80004764:	00163313          	seqz	t1,a2
80004768:	0ee37733          	.4byte	0xee37733
8000476c:	00576733          	or	a4,a4,t0
80004770:	00e7f2b3          	and	t0,a5,a4
80004774:	0012a78b          	.4byte	0x12a78b
80004778:	00100713          	li	a4,1
8000477c:	08028a63          	beqz	t0,80004810 <__cmpdf2+0xec>
80004780:	00000713          	li	a4,0
80004784:	00a662b3          	or	t0,a2,a0
80004788:	0108e833          	or	a6,a7,a6
8000478c:	0102e833          	or	a6,t0,a6
80004790:	010038b3          	snez	a7,a6
80004794:	0018a80b          	.4byte	0x18a80b
80004798:	06088a63          	beqz	a7,8000480c <__cmpdf2+0xe8>
8000479c:	00b6f733          	and	a4,a3,a1
800047a0:	00c548b3          	xor	a7,a0,a2
800047a4:	00d5c2b3          	xor	t0,a1,a3
800047a8:	0058e8b3          	or	a7,a7,t0
800047ac:	011038b3          	snez	a7,a7
800047b0:	01f75e13          	srl	t3,a4,0x1f
800047b4:	001e230b          	.4byte	0x1e230b
800047b8:	00100393          	li	t2,1
800047bc:	020e0263          	beqz	t3,800047e0 <__cmpdf2+0xbc>
800047c0:	00000393          	li	t2,0
800047c4:	00b6a733          	slt	a4,a3,a1
800047c8:	0e575733          	.4byte	0xe575733
800047cc:	00a63e33          	sltu	t3,a2,a0
800047d0:	0e5e7e33          	.4byte	0xe5e7e33
800047d4:	00ee6733          	or	a4,t3,a4
800047d8:	40e00733          	neg	a4,a4
800047dc:	01176733          	or	a4,a4,a7
800047e0:	0003300b          	.4byte	0x3300b
800047e4:	0013a30b          	.4byte	0x13a30b
800047e8:	02038063          	beqz	t2,80004808 <__cmpdf2+0xe4>
800047ec:	00d5a5b3          	slt	a1,a1,a3
800047f0:	0e55d5b3          	.4byte	0xe55d5b3
800047f4:	00c53533          	sltu	a0,a0,a2
800047f8:	0e557533          	.4byte	0xe557533
800047fc:	00b56533          	or	a0,a0,a1
80004800:	40a00533          	neg	a0,a0
80004804:	01156733          	or	a4,a0,a7
80004808:	0003300b          	.4byte	0x3300b
8000480c:	0008300b          	.4byte	0x8300b
80004810:	0007b00b          	.4byte	0x7b00b
80004814:	00070513          	mv	a0,a4
80004818:	00008067          	ret

8000481c <__gedf2>:
8000481c:	80000737          	lui	a4,0x80000
80004820:	fff70713          	add	a4,a4,-1 # 7fffffff <__tbss_size+0x7fffffdf>
80004824:	00e5f833          	and	a6,a1,a4
80004828:	00e6f8b3          	and	a7,a3,a4
8000482c:	7ff00737          	lui	a4,0x7ff00
80004830:	00e847b3          	xor	a5,a6,a4
80004834:	01485293          	srl	t0,a6,0x14
80004838:	7ff2b293          	sltiu	t0,t0,2047
8000483c:	0ef2d2b3          	.4byte	0xef2d2b3
80004840:	00153313          	seqz	t1,a0
80004844:	0ef377b3          	.4byte	0xef377b3
80004848:	0057e7b3          	or	a5,a5,t0
8000484c:	00e8c733          	xor	a4,a7,a4
80004850:	0148d293          	srl	t0,a7,0x14
80004854:	7ff2b293          	sltiu	t0,t0,2047
80004858:	0ee2d2b3          	.4byte	0xee2d2b3
8000485c:	00163313          	seqz	t1,a2
80004860:	0ee37733          	.4byte	0xee37733
80004864:	00576733          	or	a4,a4,t0
80004868:	00e7f2b3          	and	t0,a5,a4
8000486c:	0012a78b          	.4byte	0x12a78b
80004870:	fff00713          	li	a4,-1
80004874:	08028a63          	beqz	t0,80004908 <__gedf2+0xec>
80004878:	00000713          	li	a4,0
8000487c:	00a662b3          	or	t0,a2,a0
80004880:	0108e833          	or	a6,a7,a6
80004884:	0102e833          	or	a6,t0,a6
80004888:	010038b3          	snez	a7,a6
8000488c:	0018a80b          	.4byte	0x18a80b
80004890:	06088a63          	beqz	a7,80004904 <__gedf2+0xe8>
80004894:	00b6f733          	and	a4,a3,a1
80004898:	00c548b3          	xor	a7,a0,a2
8000489c:	00d5c2b3          	xor	t0,a1,a3
800048a0:	0058e8b3          	or	a7,a7,t0
800048a4:	011038b3          	snez	a7,a7
800048a8:	01f75e13          	srl	t3,a4,0x1f
800048ac:	001e230b          	.4byte	0x1e230b
800048b0:	00100393          	li	t2,1
800048b4:	020e0263          	beqz	t3,800048d8 <__gedf2+0xbc>
800048b8:	00000393          	li	t2,0
800048bc:	00b6a733          	slt	a4,a3,a1
800048c0:	0e575733          	.4byte	0xe575733
800048c4:	00a63e33          	sltu	t3,a2,a0
800048c8:	0e5e7e33          	.4byte	0xe5e7e33
800048cc:	00ee6733          	or	a4,t3,a4
800048d0:	40e00733          	neg	a4,a4
800048d4:	01176733          	or	a4,a4,a7
800048d8:	0003300b          	.4byte	0x3300b
800048dc:	0013a30b          	.4byte	0x13a30b
800048e0:	02038063          	beqz	t2,80004900 <__gedf2+0xe4>
800048e4:	00d5a5b3          	slt	a1,a1,a3
800048e8:	0e55d5b3          	.4byte	0xe55d5b3
800048ec:	00c53533          	sltu	a0,a0,a2
800048f0:	0e557533          	.4byte	0xe557533
800048f4:	00b56533          	or	a0,a0,a1
800048f8:	40a00533          	neg	a0,a0
800048fc:	01156733          	or	a4,a0,a7
80004900:	0003300b          	.4byte	0x3300b
80004904:	0008300b          	.4byte	0x8300b
80004908:	0007b00b          	.4byte	0x7b00b
8000490c:	00070513          	mv	a0,a4
80004910:	00008067          	ret

80004914 <__divdf3>:
80004914:	fc010113          	add	sp,sp,-64
80004918:	02112e23          	sw	ra,60(sp)
8000491c:	02812c23          	sw	s0,56(sp)
80004920:	02912a23          	sw	s1,52(sp)
80004924:	03212823          	sw	s2,48(sp)
80004928:	03312623          	sw	s3,44(sp)
8000492c:	03412423          	sw	s4,40(sp)
80004930:	03512223          	sw	s5,36(sp)
80004934:	03612023          	sw	s6,32(sp)
80004938:	01712e23          	sw	s7,28(sp)
8000493c:	01812c23          	sw	s8,24(sp)
80004940:	01912a23          	sw	s9,20(sp)
80004944:	01a12823          	sw	s10,16(sp)
80004948:	01b12623          	sw	s11,12(sp)
8000494c:	00000493          	li	s1,0
80004950:	001008b7          	lui	a7,0x100
80004954:	fff88893          	add	a7,a7,-1 # fffff <__tbss_size+0xfffdf>
80004958:	00159713          	sll	a4,a1,0x1
8000495c:	01575293          	srl	t0,a4,0x15
80004960:	00169713          	sll	a4,a3,0x1
80004964:	01575313          	srl	t1,a4,0x15
80004968:	00b6c733          	xor	a4,a3,a1
8000496c:	80000437          	lui	s0,0x80000
80004970:	00877833          	and	a6,a4,s0
80004974:	0115fe33          	and	t3,a1,a7
80004978:	0116f3b3          	and	t2,a3,a7
8000497c:	80128713          	add	a4,t0,-2047 # 7ffff801 <__tbss_size+0x7ffff7e1>
80004980:	80273713          	sltiu	a4,a4,-2046
80004984:	80130793          	add	a5,t1,-2047
80004988:	8027b793          	sltiu	a5,a5,-2046
8000498c:	00f76f33          	or	t5,a4,a5
80004990:	001f2e8b          	.4byte	0x1f2e8b
80004994:	00100c13          	li	s8,1
80004998:	540f0a63          	beqz	t5,80004eec <__divdf3+0x5d8>
8000499c:	fff40413          	add	s0,s0,-1 # 7fffffff <__tbss_size+0x7fffffdf>
800049a0:	0085fb33          	and	s6,a1,s0
800049a4:	7ff00937          	lui	s2,0x7ff00
800049a8:	012b4733          	xor	a4,s6,s2
800049ac:	014b5093          	srl	ra,s6,0x14
800049b0:	7ff0b793          	sltiu	a5,ra,2047
800049b4:	0ee7d7b3          	.4byte	0xee7d7b3
800049b8:	00153f13          	seqz	t5,a0
800049bc:	0eef7733          	.4byte	0xeef7733
800049c0:	00f76a33          	or	s4,a4,a5
800049c4:	001a2f0b          	.4byte	0x1a2f0b
800049c8:	00100f93          	li	t6,1
800049cc:	4c0a0e63          	beqz	s4,80004ea8 <__divdf3+0x594>
800049d0:	0086f433          	and	s0,a3,s0
800049d4:	01244733          	xor	a4,s0,s2
800049d8:	00163793          	seqz	a5,a2
800049dc:	0ee7f7b3          	.4byte	0xee7f7b3
800049e0:	01445d93          	srl	s11,s0,0x14
800049e4:	7ffdbf93          	sltiu	t6,s11,2047
800049e8:	0eefd733          	.4byte	0xeefd733
800049ec:	00e7ea33          	or	s4,a5,a4
800049f0:	001a2f8b          	.4byte	0x1a2f8b
800049f4:	00100913          	li	s2,1
800049f8:	460a0c63          	beqz	s4,80004e70 <__divdf3+0x55c>
800049fc:	7ff00bb7          	lui	s7,0x7ff00
80004a00:	017b4733          	xor	a4,s6,s7
80004a04:	00e56733          	or	a4,a0,a4
80004a08:	00e03933          	snez	s2,a4
80004a0c:	0019270b          	.4byte	0x19270b
80004a10:	00e12423          	sw	a4,8(sp)
80004a14:	00100a13          	li	s4,1
80004a18:	40090263          	beqz	s2,80004e1c <__divdf3+0x508>
80004a1c:	01744733          	xor	a4,s0,s7
80004a20:	00e66733          	or	a4,a2,a4
80004a24:	00e03933          	snez	s2,a4
80004a28:	0019270b          	.4byte	0x19270b
80004a2c:	00e12223          	sw	a4,4(sp)
80004a30:	00100a13          	li	s4,1
80004a34:	3a090863          	beqz	s2,80004de4 <__divdf3+0x4d0>
80004a38:	01656733          	or	a4,a0,s6
80004a3c:	00e03933          	snez	s2,a4
80004a40:	00192b8b          	.4byte	0x192b8b
80004a44:	00100a13          	li	s4,1
80004a48:	00866b33          	or	s6,a2,s0
80004a4c:	34090c63          	beqz	s2,80004da4 <__divdf3+0x490>
80004a50:	01712023          	sw	s7,0(sp)
80004a54:	016037b3          	snez	a5,s6
80004a58:	0017a70b          	.4byte	0x17a70b
80004a5c:	00100b93          	li	s7,1
80004a60:	30078463          	beqz	a5,80004d68 <__divdf3+0x454>
80004a64:	00000493          	li	s1,0
80004a68:	0010b913          	seqz	s2,ra
80004a6c:	0019278b          	.4byte	0x19278b
80004a70:	00050993          	mv	s3,a0
80004a74:	000e0a93          	mv	s5,t3
80004a78:	16090463          	beqz	s2,80004be0 <__divdf3+0x2cc>
80004a7c:	01c03933          	snez	s2,t3
80004a80:	0019248b          	.4byte	0x19248b
80004a84:	00100993          	li	s3,1
80004a88:	08090263          	beqz	s2,80004b0c <__divdf3+0x1f8>
80004a8c:	00000993          	li	s3,0
80004a90:	001e5913          	srl	s2,t3,0x1
80004a94:	012e6933          	or	s2,t3,s2
80004a98:	00295a13          	srl	s4,s2,0x2
80004a9c:	01496933          	or	s2,s2,s4
80004aa0:	00495a13          	srl	s4,s2,0x4
80004aa4:	01496933          	or	s2,s2,s4
80004aa8:	00895a13          	srl	s4,s2,0x8
80004aac:	01496933          	or	s2,s2,s4
80004ab0:	01095a13          	srl	s4,s2,0x10
80004ab4:	01496933          	or	s2,s2,s4
80004ab8:	fff94913          	not	s2,s2
80004abc:	00195a13          	srl	s4,s2,0x1
80004ac0:	55555ab7          	lui	s5,0x55555
80004ac4:	555a8a93          	add	s5,s5,1365 # 55555555 <__tbss_size+0x55555535>
80004ac8:	015a7a33          	and	s4,s4,s5
80004acc:	41490933          	sub	s2,s2,s4
80004ad0:	33333a37          	lui	s4,0x33333
80004ad4:	333a0a13          	add	s4,s4,819 # 33333333 <__tbss_size+0x33333313>
80004ad8:	01497ab3          	and	s5,s2,s4
80004adc:	00295913          	srl	s2,s2,0x2
80004ae0:	01497933          	and	s2,s2,s4
80004ae4:	012a8933          	add	s2,s5,s2
80004ae8:	00495a13          	srl	s4,s2,0x4
80004aec:	01490933          	add	s2,s2,s4
80004af0:	0f0f1a37          	lui	s4,0xf0f1
80004af4:	f0fa0a13          	add	s4,s4,-241 # f0f0f0f <__tbss_size+0xf0f0eef>
80004af8:	01497933          	and	s2,s2,s4
80004afc:	01010a37          	lui	s4,0x1010
80004b00:	101a0a13          	add	s4,s4,257 # 1010101 <__tbss_size+0x10100e1>
80004b04:	03490933          	mul	s2,s2,s4
80004b08:	01895a13          	srl	s4,s2,0x18
80004b0c:	0004b00b          	.4byte	0x4b00b
80004b10:	0019a48b          	.4byte	0x19a48b
80004b14:	08098263          	beqz	s3,80004b98 <__divdf3+0x284>
80004b18:	00155913          	srl	s2,a0,0x1
80004b1c:	01256933          	or	s2,a0,s2
80004b20:	00295993          	srl	s3,s2,0x2
80004b24:	01396933          	or	s2,s2,s3
80004b28:	00495993          	srl	s3,s2,0x4
80004b2c:	01396933          	or	s2,s2,s3
80004b30:	00895993          	srl	s3,s2,0x8
80004b34:	01396933          	or	s2,s2,s3
80004b38:	01095993          	srl	s3,s2,0x10
80004b3c:	01396933          	or	s2,s2,s3
80004b40:	fff94913          	not	s2,s2
80004b44:	00195993          	srl	s3,s2,0x1
80004b48:	55555a37          	lui	s4,0x55555
80004b4c:	555a0a13          	add	s4,s4,1365 # 55555555 <__tbss_size+0x55555535>
80004b50:	0149f9b3          	and	s3,s3,s4
80004b54:	41390933          	sub	s2,s2,s3
80004b58:	333339b7          	lui	s3,0x33333
80004b5c:	33398993          	add	s3,s3,819 # 33333333 <__tbss_size+0x33333313>
80004b60:	01397a33          	and	s4,s2,s3
80004b64:	00295913          	srl	s2,s2,0x2
80004b68:	01397933          	and	s2,s2,s3
80004b6c:	012a0933          	add	s2,s4,s2
80004b70:	00495993          	srl	s3,s2,0x4
80004b74:	01390933          	add	s2,s2,s3
80004b78:	0f0f19b7          	lui	s3,0xf0f1
80004b7c:	f0f98993          	add	s3,s3,-241 # f0f0f0f <__tbss_size+0xf0f0eef>
80004b80:	01397933          	and	s2,s2,s3
80004b84:	010109b7          	lui	s3,0x1010
80004b88:	10198993          	add	s3,s3,257 # 1010101 <__tbss_size+0x10100e1>
80004b8c:	03390933          	mul	s2,s2,s3
80004b90:	01895913          	srl	s2,s2,0x18
80004b94:	02096a13          	or	s4,s2,32
80004b98:	0004b00b          	.4byte	0x4b00b
80004b9c:	ff5a0493          	add	s1,s4,-11
80004ba0:	02a00913          	li	s2,42
80004ba4:	41490933          	sub	s2,s2,s4
80004ba8:	00155993          	srl	s3,a0,0x1
80004bac:	0129d933          	srl	s2,s3,s2
80004bb0:	009e19b3          	sll	s3,t3,s1
80004bb4:	0129e933          	or	s2,s3,s2
80004bb8:	fd5a0993          	add	s3,s4,-43
80004bbc:	0009ab93          	slti	s7,s3,0
80004bc0:	0f795933          	.4byte	0xf795933
80004bc4:	013519b3          	sll	s3,a0,s3
80004bc8:	0f79f9b3          	.4byte	0xf79f9b3
80004bcc:	01396ab3          	or	s5,s2,s3
80004bd0:	009514b3          	sll	s1,a0,s1
80004bd4:	0f74d9b3          	.4byte	0xf74d9b3
80004bd8:	00c00493          	li	s1,12
80004bdc:	414484b3          	sub	s1,s1,s4
80004be0:	0007b00b          	.4byte	0x7b00b
80004be4:	001db913          	seqz	s2,s11
80004be8:	0019278b          	.4byte	0x19278b
80004bec:	00060c93          	mv	s9,a2
80004bf0:	00038d13          	mv	s10,t2
80004bf4:	16090463          	beqz	s2,80004d5c <__divdf3+0x448>
80004bf8:	00703933          	snez	s2,t2
80004bfc:	00192c0b          	.4byte	0x192c0b
80004c00:	00100c93          	li	s9,1
80004c04:	08090263          	beqz	s2,80004c88 <__divdf3+0x374>
80004c08:	00000c93          	li	s9,0
80004c0c:	0013d913          	srl	s2,t2,0x1
80004c10:	0123e933          	or	s2,t2,s2
80004c14:	00295a13          	srl	s4,s2,0x2
80004c18:	01496933          	or	s2,s2,s4
80004c1c:	00495a13          	srl	s4,s2,0x4
80004c20:	01496933          	or	s2,s2,s4
80004c24:	00895a13          	srl	s4,s2,0x8
80004c28:	01496933          	or	s2,s2,s4
80004c2c:	01095a13          	srl	s4,s2,0x10
80004c30:	01496933          	or	s2,s2,s4
80004c34:	fff94913          	not	s2,s2
80004c38:	00195a13          	srl	s4,s2,0x1
80004c3c:	55555bb7          	lui	s7,0x55555
80004c40:	555b8b93          	add	s7,s7,1365 # 55555555 <__tbss_size+0x55555535>
80004c44:	017a7a33          	and	s4,s4,s7
80004c48:	41490933          	sub	s2,s2,s4
80004c4c:	33333a37          	lui	s4,0x33333
80004c50:	333a0a13          	add	s4,s4,819 # 33333333 <__tbss_size+0x33333313>
80004c54:	01497bb3          	and	s7,s2,s4
80004c58:	00295913          	srl	s2,s2,0x2
80004c5c:	01497933          	and	s2,s2,s4
80004c60:	012b8933          	add	s2,s7,s2
80004c64:	00495a13          	srl	s4,s2,0x4
80004c68:	01490933          	add	s2,s2,s4
80004c6c:	0f0f1a37          	lui	s4,0xf0f1
80004c70:	f0fa0a13          	add	s4,s4,-241 # f0f0f0f <__tbss_size+0xf0f0eef>
80004c74:	01497933          	and	s2,s2,s4
80004c78:	01010a37          	lui	s4,0x1010
80004c7c:	101a0a13          	add	s4,s4,257 # 1010101 <__tbss_size+0x10100e1>
80004c80:	03490933          	mul	s2,s2,s4
80004c84:	01895b93          	srl	s7,s2,0x18
80004c88:	000c300b          	.4byte	0xc300b
80004c8c:	001caa0b          	.4byte	0x1caa0b
80004c90:	080c8263          	beqz	s9,80004d14 <__divdf3+0x400>
80004c94:	00165913          	srl	s2,a2,0x1
80004c98:	01266933          	or	s2,a2,s2
80004c9c:	00295b93          	srl	s7,s2,0x2
80004ca0:	01796933          	or	s2,s2,s7
80004ca4:	00495b93          	srl	s7,s2,0x4
80004ca8:	01796933          	or	s2,s2,s7
80004cac:	00895b93          	srl	s7,s2,0x8
80004cb0:	01796933          	or	s2,s2,s7
80004cb4:	01095b93          	srl	s7,s2,0x10
80004cb8:	01796933          	or	s2,s2,s7
80004cbc:	fff94913          	not	s2,s2
80004cc0:	00195b93          	srl	s7,s2,0x1
80004cc4:	55555c37          	lui	s8,0x55555
80004cc8:	555c0c13          	add	s8,s8,1365 # 55555555 <__tbss_size+0x55555535>
80004ccc:	018bfbb3          	and	s7,s7,s8
80004cd0:	41790933          	sub	s2,s2,s7
80004cd4:	33333bb7          	lui	s7,0x33333
80004cd8:	333b8b93          	add	s7,s7,819 # 33333333 <__tbss_size+0x33333313>
80004cdc:	01797c33          	and	s8,s2,s7
80004ce0:	00295913          	srl	s2,s2,0x2
80004ce4:	01797933          	and	s2,s2,s7
80004ce8:	012c0933          	add	s2,s8,s2
80004cec:	00495b93          	srl	s7,s2,0x4
80004cf0:	01790933          	add	s2,s2,s7
80004cf4:	0f0f1bb7          	lui	s7,0xf0f1
80004cf8:	f0fb8b93          	add	s7,s7,-241 # f0f0f0f <__tbss_size+0xf0f0eef>
80004cfc:	01797933          	and	s2,s2,s7
80004d00:	01010bb7          	lui	s7,0x1010
80004d04:	101b8b93          	add	s7,s7,257 # 1010101 <__tbss_size+0x10100e1>
80004d08:	03790933          	mul	s2,s2,s7
80004d0c:	01895913          	srl	s2,s2,0x18
80004d10:	02096b93          	or	s7,s2,32
80004d14:	000a300b          	.4byte	0xa300b
80004d18:	ff5b8913          	add	s2,s7,-11
80004d1c:	02a00a13          	li	s4,42
80004d20:	417a0a33          	sub	s4,s4,s7
80004d24:	00165c13          	srl	s8,a2,0x1
80004d28:	014c5a33          	srl	s4,s8,s4
80004d2c:	01239c33          	sll	s8,t2,s2
80004d30:	014c6a33          	or	s4,s8,s4
80004d34:	fd5b8c13          	add	s8,s7,-43
80004d38:	000c2c93          	slti	s9,s8,0
80004d3c:	0f9a5a33          	.4byte	0xf9a5a33
80004d40:	01861c33          	sll	s8,a2,s8
80004d44:	0f9c7c33          	.4byte	0xf9c7c33
80004d48:	018a6d33          	or	s10,s4,s8
80004d4c:	01261933          	sll	s2,a2,s2
80004d50:	0f995cb3          	.4byte	0xf995cb3
80004d54:	017484b3          	add	s1,s1,s7
80004d58:	ff448493          	add	s1,s1,-12
80004d5c:	0007b00b          	.4byte	0x7b00b
80004d60:	00000b93          	li	s7,0
80004d64:	00100c13          	li	s8,1
80004d68:	0007300b          	.4byte	0x7300b
80004d6c:	001baa0b          	.4byte	0x1baa0b
80004d70:	020b8463          	beqz	s7,80004d98 <__divdf3+0x484>
80004d74:	00000c13          	li	s8,0
80004d78:	00000493          	li	s1,0
80004d7c:	00000713          	li	a4,0
80004d80:	7ff007b7          	lui	a5,0x7ff00
80004d84:	00f867b3          	or	a5,a6,a5
80004d88:	00060c93          	mv	s9,a2
80004d8c:	00038d13          	mv	s10,t2
80004d90:	00050993          	mv	s3,a0
80004d94:	000e0a93          	mv	s5,t3
80004d98:	000a300b          	.4byte	0xa300b
80004d9c:	00000a13          	li	s4,0
80004da0:	00012b83          	lw	s7,0(sp)
80004da4:	000bb00b          	.4byte	0xbb00b
80004da8:	001a2b8b          	.4byte	0x1a2b8b
80004dac:	020a0863          	beqz	s4,80004ddc <__divdf3+0x4c8>
80004db0:	00000c13          	li	s8,0
80004db4:	00000493          	li	s1,0
80004db8:	00000713          	li	a4,0
80004dbc:	0f6857b3          	.4byte	0xf6857b3
80004dc0:	7ff80937          	lui	s2,0x7ff80
80004dc4:	0f697933          	.4byte	0xf697933
80004dc8:	00f967b3          	or	a5,s2,a5
80004dcc:	00060c93          	mv	s9,a2
80004dd0:	00038d13          	mv	s10,t2
80004dd4:	00050993          	mv	s3,a0
80004dd8:	000e0a93          	mv	s5,t3
80004ddc:	000bb00b          	.4byte	0xbb00b
80004de0:	00000a13          	li	s4,0
80004de4:	00412903          	lw	s2,4(sp)
80004de8:	0009300b          	.4byte	0x9300b
80004dec:	001a2b0b          	.4byte	0x1a2b0b
80004df0:	020a0263          	beqz	s4,80004e14 <__divdf3+0x500>
80004df4:	00000c13          	li	s8,0
80004df8:	00000493          	li	s1,0
80004dfc:	00000713          	li	a4,0
80004e00:	00060c93          	mv	s9,a2
80004e04:	00038d13          	mv	s10,t2
80004e08:	00050993          	mv	s3,a0
80004e0c:	000e0a93          	mv	s5,t3
80004e10:	00080793          	mv	a5,a6
80004e14:	000b300b          	.4byte	0xb300b
80004e18:	00000a13          	li	s4,0
80004e1c:	00812903          	lw	s2,8(sp)
80004e20:	0009300b          	.4byte	0x9300b
80004e24:	001a290b          	.4byte	0x1a290b
80004e28:	040a0063          	beqz	s4,80004e68 <__divdf3+0x554>
80004e2c:	00000c13          	li	s8,0
80004e30:	00000493          	li	s1,0
80004e34:	00000713          	li	a4,0
80004e38:	7ff007b7          	lui	a5,0x7ff00
80004e3c:	00f44433          	xor	s0,s0,a5
80004e40:	00866433          	or	s0,a2,s0
80004e44:	00f867b3          	or	a5,a6,a5
80004e48:	0e87d7b3          	.4byte	0xe87d7b3
80004e4c:	7ff809b7          	lui	s3,0x7ff80
80004e50:	0e89f433          	.4byte	0xe89f433
80004e54:	00f467b3          	or	a5,s0,a5
80004e58:	00060c93          	mv	s9,a2
80004e5c:	00038d13          	mv	s10,t2
80004e60:	00050993          	mv	s3,a0
80004e64:	000e0a93          	mv	s5,t3
80004e68:	0009300b          	.4byte	0x9300b
80004e6c:	00000913          	li	s2,0
80004e70:	000fb00b          	.4byte	0xfb00b
80004e74:	00192f8b          	.4byte	0x192f8b
80004e78:	02090463          	beqz	s2,80004ea0 <__divdf3+0x58c>
80004e7c:	00000c13          	li	s8,0
80004e80:	00000493          	li	s1,0
80004e84:	000807b7          	lui	a5,0x80
80004e88:	00f6e7b3          	or	a5,a3,a5
80004e8c:	00060c93          	mv	s9,a2
80004e90:	00038d13          	mv	s10,t2
80004e94:	00050993          	mv	s3,a0
80004e98:	000e0a93          	mv	s5,t3
80004e9c:	00060713          	mv	a4,a2
80004ea0:	000fb00b          	.4byte	0xfb00b
80004ea4:	00000f93          	li	t6,0
80004ea8:	000f300b          	.4byte	0xf300b
80004eac:	001fa68b          	.4byte	0x1fa68b
80004eb0:	020f8463          	beqz	t6,80004ed8 <__divdf3+0x5c4>
80004eb4:	00000493          	li	s1,0
80004eb8:	00000c13          	li	s8,0
80004ebc:	000807b7          	lui	a5,0x80
80004ec0:	00f5e7b3          	or	a5,a1,a5
80004ec4:	00050713          	mv	a4,a0
80004ec8:	00050993          	mv	s3,a0
80004ecc:	000e0a93          	mv	s5,t3
80004ed0:	00060c93          	mv	s9,a2
80004ed4:	00038d13          	mv	s10,t2
80004ed8:	0006b00b          	.4byte	0x6b00b
80004edc:	000c8613          	mv	a2,s9
80004ee0:	000d0393          	mv	t2,s10
80004ee4:	00098513          	mv	a0,s3
80004ee8:	000a8e13          	mv	t3,s5
80004eec:	fff00f13          	li	t5,-1
80004ef0:	000eb00b          	.4byte	0xeb00b
80004ef4:	001c7693          	and	a3,s8,1
80004ef8:	0016a58b          	.4byte	0x16a58b
80004efc:	3c068663          	beqz	a3,800052c8 <__divdf3+0x9b4>
80004f00:	001f0693          	add	a3,t5,1
80004f04:	0016b713          	seqz	a4,a3
80004f08:	00e88733          	add	a4,a7,a4
80004f0c:	00ee6eb3          	or	t4,t3,a4
80004f10:	00d56e33          	or	t3,a0,a3
80004f14:	00e3e3b3          	or	t2,t2,a4
80004f18:	00d666b3          	or	a3,a2,a3
80004f1c:	40628733          	sub	a4,t0,t1
80004f20:	00e484b3          	add	s1,s1,a4
80004f24:	00b61613          	sll	a2,a2,0xb
80004f28:	0156d713          	srl	a4,a3,0x15
80004f2c:	00b39793          	sll	a5,t2,0xb
80004f30:	00f76733          	or	a4,a4,a5
80004f34:	7504f7b7          	lui	a5,0x7504f
80004f38:	33378793          	add	a5,a5,819 # 7504f333 <__tbss_size+0x7504f313>
80004f3c:	40e787b3          	sub	a5,a5,a4
80004f40:	02f732b3          	mulhu	t0,a4,a5
80004f44:	405002b3          	neg	t0,t0
80004f48:	02f28333          	mul	t1,t0,a5
80004f4c:	02f2b7b3          	mulhu	a5,t0,a5
80004f50:	00179793          	sll	a5,a5,0x1
80004f54:	01f35293          	srl	t0,t1,0x1f
80004f58:	00f2e7b3          	or	a5,t0,a5
80004f5c:	02e7b2b3          	mulhu	t0,a5,a4
80004f60:	405002b3          	neg	t0,t0
80004f64:	02578333          	mul	t1,a5,t0
80004f68:	0257b7b3          	mulhu	a5,a5,t0
80004f6c:	00179793          	sll	a5,a5,0x1
80004f70:	01f35293          	srl	t0,t1,0x1f
80004f74:	00f2e7b3          	or	a5,t0,a5
80004f78:	02e7b2b3          	mulhu	t0,a5,a4
80004f7c:	405002b3          	neg	t0,t0
80004f80:	02578333          	mul	t1,a5,t0
80004f84:	0257b7b3          	mulhu	a5,a5,t0
80004f88:	00179793          	sll	a5,a5,0x1
80004f8c:	01f35293          	srl	t0,t1,0x1f
80004f90:	00f2e7b3          	or	a5,t0,a5
80004f94:	fff78793          	add	a5,a5,-1
80004f98:	02f732b3          	mulhu	t0,a4,a5
80004f9c:	02f70733          	mul	a4,a4,a5
80004fa0:	02f63633          	mulhu	a2,a2,a5
80004fa4:	00c70633          	add	a2,a4,a2
80004fa8:	00e63733          	sltu	a4,a2,a4
80004fac:	00e28733          	add	a4,t0,a4
80004fb0:	00263293          	sltiu	t0,a2,2
80004fb4:	0012c293          	xor	t0,t0,1
80004fb8:	00570733          	add	a4,a4,t0
80004fbc:	40e00733          	neg	a4,a4
80004fc0:	00100913          	li	s2,1
80004fc4:	40c90633          	sub	a2,s2,a2
80004fc8:	02e782b3          	mul	t0,a5,a4
80004fcc:	01f2d313          	srl	t1,t0,0x1f
80004fd0:	02e7b733          	mulhu	a4,a5,a4
80004fd4:	00171713          	sll	a4,a4,0x1
80004fd8:	00676733          	or	a4,a4,t1
80004fdc:	00129293          	sll	t0,t0,0x1
80004fe0:	02f60333          	mul	t1,a2,a5
80004fe4:	02f63633          	mulhu	a2,a2,a5
80004fe8:	00161793          	sll	a5,a2,0x1
80004fec:	01f35313          	srl	t1,t1,0x1f
80004ff0:	00f367b3          	or	a5,t1,a5
80004ff4:	01f65613          	srl	a2,a2,0x1f
80004ff8:	00f287b3          	add	a5,t0,a5
80004ffc:	0057b2b3          	sltu	t0,a5,t0
80005000:	00c70633          	add	a2,a4,a2
80005004:	00560633          	add	a2,a2,t0
80005008:	f1f78293          	add	t0,a5,-225
8000500c:	00f2b733          	sltu	a4,t0,a5
80005010:	00e60633          	add	a2,a2,a4
80005014:	fff60613          	add	a2,a2,-1 # 7fffffff <__tbss_size+0x7fffffdf>
80005018:	01fe5713          	srl	a4,t3,0x1f
8000501c:	001e9793          	sll	a5,t4,0x1
80005020:	00e7e733          	or	a4,a5,a4
80005024:	001e1793          	sll	a5,t3,0x1
80005028:	02f2b333          	mulhu	t1,t0,a5
8000502c:	02e2bfb3          	mulhu	t6,t0,a4
80005030:	02e282b3          	mul	t0,t0,a4
80005034:	02f63433          	mulhu	s0,a2,a5
80005038:	02f609b3          	mul	s3,a2,a5
8000503c:	02e63a33          	mulhu	s4,a2,a4
80005040:	02e60633          	mul	a2,a2,a4
80005044:	005302b3          	add	t0,t1,t0
80005048:	0062b333          	sltu	t1,t0,t1
8000504c:	013289b3          	add	s3,t0,s3
80005050:	0059b2b3          	sltu	t0,s3,t0
80005054:	005302b3          	add	t0,t1,t0
80005058:	00c40633          	add	a2,s0,a2
8000505c:	00863333          	sltu	t1,a2,s0
80005060:	006a0333          	add	t1,s4,t1
80005064:	01f60fb3          	add	t6,a2,t6
80005068:	00cfb633          	sltu	a2,t6,a2
8000506c:	00c30633          	add	a2,t1,a2
80005070:	005f89b3          	add	s3,t6,t0
80005074:	01f9ba33          	sltu	s4,s3,t6
80005078:	01460a33          	add	s4,a2,s4
8000507c:	015a5613          	srl	a2,s4,0x15
80005080:	00c03b33          	snez	s6,a2
80005084:	001b2a8b          	.4byte	0x1b2a8b
80005088:	040b0463          	beqz	s6,800050d0 <__divdf3+0x7bc>
8000508c:	00000913          	li	s2,0
80005090:	3ff48613          	add	a2,s1,1023
80005094:	0019d293          	srl	t0,s3,0x1
80005098:	01fa1313          	sll	t1,s4,0x1f
8000509c:	0062e2b3          	or	t0,t0,t1
800050a0:	001a5313          	srl	t1,s4,0x1
800050a4:	01451f93          	sll	t6,a0,0x14
800050a8:	02728433          	mul	s0,t0,t2
800050ac:	02d2bb33          	mulhu	s6,t0,a3
800050b0:	008b0433          	add	s0,s6,s0
800050b4:	02d30b33          	mul	s6,t1,a3
800050b8:	416f8fb3          	sub	t6,t6,s6
800050bc:	02d28b33          	mul	s6,t0,a3
800050c0:	408f8fb3          	sub	t6,t6,s0
800050c4:	01603433          	snez	s0,s6
800050c8:	408f8433          	sub	s0,t6,s0
800050cc:	41600fb3          	neg	t6,s6
800050d0:	000ab00b          	.4byte	0xab00b
800050d4:	00192a8b          	.4byte	0x192a8b
800050d8:	04090263          	beqz	s2,8000511c <__divdf3+0x808>
800050dc:	01551513          	sll	a0,a0,0x15
800050e0:	02d9b633          	mulhu	a2,s3,a3
800050e4:	027982b3          	mul	t0,s3,t2
800050e8:	00560633          	add	a2,a2,t0
800050ec:	02da02b3          	mul	t0,s4,a3
800050f0:	02d98333          	mul	t1,s3,a3
800050f4:	40c50533          	sub	a0,a0,a2
800050f8:	40550533          	sub	a0,a0,t0
800050fc:	00603633          	snez	a2,t1
80005100:	40c50433          	sub	s0,a0,a2
80005104:	40600fb3          	neg	t6,t1
80005108:	3fe48613          	add	a2,s1,1022
8000510c:	00078e13          	mv	t3,a5
80005110:	00070e93          	mv	t4,a4
80005114:	00098293          	mv	t0,s3
80005118:	000a0313          	mv	t1,s4
8000511c:	000ab00b          	.4byte	0xab00b
80005120:	7ff62913          	slti	s2,a2,2047
80005124:	0019250b          	.4byte	0x19250b
80005128:	00100493          	li	s1,1
8000512c:	18090063          	beqz	s2,800052ac <__divdf3+0x998>
80005130:	00000913          	li	s2,0
80005134:	00162c13          	slti	s8,a2,1
80005138:	001c248b          	.4byte	0x1c248b
8000513c:	00100b93          	li	s7,1
80005140:	0e0c0863          	beqz	s8,80005230 <__divdf3+0x91c>
80005144:	00000913          	li	s2,0
80005148:	fcc62713          	slti	a4,a2,-52
8000514c:	00174793          	xor	a5,a4,1
80005150:	0017a70b          	.4byte	0x17a70b
80005154:	00100b93          	li	s7,1
80005158:	0a078e63          	beqz	a5,80005214 <__divdf3+0x900>
8000515c:	00000b93          	li	s7,0
80005160:	03460793          	add	a5,a2,52
80005164:	00100913          	li	s2,1
80005168:	40c90a33          	sub	s4,s2,a2
8000516c:	fe100993          	li	s3,-31
80005170:	40c989b3          	sub	s3,s3,a2
80005174:	01335ab3          	srl	s5,t1,s3
80005178:	0009ab13          	slti	s6,s3,0
8000517c:	0f6af9b3          	.4byte	0xf6af9b3
80005180:	fffa4a93          	not	s5,s4
80005184:	00131c13          	sll	s8,t1,0x1
80005188:	015c1ab3          	sll	s5,s8,s5
8000518c:	0142dc33          	srl	s8,t0,s4
80005190:	015c6ab3          	or	s5,s8,s5
80005194:	0f6adab3          	.4byte	0xf6adab3
80005198:	013ae9b3          	or	s3,s5,s3
8000519c:	01435a33          	srl	s4,t1,s4
800051a0:	0f6a5a33          	.4byte	0xf6a5a33
800051a4:	feb00a93          	li	s5,-21
800051a8:	40ca8ab3          	sub	s5,s5,a2
800051ac:	001e5b13          	srl	s6,t3,0x1
800051b0:	015b5ab3          	srl	s5,s6,s5
800051b4:	00fe9eb3          	sll	t4,t4,a5
800051b8:	015eeeb3          	or	t4,t4,s5
800051bc:	01460a93          	add	s5,a2,20
800051c0:	000aab13          	slti	s6,s5,0
800051c4:	0f6edeb3          	.4byte	0xf6edeb3
800051c8:	015e1ab3          	sll	s5,t3,s5
800051cc:	0f6afab3          	.4byte	0xf6afab3
800051d0:	015eeeb3          	or	t4,t4,s5
800051d4:	00fe17b3          	sll	a5,t3,a5
800051d8:	0f67d7b3          	.4byte	0xf67d7b3
800051dc:	03338e33          	mul	t3,t2,s3
800051e0:	0336bab3          	mulhu	s5,a3,s3
800051e4:	03468b33          	mul	s6,a3,s4
800051e8:	016a8ab3          	add	s5,s5,s6
800051ec:	01ca8e33          	add	t3,s5,t3
800051f0:	001e1e13          	sll	t3,t3,0x1
800051f4:	03368ab3          	mul	s5,a3,s3
800051f8:	01fadb13          	srl	s6,s5,0x1f
800051fc:	016e6e33          	or	t3,t3,s6
80005200:	001a9b13          	sll	s6,s5,0x1
80005204:	0167bab3          	sltu	s5,a5,s6
80005208:	415e8eb3          	sub	t4,t4,s5
8000520c:	41ce8ab3          	sub	s5,t4,t3
80005210:	41678b33          	sub	s6,a5,s6
80005214:	0007300b          	.4byte	0x7300b
80005218:	001bae0b          	.4byte	0x1bae0b
8000521c:	000b8663          	beqz	s7,80005228 <__divdf3+0x914>
80005220:	00000713          	li	a4,0
80005224:	00080793          	mv	a5,a6
80005228:	000e300b          	.4byte	0xe300b
8000522c:	00000b93          	li	s7,0
80005230:	0004b00b          	.4byte	0x4b00b
80005234:	001bae0b          	.4byte	0x1bae0b
80005238:	020b8463          	beqz	s7,80005260 <__divdf3+0x94c>
8000523c:	01e2f9b3          	and	s3,t0,t5
80005240:	01137733          	and	a4,t1,a7
80005244:	01461613          	sll	a2,a2,0x14
80005248:	00e66a33          	or	s4,a2,a4
8000524c:	01ffd613          	srl	a2,t6,0x1f
80005250:	00141413          	sll	s0,s0,0x1
80005254:	00c46ab3          	or	s5,s0,a2
80005258:	001f9b13          	sll	s6,t6,0x1
8000525c:	00100913          	li	s2,1
80005260:	000e300b          	.4byte	0xe300b
80005264:	0019260b          	.4byte	0x19260b
80005268:	02090e63          	beqz	s2,800052a4 <__divdf3+0x990>
8000526c:	0019f713          	and	a4,s3,1
80005270:	01670b33          	add	s6,a4,s6
80005274:	00eb3733          	sltu	a4,s6,a4
80005278:	00ea8733          	add	a4,s5,a4
8000527c:	007747b3          	xor	a5,a4,t2
80005280:	00e3b733          	sltu	a4,t2,a4
80005284:	0ef75733          	.4byte	0xef75733
80005288:	0166b6b3          	sltu	a3,a3,s6
8000528c:	0ef6f6b3          	.4byte	0xef6f6b3
80005290:	00e6e6b3          	or	a3,a3,a4
80005294:	00d98733          	add	a4,s3,a3
80005298:	013736b3          	sltu	a3,a4,s3
8000529c:	00da06b3          	add	a3,s4,a3
800052a0:	0106e7b3          	or	a5,a3,a6
800052a4:	0006300b          	.4byte	0x6300b
800052a8:	00000493          	li	s1,0
800052ac:	0005300b          	.4byte	0x5300b
800052b0:	0014a50b          	.4byte	0x14a50b
800052b4:	00048863          	beqz	s1,800052c4 <__divdf3+0x9b0>
800052b8:	00000713          	li	a4,0
800052bc:	7ff00637          	lui	a2,0x7ff00
800052c0:	00c867b3          	or	a5,a6,a2
800052c4:	0005300b          	.4byte	0x5300b
800052c8:	0005b00b          	.4byte	0x5b00b
800052cc:	00070513          	mv	a0,a4
800052d0:	00078593          	mv	a1,a5
800052d4:	03c12083          	lw	ra,60(sp)
800052d8:	03812403          	lw	s0,56(sp)
800052dc:	03412483          	lw	s1,52(sp)
800052e0:	03012903          	lw	s2,48(sp)
800052e4:	02c12983          	lw	s3,44(sp)
800052e8:	02812a03          	lw	s4,40(sp)
800052ec:	02412a83          	lw	s5,36(sp)
800052f0:	02012b03          	lw	s6,32(sp)
800052f4:	01c12b83          	lw	s7,28(sp)
800052f8:	01812c03          	lw	s8,24(sp)
800052fc:	01412c83          	lw	s9,20(sp)
80005300:	01012d03          	lw	s10,16(sp)
80005304:	00c12d83          	lw	s11,12(sp)
80005308:	04010113          	add	sp,sp,64
8000530c:	00008067          	ret

80005310 <__fixdfsi>:
80005310:	00000613          	li	a2,0
80005314:	00159693          	sll	a3,a1,0x1
80005318:	0156d813          	srl	a6,a3,0x15
8000531c:	3ff83693          	sltiu	a3,a6,1023
80005320:	0016c713          	xor	a4,a3,1
80005324:	0017268b          	.4byte	0x17268b
80005328:	0a070863          	beqz	a4,800053d8 <__fixdfsi+0xc8>
8000532c:	be180613          	add	a2,a6,-1055 # 7feffbe1 <__tbss_size+0x7feffbc1>
80005330:	fe063613          	sltiu	a2,a2,-32
80005334:	00164293          	xor	t0,a2,1
80005338:	0012a78b          	.4byte	0x12a78b
8000533c:	00100893          	li	a7,1
80005340:	0005a713          	slti	a4,a1,0
80005344:	06028c63          	beqz	t0,800053bc <__fixdfsi+0xac>
80005348:	00000893          	li	a7,0
8000534c:	00100637          	lui	a2,0x100
80005350:	fff60613          	add	a2,a2,-1 # fffff <__tbss_size+0xfffdf>
80005354:	00c5f5b3          	and	a1,a1,a2
80005358:	00a032b3          	snez	t0,a0
8000535c:	005585b3          	add	a1,a1,t0
80005360:	fff50513          	add	a0,a0,-1
80005364:	00150513          	add	a0,a0,1
80005368:	00153293          	seqz	t0,a0
8000536c:	00c28633          	add	a2,t0,a2
80005370:	00c585b3          	add	a1,a1,a2
80005374:	43300613          	li	a2,1075
80005378:	41060633          	sub	a2,a2,a6
8000537c:	41300293          	li	t0,1043
80005380:	41028833          	sub	a6,t0,a6
80005384:	00c55533          	srl	a0,a0,a2
80005388:	fff64613          	not	a2,a2
8000538c:	00159293          	sll	t0,a1,0x1
80005390:	00c29633          	sll	a2,t0,a2
80005394:	0105d5b3          	srl	a1,a1,a6
80005398:	00082813          	slti	a6,a6,0
8000539c:	0f05f5b3          	.4byte	0xf05f5b3
800053a0:	00c56533          	or	a0,a0,a2
800053a4:	0f055533          	.4byte	0xf055533
800053a8:	00b56533          	or	a0,a0,a1
800053ac:	40a005b3          	neg	a1,a0
800053b0:	0ee57533          	.4byte	0xee57533
800053b4:	0ee5d633          	.4byte	0xee5d633
800053b8:	00c56633          	or	a2,a0,a2
800053bc:	0007b00b          	.4byte	0x7b00b
800053c0:	0018a50b          	.4byte	0x18a50b
800053c4:	00088863          	beqz	a7,800053d4 <__fixdfsi+0xc4>
800053c8:	00174593          	xor	a1,a4,1
800053cc:	80000637          	lui	a2,0x80000
800053d0:	40b60633          	sub	a2,a2,a1
800053d4:	0005300b          	.4byte	0x5300b
800053d8:	0006b00b          	.4byte	0x6b00b
800053dc:	00060513          	mv	a0,a2
800053e0:	00008067          	ret

800053e4 <__fixunsdfsi>:
800053e4:	00000613          	li	a2,0
800053e8:	0005a693          	slti	a3,a1,0
800053ec:	00159713          	sll	a4,a1,0x1
800053f0:	01575713          	srl	a4,a4,0x15
800053f4:	3ff73793          	sltiu	a5,a4,1023
800053f8:	00f6e6b3          	or	a3,a3,a5
800053fc:	0016c793          	xor	a5,a3,1
80005400:	0017a68b          	.4byte	0x17a68b
80005404:	06078a63          	beqz	a5,80005478 <__fixunsdfsi+0x94>
80005408:	00100637          	lui	a2,0x100
8000540c:	fff60613          	add	a2,a2,-1 # fffff <__tbss_size+0xfffdf>
80005410:	00c5f5b3          	and	a1,a1,a2
80005414:	00a037b3          	snez	a5,a0
80005418:	00f585b3          	add	a1,a1,a5
8000541c:	fff50513          	add	a0,a0,-1
80005420:	00150513          	add	a0,a0,1
80005424:	00153793          	seqz	a5,a0
80005428:	00c78633          	add	a2,a5,a2
8000542c:	00c585b3          	add	a1,a1,a2
80005430:	be170613          	add	a2,a4,-1055 # 7feffbe1 <__tbss_size+0x7feffbc1>
80005434:	fe063613          	sltiu	a2,a2,-32
80005438:	43300793          	li	a5,1075
8000543c:	40e787b3          	sub	a5,a5,a4
80005440:	41300813          	li	a6,1043
80005444:	40e80733          	sub	a4,a6,a4
80005448:	00e5d833          	srl	a6,a1,a4
8000544c:	00072713          	slti	a4,a4,0
80005450:	0ee87833          	.4byte	0xee87833
80005454:	fff7c893          	not	a7,a5
80005458:	00159593          	sll	a1,a1,0x1
8000545c:	011595b3          	sll	a1,a1,a7
80005460:	00f55533          	srl	a0,a0,a5
80005464:	00b56533          	or	a0,a0,a1
80005468:	0ee55533          	.4byte	0xee55533
8000546c:	40c005b3          	neg	a1,a2
80005470:	0105e633          	or	a2,a1,a6
80005474:	00a66633          	or	a2,a2,a0
80005478:	0006b00b          	.4byte	0x6b00b
8000547c:	00060513          	mv	a0,a2
80005480:	00008067          	ret

80005484 <__floatsidf>:
80005484:	00050613          	mv	a2,a0
80005488:	00000513          	li	a0,0
8000548c:	00000593          	li	a1,0
80005490:	00c03733          	snez	a4,a2
80005494:	0017268b          	.4byte	0x17268b
80005498:	0e070463          	beqz	a4,80005580 <__floatsidf+0xfc>
8000549c:	41f65513          	sra	a0,a2,0x1f
800054a0:	00a645b3          	xor	a1,a2,a0
800054a4:	40a585b3          	sub	a1,a1,a0
800054a8:	80000537          	lui	a0,0x80000
800054ac:	00a67633          	and	a2,a2,a0
800054b0:	0015d513          	srl	a0,a1,0x1
800054b4:	00a5e733          	or	a4,a1,a0
800054b8:	00275793          	srl	a5,a4,0x2
800054bc:	00f76733          	or	a4,a4,a5
800054c0:	00475793          	srl	a5,a4,0x4
800054c4:	00f76733          	or	a4,a4,a5
800054c8:	00875793          	srl	a5,a4,0x8
800054cc:	00f76733          	or	a4,a4,a5
800054d0:	01075793          	srl	a5,a4,0x10
800054d4:	00f76733          	or	a4,a4,a5
800054d8:	fff74713          	not	a4,a4
800054dc:	00175793          	srl	a5,a4,0x1
800054e0:	55555837          	lui	a6,0x55555
800054e4:	55580813          	add	a6,a6,1365 # 55555555 <__tbss_size+0x55555535>
800054e8:	0107f7b3          	and	a5,a5,a6
800054ec:	40f70733          	sub	a4,a4,a5
800054f0:	333337b7          	lui	a5,0x33333
800054f4:	33378793          	add	a5,a5,819 # 33333333 <__tbss_size+0x33333313>
800054f8:	00f77833          	and	a6,a4,a5
800054fc:	00275713          	srl	a4,a4,0x2
80005500:	00f77733          	and	a4,a4,a5
80005504:	00e80733          	add	a4,a6,a4
80005508:	00475793          	srl	a5,a4,0x4
8000550c:	00f70733          	add	a4,a4,a5
80005510:	0f0f17b7          	lui	a5,0xf0f1
80005514:	f0f78793          	add	a5,a5,-241 # f0f0f0f <__tbss_size+0xf0f0eef>
80005518:	00f77733          	and	a4,a4,a5
8000551c:	010107b7          	lui	a5,0x1010
80005520:	10178793          	add	a5,a5,257 # 1010101 <__tbss_size+0x10100e1>
80005524:	02f70733          	mul	a4,a4,a5
80005528:	01875713          	srl	a4,a4,0x18
8000552c:	01f74793          	xor	a5,a4,31
80005530:	03400813          	li	a6,52
80005534:	40f80833          	sub	a6,a6,a5
80005538:	01400893          	li	a7,20
8000553c:	40f887b3          	sub	a5,a7,a5
80005540:	00f598b3          	sll	a7,a1,a5
80005544:	0007a793          	slti	a5,a5,0
80005548:	0ef8f8b3          	.4byte	0xef8f8b3
8000554c:	fff84293          	not	t0,a6
80005550:	00555533          	srl	a0,a0,t0
80005554:	0ef55533          	.4byte	0xef55533
80005558:	011568b3          	or	a7,a0,a7
8000555c:	01059533          	sll	a0,a1,a6
80005560:	0ef55533          	.4byte	0xef55533
80005564:	001005b7          	lui	a1,0x100
80005568:	00b8c5b3          	xor	a1,a7,a1
8000556c:	41e00793          	li	a5,1054
80005570:	40e787b3          	sub	a5,a5,a4
80005574:	01479793          	sll	a5,a5,0x14
80005578:	00f585b3          	add	a1,a1,a5
8000557c:	00c5e5b3          	or	a1,a1,a2
80005580:	0006b00b          	.4byte	0x6b00b
80005584:	00008067          	ret

80005588 <__floatunsidf>:
80005588:	00000613          	li	a2,0
8000558c:	00000593          	li	a1,0
80005590:	00a03733          	snez	a4,a0
80005594:	0017268b          	.4byte	0x17268b
80005598:	0c070863          	beqz	a4,80005668 <__floatunsidf+0xe0>
8000559c:	00155593          	srl	a1,a0,0x1
800055a0:	00b56633          	or	a2,a0,a1
800055a4:	00265713          	srl	a4,a2,0x2
800055a8:	00e66633          	or	a2,a2,a4
800055ac:	00465713          	srl	a4,a2,0x4
800055b0:	00e66633          	or	a2,a2,a4
800055b4:	00865713          	srl	a4,a2,0x8
800055b8:	00e66633          	or	a2,a2,a4
800055bc:	01065713          	srl	a4,a2,0x10
800055c0:	00e66633          	or	a2,a2,a4
800055c4:	fff64613          	not	a2,a2
800055c8:	00165713          	srl	a4,a2,0x1
800055cc:	555557b7          	lui	a5,0x55555
800055d0:	55578793          	add	a5,a5,1365 # 55555555 <__tbss_size+0x55555535>
800055d4:	00f77733          	and	a4,a4,a5
800055d8:	40e60633          	sub	a2,a2,a4
800055dc:	33333737          	lui	a4,0x33333
800055e0:	33370713          	add	a4,a4,819 # 33333333 <__tbss_size+0x33333313>
800055e4:	00e677b3          	and	a5,a2,a4
800055e8:	00265613          	srl	a2,a2,0x2
800055ec:	00e67633          	and	a2,a2,a4
800055f0:	00c78633          	add	a2,a5,a2
800055f4:	00465713          	srl	a4,a2,0x4
800055f8:	00e60633          	add	a2,a2,a4
800055fc:	0f0f1737          	lui	a4,0xf0f1
80005600:	f0f70713          	add	a4,a4,-241 # f0f0f0f <__tbss_size+0xf0f0eef>
80005604:	00e67633          	and	a2,a2,a4
80005608:	01010737          	lui	a4,0x1010
8000560c:	10170713          	add	a4,a4,257 # 1010101 <__tbss_size+0x10100e1>
80005610:	02e60633          	mul	a2,a2,a4
80005614:	01865713          	srl	a4,a2,0x18
80005618:	01f74613          	xor	a2,a4,31
8000561c:	03400793          	li	a5,52
80005620:	40c787b3          	sub	a5,a5,a2
80005624:	01400813          	li	a6,20
80005628:	40c80633          	sub	a2,a6,a2
8000562c:	00c51833          	sll	a6,a0,a2
80005630:	00062613          	slti	a2,a2,0
80005634:	0ec87833          	.4byte	0xec87833
80005638:	fff7c893          	not	a7,a5
8000563c:	0115d5b3          	srl	a1,a1,a7
80005640:	0ec5d5b3          	.4byte	0xec5d5b3
80005644:	0105e5b3          	or	a1,a1,a6
80005648:	00f51533          	sll	a0,a0,a5
8000564c:	0ec55633          	.4byte	0xec55633
80005650:	00100537          	lui	a0,0x100
80005654:	00a5c533          	xor	a0,a1,a0
80005658:	41e00593          	li	a1,1054
8000565c:	40e585b3          	sub	a1,a1,a4
80005660:	01459593          	sll	a1,a1,0x14
80005664:	00b505b3          	add	a1,a0,a1
80005668:	0006b00b          	.4byte	0x6b00b
8000566c:	00060513          	mv	a0,a2
80005670:	00008067          	ret

80005674 <__muldf3>:
80005674:	fc010113          	add	sp,sp,-64
80005678:	02112e23          	sw	ra,60(sp)
8000567c:	02812c23          	sw	s0,56(sp)
80005680:	02912a23          	sw	s1,52(sp)
80005684:	03212823          	sw	s2,48(sp)
80005688:	03312623          	sw	s3,44(sp)
8000568c:	03412423          	sw	s4,40(sp)
80005690:	03512223          	sw	s5,36(sp)
80005694:	03612023          	sw	s6,32(sp)
80005698:	01712e23          	sw	s7,28(sp)
8000569c:	01812c23          	sw	s8,24(sp)
800056a0:	01912a23          	sw	s9,20(sp)
800056a4:	01a12823          	sw	s10,16(sp)
800056a8:	01b12623          	sw	s11,12(sp)
800056ac:	00000493          	li	s1,0
800056b0:	001008b7          	lui	a7,0x100
800056b4:	fff88893          	add	a7,a7,-1 # fffff <__tbss_size+0xfffdf>
800056b8:	00159713          	sll	a4,a1,0x1
800056bc:	01575293          	srl	t0,a4,0x15
800056c0:	00169713          	sll	a4,a3,0x1
800056c4:	01575313          	srl	t1,a4,0x15
800056c8:	00b6c733          	xor	a4,a3,a1
800056cc:	80000437          	lui	s0,0x80000
800056d0:	00877833          	and	a6,a4,s0
800056d4:	0115f3b3          	and	t2,a1,a7
800056d8:	0116feb3          	and	t4,a3,a7
800056dc:	80128713          	add	a4,t0,-2047
800056e0:	80273713          	sltiu	a4,a4,-2046
800056e4:	80130793          	add	a5,t1,-2047
800056e8:	8027b793          	sltiu	a5,a5,-2046
800056ec:	00f76f33          	or	t5,a4,a5
800056f0:	001f2e0b          	.4byte	0x1f2e0b
800056f4:	00100c13          	li	s8,1
800056f8:	540f0663          	beqz	t5,80005c44 <__muldf3+0x5d0>
800056fc:	fff40413          	add	s0,s0,-1 # 7fffffff <__tbss_size+0x7fffffdf>
80005700:	0085f9b3          	and	s3,a1,s0
80005704:	7ff00937          	lui	s2,0x7ff00
80005708:	0129c733          	xor	a4,s3,s2
8000570c:	0149d093          	srl	ra,s3,0x14
80005710:	7ff0b793          	sltiu	a5,ra,2047
80005714:	0ee7d7b3          	.4byte	0xee7d7b3
80005718:	00153f13          	seqz	t5,a0
8000571c:	0eef7733          	.4byte	0xeef7733
80005720:	00f76b33          	or	s6,a4,a5
80005724:	001b2f0b          	.4byte	0x1b2f0b
80005728:	00100f93          	li	t6,1
8000572c:	4c0b0a63          	beqz	s6,80005c00 <__muldf3+0x58c>
80005730:	0086f433          	and	s0,a3,s0
80005734:	01244733          	xor	a4,s0,s2
80005738:	00163793          	seqz	a5,a2
8000573c:	0ee7f7b3          	.4byte	0xee7f7b3
80005740:	01445d93          	srl	s11,s0,0x14
80005744:	7ffdbf93          	sltiu	t6,s11,2047
80005748:	0eefd733          	.4byte	0xeefd733
8000574c:	00e7eb33          	or	s6,a5,a4
80005750:	001b2f8b          	.4byte	0x1b2f8b
80005754:	00100913          	li	s2,1
80005758:	460b0863          	beqz	s6,80005bc8 <__muldf3+0x554>
8000575c:	7ff00bb7          	lui	s7,0x7ff00
80005760:	0179c733          	xor	a4,s3,s7
80005764:	00e56733          	or	a4,a0,a4
80005768:	00e03933          	snez	s2,a4
8000576c:	0019270b          	.4byte	0x19270b
80005770:	00e12423          	sw	a4,8(sp)
80005774:	00100b13          	li	s6,1
80005778:	40090063          	beqz	s2,80005b78 <__muldf3+0x504>
8000577c:	01744733          	xor	a4,s0,s7
80005780:	00e66733          	or	a4,a2,a4
80005784:	00e03933          	snez	s2,a4
80005788:	00192b0b          	.4byte	0x192b0b
8000578c:	00100b93          	li	s7,1
80005790:	013569b3          	or	s3,a0,s3
80005794:	38090e63          	beqz	s2,80005b30 <__muldf3+0x4bc>
80005798:	01303933          	snez	s2,s3
8000579c:	0019270b          	.4byte	0x19270b
800057a0:	00e12223          	sw	a4,4(sp)
800057a4:	00100b93          	li	s7,1
800057a8:	34090863          	beqz	s2,80005af8 <__muldf3+0x484>
800057ac:	00866733          	or	a4,a2,s0
800057b0:	00e037b3          	snez	a5,a4
800057b4:	0017a70b          	.4byte	0x17a70b
800057b8:	00100b93          	li	s7,1
800057bc:	30078463          	beqz	a5,80005ac4 <__muldf3+0x450>
800057c0:	00000493          	li	s1,0
800057c4:	0010b913          	seqz	s2,ra
800057c8:	0019278b          	.4byte	0x19278b
800057cc:	00050a13          	mv	s4,a0
800057d0:	00038a93          	mv	s5,t2
800057d4:	16090463          	beqz	s2,8000593c <__muldf3+0x2c8>
800057d8:	00703933          	snez	s2,t2
800057dc:	0019248b          	.4byte	0x19248b
800057e0:	00100a13          	li	s4,1
800057e4:	08090263          	beqz	s2,80005868 <__muldf3+0x1f4>
800057e8:	00000a13          	li	s4,0
800057ec:	0013d913          	srl	s2,t2,0x1
800057f0:	0123e933          	or	s2,t2,s2
800057f4:	00295a93          	srl	s5,s2,0x2
800057f8:	01596933          	or	s2,s2,s5
800057fc:	00495a93          	srl	s5,s2,0x4
80005800:	01596933          	or	s2,s2,s5
80005804:	00895a93          	srl	s5,s2,0x8
80005808:	01596933          	or	s2,s2,s5
8000580c:	01095a93          	srl	s5,s2,0x10
80005810:	01596933          	or	s2,s2,s5
80005814:	fff94913          	not	s2,s2
80005818:	00195a93          	srl	s5,s2,0x1
8000581c:	55555bb7          	lui	s7,0x55555
80005820:	555b8b93          	add	s7,s7,1365 # 55555555 <__tbss_size+0x55555535>
80005824:	017afab3          	and	s5,s5,s7
80005828:	41590933          	sub	s2,s2,s5
8000582c:	33333ab7          	lui	s5,0x33333
80005830:	333a8a93          	add	s5,s5,819 # 33333333 <__tbss_size+0x33333313>
80005834:	01597bb3          	and	s7,s2,s5
80005838:	00295913          	srl	s2,s2,0x2
8000583c:	01597933          	and	s2,s2,s5
80005840:	012b8933          	add	s2,s7,s2
80005844:	00495a93          	srl	s5,s2,0x4
80005848:	01590933          	add	s2,s2,s5
8000584c:	0f0f1ab7          	lui	s5,0xf0f1
80005850:	f0fa8a93          	add	s5,s5,-241 # f0f0f0f <__tbss_size+0xf0f0eef>
80005854:	01597933          	and	s2,s2,s5
80005858:	01010ab7          	lui	s5,0x1010
8000585c:	101a8a93          	add	s5,s5,257 # 1010101 <__tbss_size+0x10100e1>
80005860:	03590933          	mul	s2,s2,s5
80005864:	01895b93          	srl	s7,s2,0x18
80005868:	0004b00b          	.4byte	0x4b00b
8000586c:	001a248b          	.4byte	0x1a248b
80005870:	080a0263          	beqz	s4,800058f4 <__muldf3+0x280>
80005874:	00155913          	srl	s2,a0,0x1
80005878:	01256933          	or	s2,a0,s2
8000587c:	00295a13          	srl	s4,s2,0x2
80005880:	01496933          	or	s2,s2,s4
80005884:	00495a13          	srl	s4,s2,0x4
80005888:	01496933          	or	s2,s2,s4
8000588c:	00895a13          	srl	s4,s2,0x8
80005890:	01496933          	or	s2,s2,s4
80005894:	01095a13          	srl	s4,s2,0x10
80005898:	01496933          	or	s2,s2,s4
8000589c:	fff94913          	not	s2,s2
800058a0:	00195a13          	srl	s4,s2,0x1
800058a4:	55555ab7          	lui	s5,0x55555
800058a8:	555a8a93          	add	s5,s5,1365 # 55555555 <__tbss_size+0x55555535>
800058ac:	015a7a33          	and	s4,s4,s5
800058b0:	41490933          	sub	s2,s2,s4
800058b4:	33333a37          	lui	s4,0x33333
800058b8:	333a0a13          	add	s4,s4,819 # 33333333 <__tbss_size+0x33333313>
800058bc:	01497ab3          	and	s5,s2,s4
800058c0:	00295913          	srl	s2,s2,0x2
800058c4:	01497933          	and	s2,s2,s4
800058c8:	012a8933          	add	s2,s5,s2
800058cc:	00495a13          	srl	s4,s2,0x4
800058d0:	01490933          	add	s2,s2,s4
800058d4:	0f0f1a37          	lui	s4,0xf0f1
800058d8:	f0fa0a13          	add	s4,s4,-241 # f0f0f0f <__tbss_size+0xf0f0eef>
800058dc:	01497933          	and	s2,s2,s4
800058e0:	01010a37          	lui	s4,0x1010
800058e4:	101a0a13          	add	s4,s4,257 # 1010101 <__tbss_size+0x10100e1>
800058e8:	03490933          	mul	s2,s2,s4
800058ec:	01895913          	srl	s2,s2,0x18
800058f0:	02096b93          	or	s7,s2,32
800058f4:	0004b00b          	.4byte	0x4b00b
800058f8:	ff5b8493          	add	s1,s7,-11
800058fc:	02a00913          	li	s2,42
80005900:	41790933          	sub	s2,s2,s7
80005904:	00155a13          	srl	s4,a0,0x1
80005908:	012a5933          	srl	s2,s4,s2
8000590c:	00939a33          	sll	s4,t2,s1
80005910:	012a6933          	or	s2,s4,s2
80005914:	fd5b8a13          	add	s4,s7,-43
80005918:	000a2c13          	slti	s8,s4,0
8000591c:	0f895933          	.4byte	0xf895933
80005920:	01451a33          	sll	s4,a0,s4
80005924:	0f8a7a33          	.4byte	0xf8a7a33
80005928:	01496ab3          	or	s5,s2,s4
8000592c:	009514b3          	sll	s1,a0,s1
80005930:	0f84da33          	.4byte	0xf84da33
80005934:	00c00493          	li	s1,12
80005938:	417484b3          	sub	s1,s1,s7
8000593c:	0007b00b          	.4byte	0x7b00b
80005940:	001db913          	seqz	s2,s11
80005944:	0019278b          	.4byte	0x19278b
80005948:	00060c93          	mv	s9,a2
8000594c:	000e8d13          	mv	s10,t4
80005950:	16090463          	beqz	s2,80005ab8 <__muldf3+0x444>
80005954:	01d03933          	snez	s2,t4
80005958:	00192c0b          	.4byte	0x192c0b
8000595c:	00100c93          	li	s9,1
80005960:	08090263          	beqz	s2,800059e4 <__muldf3+0x370>
80005964:	00000c93          	li	s9,0
80005968:	001ed913          	srl	s2,t4,0x1
8000596c:	012ee933          	or	s2,t4,s2
80005970:	00295b93          	srl	s7,s2,0x2
80005974:	01796933          	or	s2,s2,s7
80005978:	00495b93          	srl	s7,s2,0x4
8000597c:	01796933          	or	s2,s2,s7
80005980:	00895b93          	srl	s7,s2,0x8
80005984:	01796933          	or	s2,s2,s7
80005988:	01095b93          	srl	s7,s2,0x10
8000598c:	01796933          	or	s2,s2,s7
80005990:	fff94913          	not	s2,s2
80005994:	00195b93          	srl	s7,s2,0x1
80005998:	55555d37          	lui	s10,0x55555
8000599c:	555d0d13          	add	s10,s10,1365 # 55555555 <__tbss_size+0x55555535>
800059a0:	01abfbb3          	and	s7,s7,s10
800059a4:	41790933          	sub	s2,s2,s7
800059a8:	33333bb7          	lui	s7,0x33333
800059ac:	333b8b93          	add	s7,s7,819 # 33333333 <__tbss_size+0x33333313>
800059b0:	01797d33          	and	s10,s2,s7
800059b4:	00295913          	srl	s2,s2,0x2
800059b8:	01797933          	and	s2,s2,s7
800059bc:	012d0933          	add	s2,s10,s2
800059c0:	00495b93          	srl	s7,s2,0x4
800059c4:	01790933          	add	s2,s2,s7
800059c8:	0f0f1bb7          	lui	s7,0xf0f1
800059cc:	f0fb8b93          	add	s7,s7,-241 # f0f0f0f <__tbss_size+0xf0f0eef>
800059d0:	01797933          	and	s2,s2,s7
800059d4:	01010bb7          	lui	s7,0x1010
800059d8:	101b8b93          	add	s7,s7,257 # 1010101 <__tbss_size+0x10100e1>
800059dc:	03790933          	mul	s2,s2,s7
800059e0:	01895d93          	srl	s11,s2,0x18
800059e4:	000c300b          	.4byte	0xc300b
800059e8:	001cab8b          	.4byte	0x1cab8b
800059ec:	080c8263          	beqz	s9,80005a70 <__muldf3+0x3fc>
800059f0:	00165913          	srl	s2,a2,0x1
800059f4:	01266933          	or	s2,a2,s2
800059f8:	00295c13          	srl	s8,s2,0x2
800059fc:	01896933          	or	s2,s2,s8
80005a00:	00495c13          	srl	s8,s2,0x4
80005a04:	01896933          	or	s2,s2,s8
80005a08:	00895c13          	srl	s8,s2,0x8
80005a0c:	01896933          	or	s2,s2,s8
80005a10:	01095c13          	srl	s8,s2,0x10
80005a14:	01896933          	or	s2,s2,s8
80005a18:	fff94913          	not	s2,s2
80005a1c:	00195c13          	srl	s8,s2,0x1
80005a20:	55555cb7          	lui	s9,0x55555
80005a24:	555c8c93          	add	s9,s9,1365 # 55555555 <__tbss_size+0x55555535>
80005a28:	019c7c33          	and	s8,s8,s9
80005a2c:	41890933          	sub	s2,s2,s8
80005a30:	33333c37          	lui	s8,0x33333
80005a34:	333c0c13          	add	s8,s8,819 # 33333333 <__tbss_size+0x33333313>
80005a38:	01897cb3          	and	s9,s2,s8
80005a3c:	00295913          	srl	s2,s2,0x2
80005a40:	01897933          	and	s2,s2,s8
80005a44:	012c8933          	add	s2,s9,s2
80005a48:	00495c13          	srl	s8,s2,0x4
80005a4c:	01890933          	add	s2,s2,s8
80005a50:	0f0f1c37          	lui	s8,0xf0f1
80005a54:	f0fc0c13          	add	s8,s8,-241 # f0f0f0f <__tbss_size+0xf0f0eef>
80005a58:	01897933          	and	s2,s2,s8
80005a5c:	01010c37          	lui	s8,0x1010
80005a60:	101c0c13          	add	s8,s8,257 # 1010101 <__tbss_size+0x10100e1>
80005a64:	03890933          	mul	s2,s2,s8
80005a68:	01895913          	srl	s2,s2,0x18
80005a6c:	02096d93          	or	s11,s2,32
80005a70:	000bb00b          	.4byte	0xbb00b
80005a74:	ff5d8913          	add	s2,s11,-11
80005a78:	02a00b93          	li	s7,42
80005a7c:	41bb8bb3          	sub	s7,s7,s11
80005a80:	00165c13          	srl	s8,a2,0x1
80005a84:	017c5bb3          	srl	s7,s8,s7
80005a88:	012e9c33          	sll	s8,t4,s2
80005a8c:	017c6bb3          	or	s7,s8,s7
80005a90:	fd5d8c13          	add	s8,s11,-43
80005a94:	000c2c93          	slti	s9,s8,0
80005a98:	0f9bdbb3          	.4byte	0xf9bdbb3
80005a9c:	01861c33          	sll	s8,a2,s8
80005aa0:	0f9c7c33          	.4byte	0xf9c7c33
80005aa4:	018bed33          	or	s10,s7,s8
80005aa8:	01261933          	sll	s2,a2,s2
80005aac:	0f995cb3          	.4byte	0xf995cb3
80005ab0:	41b484b3          	sub	s1,s1,s11
80005ab4:	00c48493          	add	s1,s1,12
80005ab8:	0007b00b          	.4byte	0x7b00b
80005abc:	00000b93          	li	s7,0
80005ac0:	00100c13          	li	s8,1
80005ac4:	0007300b          	.4byte	0x7300b
80005ac8:	001bad8b          	.4byte	0x1bad8b
80005acc:	020b8263          	beqz	s7,80005af0 <__muldf3+0x47c>
80005ad0:	00000493          	li	s1,0
80005ad4:	00000c13          	li	s8,0
80005ad8:	00000713          	li	a4,0
80005adc:	00050a13          	mv	s4,a0
80005ae0:	00038a93          	mv	s5,t2
80005ae4:	00060c93          	mv	s9,a2
80005ae8:	000e8d13          	mv	s10,t4
80005aec:	00080793          	mv	a5,a6
80005af0:	000db00b          	.4byte	0xdb00b
80005af4:	00000b93          	li	s7,0
80005af8:	00412903          	lw	s2,4(sp)
80005afc:	0009300b          	.4byte	0x9300b
80005b00:	001bad8b          	.4byte	0x1bad8b
80005b04:	020b8263          	beqz	s7,80005b28 <__muldf3+0x4b4>
80005b08:	00000493          	li	s1,0
80005b0c:	00000c13          	li	s8,0
80005b10:	00000713          	li	a4,0
80005b14:	00050a13          	mv	s4,a0
80005b18:	00038a93          	mv	s5,t2
80005b1c:	00060c93          	mv	s9,a2
80005b20:	000e8d13          	mv	s10,t4
80005b24:	00080793          	mv	a5,a6
80005b28:	000db00b          	.4byte	0xdb00b
80005b2c:	00000b93          	li	s7,0
80005b30:	000b300b          	.4byte	0xb300b
80005b34:	001bab0b          	.4byte	0x1bab0b
80005b38:	020b8c63          	beqz	s7,80005b70 <__muldf3+0x4fc>
80005b3c:	00000493          	li	s1,0
80005b40:	00000c13          	li	s8,0
80005b44:	00000713          	li	a4,0
80005b48:	7ff007b7          	lui	a5,0x7ff00
80005b4c:	00f867b3          	or	a5,a6,a5
80005b50:	0f37d7b3          	.4byte	0xf37d7b3
80005b54:	7ff80937          	lui	s2,0x7ff80
80005b58:	0f397933          	.4byte	0xf397933
80005b5c:	00f967b3          	or	a5,s2,a5
80005b60:	00050a13          	mv	s4,a0
80005b64:	00038a93          	mv	s5,t2
80005b68:	00060c93          	mv	s9,a2
80005b6c:	000e8d13          	mv	s10,t4
80005b70:	000b300b          	.4byte	0xb300b
80005b74:	00000b13          	li	s6,0
80005b78:	00812903          	lw	s2,8(sp)
80005b7c:	0009300b          	.4byte	0x9300b
80005b80:	001b290b          	.4byte	0x1b290b
80005b84:	020b0e63          	beqz	s6,80005bc0 <__muldf3+0x54c>
80005b88:	00000493          	li	s1,0
80005b8c:	00000c13          	li	s8,0
80005b90:	00000713          	li	a4,0
80005b94:	00866433          	or	s0,a2,s0
80005b98:	7ff007b7          	lui	a5,0x7ff00
80005b9c:	00f867b3          	or	a5,a6,a5
80005ba0:	0e87d7b3          	.4byte	0xe87d7b3
80005ba4:	7ff809b7          	lui	s3,0x7ff80
80005ba8:	0e89f433          	.4byte	0xe89f433
80005bac:	00f467b3          	or	a5,s0,a5
80005bb0:	00050a13          	mv	s4,a0
80005bb4:	00038a93          	mv	s5,t2
80005bb8:	00060c93          	mv	s9,a2
80005bbc:	000e8d13          	mv	s10,t4
80005bc0:	0009300b          	.4byte	0x9300b
80005bc4:	00000913          	li	s2,0
80005bc8:	000fb00b          	.4byte	0xfb00b
80005bcc:	00192f8b          	.4byte	0x192f8b
80005bd0:	02090463          	beqz	s2,80005bf8 <__muldf3+0x584>
80005bd4:	00000493          	li	s1,0
80005bd8:	00000c13          	li	s8,0
80005bdc:	000807b7          	lui	a5,0x80
80005be0:	00f6e7b3          	or	a5,a3,a5
80005be4:	00050a13          	mv	s4,a0
80005be8:	00038a93          	mv	s5,t2
80005bec:	00060c93          	mv	s9,a2
80005bf0:	000e8d13          	mv	s10,t4
80005bf4:	00060713          	mv	a4,a2
80005bf8:	000fb00b          	.4byte	0xfb00b
80005bfc:	00000f93          	li	t6,0
80005c00:	000f300b          	.4byte	0xf300b
80005c04:	001fa68b          	.4byte	0x1fa68b
80005c08:	020f8463          	beqz	t6,80005c30 <__muldf3+0x5bc>
80005c0c:	00000c13          	li	s8,0
80005c10:	00000493          	li	s1,0
80005c14:	000807b7          	lui	a5,0x80
80005c18:	00f5e7b3          	or	a5,a1,a5
80005c1c:	00050713          	mv	a4,a0
80005c20:	00060c93          	mv	s9,a2
80005c24:	000e8d13          	mv	s10,t4
80005c28:	00050a13          	mv	s4,a0
80005c2c:	00038a93          	mv	s5,t2
80005c30:	0006b00b          	.4byte	0x6b00b
80005c34:	000a0513          	mv	a0,s4
80005c38:	000a8393          	mv	t2,s5
80005c3c:	000c8613          	mv	a2,s9
80005c40:	000d0e93          	mv	t4,s10
80005c44:	fff00f13          	li	t5,-1
80005c48:	000e300b          	.4byte	0xe300b
80005c4c:	001c7693          	and	a3,s8,1
80005c50:	0016a58b          	.4byte	0x16a58b
80005c54:	2c068263          	beqz	a3,80005f18 <__muldf3+0x8a4>
80005c58:	01565693          	srl	a3,a2,0x15
80005c5c:	00be9e93          	sll	t4,t4,0xb
80005c60:	00b61e13          	sll	t3,a2,0xb
80005c64:	02ae0633          	mul	a2,t3,a0
80005c68:	02ae3fb3          	mulhu	t6,t3,a0
80005c6c:	80000437          	lui	s0,0x80000
80005c70:	0086e6b3          	or	a3,a3,s0
80005c74:	00dee6b3          	or	a3,t4,a3
80005c78:	02a6beb3          	mulhu	t4,a3,a0
80005c7c:	02a68533          	mul	a0,a3,a0
80005c80:	00100437          	lui	s0,0x100
80005c84:	0083e3b3          	or	t2,t2,s0
80005c88:	027e3433          	mulhu	s0,t3,t2
80005c8c:	027e0e33          	mul	t3,t3,t2
80005c90:	0276b933          	mulhu	s2,a3,t2
80005c94:	027686b3          	mul	a3,a3,t2
80005c98:	01fe0fb3          	add	t6,t3,t6
80005c9c:	01cfb3b3          	sltu	t2,t6,t3
80005ca0:	00af8533          	add	a0,t6,a0
80005ca4:	01f53e33          	sltu	t3,a0,t6
80005ca8:	01c383b3          	add	t2,t2,t3
80005cac:	00d406b3          	add	a3,s0,a3
80005cb0:	0086be33          	sltu	t3,a3,s0
80005cb4:	01c90e33          	add	t3,s2,t3
80005cb8:	01d68eb3          	add	t4,a3,t4
80005cbc:	00deb6b3          	sltu	a3,t4,a3
80005cc0:	00de06b3          	add	a3,t3,a3
80005cc4:	007e83b3          	add	t2,t4,t2
80005cc8:	01d3be33          	sltu	t3,t2,t4
80005ccc:	01c686b3          	add	a3,a3,t3
80005cd0:	006282b3          	add	t0,t0,t1
80005cd4:	009282b3          	add	t0,t0,s1
80005cd8:	c0128293          	add	t0,t0,-1023
80005cdc:	001f0313          	add	t1,t5,1
80005ce0:	00133e13          	seqz	t3,t1
80005ce4:	01c88e33          	add	t3,a7,t3
80005ce8:	01c6fe33          	and	t3,a3,t3
80005cec:	0063f333          	and	t1,t2,t1
80005cf0:	01c36333          	or	t1,t1,t3
80005cf4:	00603fb3          	snez	t6,t1
80005cf8:	001fa30b          	.4byte	0x1fa30b
80005cfc:	00100e93          	li	t4,1
80005d00:	000f8663          	beqz	t6,80005d0c <__muldf3+0x698>
80005d04:	00000e93          	li	t4,0
80005d08:	00128e13          	add	t3,t0,1
80005d0c:	0003300b          	.4byte	0x3300b
80005d10:	001ea30b          	.4byte	0x1ea30b
80005d14:	020e8863          	beqz	t4,80005d44 <__muldf3+0x6d0>
80005d18:	01f3de13          	srl	t3,t2,0x1f
80005d1c:	00169693          	sll	a3,a3,0x1
80005d20:	01c6e6b3          	or	a3,a3,t3
80005d24:	00139393          	sll	t2,t2,0x1
80005d28:	01f55e13          	srl	t3,a0,0x1f
80005d2c:	01c3e3b3          	or	t2,t2,t3
80005d30:	01f65e13          	srl	t3,a2,0x1f
80005d34:	00151513          	sll	a0,a0,0x1
80005d38:	01c56533          	or	a0,a0,t3
80005d3c:	00161613          	sll	a2,a2,0x1
80005d40:	00028e13          	mv	t3,t0
80005d44:	0003300b          	.4byte	0x3300b
80005d48:	7ffe2413          	slti	s0,t3,2047
80005d4c:	0014228b          	.4byte	0x14228b
80005d50:	00100313          	li	t1,1
80005d54:	1a040063          	beqz	s0,80005ef4 <__muldf3+0x880>
80005d58:	00000313          	li	t1,0
80005d5c:	01c02fb3          	sgtz	t6,t3
80005d60:	001fae8b          	.4byte	0x1fae8b
80005d64:	00100913          	li	s2,1
80005d68:	000f8e63          	beqz	t6,80005d84 <__muldf3+0x710>
80005d6c:	00000913          	li	s2,0
80005d70:	01e3f433          	and	s0,t2,t5
80005d74:	0116f8b3          	and	a7,a3,a7
80005d78:	014e1313          	sll	t1,t3,0x14
80005d7c:	011364b3          	or	s1,t1,a7
80005d80:	00100313          	li	t1,1
80005d84:	000eb00b          	.4byte	0xeb00b
80005d88:	0019288b          	.4byte	0x19288b
80005d8c:	10090863          	beqz	s2,80005e9c <__muldf3+0x828>
80005d90:	00100493          	li	s1,1
80005d94:	41c48f33          	sub	t5,s1,t3
80005d98:	040f3313          	sltiu	t1,t5,64
80005d9c:	00134913          	xor	s2,t1,1
80005da0:	0019240b          	.4byte	0x19240b
80005da4:	00090863          	beqz	s2,80005db4 <__muldf3+0x740>
80005da8:	00000493          	li	s1,0
80005dac:	00000e93          	li	t4,0
80005db0:	00080f93          	mv	t6,a6
80005db4:	0004300b          	.4byte	0x4300b
80005db8:	0014a40b          	.4byte	0x14a40b
80005dbc:	0c048a63          	beqz	s1,80005e90 <__muldf3+0x81c>
80005dc0:	03fe0e93          	add	t4,t3,63
80005dc4:	00165f93          	srl	t6,a2,0x1
80005dc8:	41c004b3          	neg	s1,t3
80005dcc:	009fdfb3          	srl	t6,t6,s1
80005dd0:	01d51933          	sll	s2,a0,t4
80005dd4:	01f96fb3          	or	t6,s2,t6
80005dd8:	01fe0e13          	add	t3,t3,31
80005ddc:	000e2913          	slti	s2,t3,0
80005de0:	0f2fdfb3          	.4byte	0xf2fdfb3
80005de4:	01c619b3          	sll	s3,a2,t3
80005de8:	0f29f9b3          	.4byte	0xf29f9b3
80005dec:	01d61a33          	sll	s4,a2,t4
80005df0:	0f2a5a33          	.4byte	0xf2a5a33
80005df4:	013a69b3          	or	s3,s4,s3
80005df8:	01f9efb3          	or	t6,s3,t6
80005dfc:	01f03fb3          	snez	t6,t6
80005e00:	0013d993          	srl	s3,t2,0x1
80005e04:	0099d4b3          	srl	s1,s3,s1
80005e08:	01d699b3          	sll	s3,a3,t4
80005e0c:	0099e4b3          	or	s1,s3,s1
80005e10:	0f24d4b3          	.4byte	0xf24d4b3
80005e14:	01c39e33          	sll	t3,t2,t3
80005e18:	0f2e7e33          	.4byte	0xf2e7e33
80005e1c:	01c4ee33          	or	t3,s1,t3
80005e20:	01d39eb3          	sll	t4,t2,t4
80005e24:	0f2edeb3          	.4byte	0xf2edeb3
80005e28:	01e65633          	srl	a2,a2,t5
80005e2c:	00151493          	sll	s1,a0,0x1
80005e30:	ffff4913          	not	s2,t5
80005e34:	012494b3          	sll	s1,s1,s2
80005e38:	00966633          	or	a2,a2,s1
80005e3c:	fe0f0493          	add	s1,t5,-32
80005e40:	0004a493          	slti	s1,s1,0
80005e44:	0e965633          	.4byte	0xe965633
80005e48:	01e55533          	srl	a0,a0,t5
80005e4c:	0e9579b3          	.4byte	0xe9579b3
80005e50:	0e955533          	.4byte	0xe955533
80005e54:	00ae6533          	or	a0,t3,a0
80005e58:	013eee33          	or	t3,t4,s3
80005e5c:	00ce6633          	or	a2,t3,a2
80005e60:	01f66633          	or	a2,a2,t6
80005e64:	01e3d3b3          	srl	t2,t2,t5
80005e68:	00169e13          	sll	t3,a3,0x1
80005e6c:	012e1e33          	sll	t3,t3,s2
80005e70:	01c3e3b3          	or	t2,t2,t3
80005e74:	0e93d3b3          	.4byte	0xe93d3b3
80005e78:	01e6d6b3          	srl	a3,a3,t5
80005e7c:	0e96fe33          	.4byte	0xe96fe33
80005e80:	01c3e3b3          	or	t2,t2,t3
80005e84:	0e96d6b3          	.4byte	0xe96d6b3
80005e88:	00070e93          	mv	t4,a4
80005e8c:	00078f93          	mv	t6,a5
80005e90:	0004300b          	.4byte	0x4300b
80005e94:	00038413          	mv	s0,t2
80005e98:	00068493          	mv	s1,a3
80005e9c:	0008b00b          	.4byte	0x8b00b
80005ea0:	0013268b          	.4byte	0x13268b
80005ea4:	04030463          	beqz	t1,80005eec <__muldf3+0x878>
80005ea8:	0104e733          	or	a4,s1,a6
80005eac:	800007b7          	lui	a5,0x80000
80005eb0:	00f548b3          	xor	a7,a0,a5
80005eb4:	00a7b533          	sltu	a0,a5,a0
80005eb8:	0f155533          	.4byte	0xf155533
80005ebc:	00c037b3          	snez	a5,a2
80005ec0:	0f17f7b3          	.4byte	0xf17f7b3
80005ec4:	00a7e533          	or	a0,a5,a0
80005ec8:	00a40533          	add	a0,s0,a0
80005ecc:	008537b3          	sltu	a5,a0,s0
80005ed0:	00f70733          	add	a4,a4,a5
80005ed4:	01166633          	or	a2,a2,a7
80005ed8:	00163613          	seqz	a2,a2
80005edc:	00a67633          	and	a2,a2,a0
80005ee0:	00a60eb3          	add	t4,a2,a0
80005ee4:	00cebfb3          	sltu	t6,t4,a2
80005ee8:	01f70fb3          	add	t6,a4,t6
80005eec:	0006b00b          	.4byte	0x6b00b
80005ef0:	00000313          	li	t1,0
80005ef4:	0002b00b          	.4byte	0x2b00b
80005ef8:	0013250b          	.4byte	0x13250b
80005efc:	00030863          	beqz	t1,80005f0c <__muldf3+0x898>
80005f00:	00000e93          	li	t4,0
80005f04:	7ff00637          	lui	a2,0x7ff00
80005f08:	00c86fb3          	or	t6,a6,a2
80005f0c:	0005300b          	.4byte	0x5300b
80005f10:	000e8713          	mv	a4,t4
80005f14:	000f8793          	mv	a5,t6
80005f18:	0005b00b          	.4byte	0x5b00b
80005f1c:	00070513          	mv	a0,a4
80005f20:	00078593          	mv	a1,a5
80005f24:	03c12083          	lw	ra,60(sp)
80005f28:	03812403          	lw	s0,56(sp)
80005f2c:	03412483          	lw	s1,52(sp)
80005f30:	03012903          	lw	s2,48(sp)
80005f34:	02c12983          	lw	s3,44(sp)
80005f38:	02812a03          	lw	s4,40(sp)
80005f3c:	02412a83          	lw	s5,36(sp)
80005f40:	02012b03          	lw	s6,32(sp)
80005f44:	01c12b83          	lw	s7,28(sp)
80005f48:	01812c03          	lw	s8,24(sp)
80005f4c:	01412c83          	lw	s9,20(sp)
80005f50:	01012d03          	lw	s10,16(sp)
80005f54:	00c12d83          	lw	s11,12(sp)
80005f58:	04010113          	add	sp,sp,64
80005f5c:	00008067          	ret

80005f60 <__subdf3>:
80005f60:	80000737          	lui	a4,0x80000
80005f64:	00e6c6b3          	xor	a3,a3,a4
80005f68:	c7dfd06f          	j	80003be4 <__adddf3>

80005f6c <__udivdi3>:
80005f6c:	00d66733          	or	a4,a2,a3
80005f70:	00e037b3          	snez	a5,a4
80005f74:	0017a70b          	.4byte	0x17a70b
80005f78:	04000813          	li	a6,64
80005f7c:	0e078663          	beqz	a5,80006068 <__udivdi3+0xfc>
80005f80:	00165793          	srl	a5,a2,0x1
80005f84:	00f667b3          	or	a5,a2,a5
80005f88:	0027d813          	srl	a6,a5,0x2
80005f8c:	0107e7b3          	or	a5,a5,a6
80005f90:	0047d813          	srl	a6,a5,0x4
80005f94:	0107e7b3          	or	a5,a5,a6
80005f98:	0087d813          	srl	a6,a5,0x8
80005f9c:	0107e7b3          	or	a5,a5,a6
80005fa0:	0107d813          	srl	a6,a5,0x10
80005fa4:	0107e7b3          	or	a5,a5,a6
80005fa8:	fff7c793          	not	a5,a5
80005fac:	0017d813          	srl	a6,a5,0x1
80005fb0:	555558b7          	lui	a7,0x55555
80005fb4:	55588893          	add	a7,a7,1365 # 55555555 <__tbss_size+0x55555535>
80005fb8:	01187833          	and	a6,a6,a7
80005fbc:	410787b3          	sub	a5,a5,a6
80005fc0:	33333837          	lui	a6,0x33333
80005fc4:	33380813          	add	a6,a6,819 # 33333333 <__tbss_size+0x33333313>
80005fc8:	0107f2b3          	and	t0,a5,a6
80005fcc:	0027d793          	srl	a5,a5,0x2
80005fd0:	0107f7b3          	and	a5,a5,a6
80005fd4:	00f287b3          	add	a5,t0,a5
80005fd8:	0047d293          	srl	t0,a5,0x4
80005fdc:	005787b3          	add	a5,a5,t0
80005fe0:	0f0f12b7          	lui	t0,0xf0f1
80005fe4:	f0f28293          	add	t0,t0,-241 # f0f0f0f <__tbss_size+0xf0f0eef>
80005fe8:	0057f7b3          	and	a5,a5,t0
80005fec:	01010337          	lui	t1,0x1010
80005ff0:	10130313          	add	t1,t1,257 # 1010101 <__tbss_size+0x10100e1>
80005ff4:	026787b3          	mul	a5,a5,t1
80005ff8:	0187d793          	srl	a5,a5,0x18
80005ffc:	02078793          	add	a5,a5,32 # 80000020 <_start+0x20>
80006000:	0ed7f7b3          	.4byte	0xed7f7b3
80006004:	0016d393          	srl	t2,a3,0x1
80006008:	0076e3b3          	or	t2,a3,t2
8000600c:	0023de13          	srl	t3,t2,0x2
80006010:	01c3e3b3          	or	t2,t2,t3
80006014:	0043de13          	srl	t3,t2,0x4
80006018:	01c3e3b3          	or	t2,t2,t3
8000601c:	0083de13          	srl	t3,t2,0x8
80006020:	01c3e3b3          	or	t2,t2,t3
80006024:	0103de13          	srl	t3,t2,0x10
80006028:	01c3e3b3          	or	t2,t2,t3
8000602c:	fff3c393          	not	t2,t2
80006030:	0013de13          	srl	t3,t2,0x1
80006034:	011e78b3          	and	a7,t3,a7
80006038:	411388b3          	sub	a7,t2,a7
8000603c:	0108f3b3          	and	t2,a7,a6
80006040:	0028d893          	srl	a7,a7,0x2
80006044:	0108f833          	and	a6,a7,a6
80006048:	01038833          	add	a6,t2,a6
8000604c:	00485893          	srl	a7,a6,0x4
80006050:	01180833          	add	a6,a6,a7
80006054:	00587833          	and	a6,a6,t0
80006058:	02680833          	mul	a6,a6,t1
8000605c:	01885813          	srl	a6,a6,0x18
80006060:	0ed85833          	.4byte	0xed85833
80006064:	00f86833          	or	a6,a6,a5
80006068:	0007300b          	.4byte	0x7300b
8000606c:	00b56733          	or	a4,a0,a1
80006070:	00e037b3          	snez	a5,a4
80006074:	0017a70b          	.4byte	0x17a70b
80006078:	04000313          	li	t1,64
8000607c:	00155293          	srl	t0,a0,0x1
80006080:	0e078463          	beqz	a5,80006168 <__udivdi3+0x1fc>
80006084:	005567b3          	or	a5,a0,t0
80006088:	0027d893          	srl	a7,a5,0x2
8000608c:	0117e7b3          	or	a5,a5,a7
80006090:	0047d893          	srl	a7,a5,0x4
80006094:	0117e7b3          	or	a5,a5,a7
80006098:	0087d893          	srl	a7,a5,0x8
8000609c:	0117e7b3          	or	a5,a5,a7
800060a0:	0107d893          	srl	a7,a5,0x10
800060a4:	0117e7b3          	or	a5,a5,a7
800060a8:	fff7c793          	not	a5,a5
800060ac:	0017d893          	srl	a7,a5,0x1
800060b0:	55555337          	lui	t1,0x55555
800060b4:	55530313          	add	t1,t1,1365 # 55555555 <__tbss_size+0x55555535>
800060b8:	0068f8b3          	and	a7,a7,t1
800060bc:	411787b3          	sub	a5,a5,a7
800060c0:	333338b7          	lui	a7,0x33333
800060c4:	33388893          	add	a7,a7,819 # 33333333 <__tbss_size+0x33333313>
800060c8:	0117f3b3          	and	t2,a5,a7
800060cc:	0027d793          	srl	a5,a5,0x2
800060d0:	0117f7b3          	and	a5,a5,a7
800060d4:	00f387b3          	add	a5,t2,a5
800060d8:	0047d393          	srl	t2,a5,0x4
800060dc:	007787b3          	add	a5,a5,t2
800060e0:	0f0f13b7          	lui	t2,0xf0f1
800060e4:	f0f38393          	add	t2,t2,-241 # f0f0f0f <__tbss_size+0xf0f0eef>
800060e8:	0077f7b3          	and	a5,a5,t2
800060ec:	01010e37          	lui	t3,0x1010
800060f0:	101e0e13          	add	t3,t3,257 # 1010101 <__tbss_size+0x10100e1>
800060f4:	03c787b3          	mul	a5,a5,t3
800060f8:	0187d793          	srl	a5,a5,0x18
800060fc:	02078793          	add	a5,a5,32
80006100:	0eb7f7b3          	.4byte	0xeb7f7b3
80006104:	0015de93          	srl	t4,a1,0x1
80006108:	01d5eeb3          	or	t4,a1,t4
8000610c:	002edf13          	srl	t5,t4,0x2
80006110:	01eeeeb3          	or	t4,t4,t5
80006114:	004edf13          	srl	t5,t4,0x4
80006118:	01eeeeb3          	or	t4,t4,t5
8000611c:	008edf13          	srl	t5,t4,0x8
80006120:	01eeeeb3          	or	t4,t4,t5
80006124:	010edf13          	srl	t5,t4,0x10
80006128:	01eeeeb3          	or	t4,t4,t5
8000612c:	fffece93          	not	t4,t4
80006130:	001edf13          	srl	t5,t4,0x1
80006134:	006f7333          	and	t1,t5,t1
80006138:	406e8333          	sub	t1,t4,t1
8000613c:	01137eb3          	and	t4,t1,a7
80006140:	00235313          	srl	t1,t1,0x2
80006144:	011378b3          	and	a7,t1,a7
80006148:	011e88b3          	add	a7,t4,a7
8000614c:	0048d313          	srl	t1,a7,0x4
80006150:	006888b3          	add	a7,a7,t1
80006154:	0078f8b3          	and	a7,a7,t2
80006158:	03c888b3          	mul	a7,a7,t3
8000615c:	0188d893          	srl	a7,a7,0x18
80006160:	0eb8d8b3          	.4byte	0xeb8d8b3
80006164:	00f8e333          	or	t1,a7,a5
80006168:	0007300b          	.4byte	0x7300b
8000616c:	00000713          	li	a4,0
80006170:	00000793          	li	a5,0
80006174:	406803b3          	sub	t2,a6,t1
80006178:	0403be13          	sltiu	t3,t2,64
8000617c:	001e288b          	.4byte	0x1e288b
80006180:	140e0063          	beqz	t3,800062c0 <__udivdi3+0x354>
80006184:	fc138713          	add	a4,t2,-63
80006188:	00e037b3          	snez	a5,a4
8000618c:	0017a70b          	.4byte	0x17a70b
80006190:	12078263          	beqz	a5,800062b4 <__udivdi3+0x348>
80006194:	ff010113          	add	sp,sp,-16
80006198:	00812623          	sw	s0,12(sp)
8000619c:	00000793          	li	a5,0
800061a0:	00000e13          	li	t3,0
800061a4:	00138f13          	add	t5,t2,1
800061a8:	01e55eb3          	srl	t4,a0,t5
800061ac:	01e00f93          	li	t6,30
800061b0:	407f8fb3          	sub	t6,t6,t2
800061b4:	00159413          	sll	s0,a1,0x1
800061b8:	01f41fb3          	sll	t6,s0,t6
800061bc:	01feeeb3          	or	t4,t4,t6
800061c0:	fe138f93          	add	t6,t2,-31
800061c4:	000fa413          	slti	s0,t6,0
800061c8:	0e8edeb3          	.4byte	0xe8edeb3
800061cc:	01f5dfb3          	srl	t6,a1,t6
800061d0:	0e8fffb3          	.4byte	0xe8fffb3
800061d4:	01feeeb3          	or	t4,t4,t6
800061d8:	01e5df33          	srl	t5,a1,t5
800061dc:	0e8f5f33          	.4byte	0xe8f5f33
800061e0:	03f3c393          	xor	t2,t2,63
800061e4:	fff3cf93          	not	t6,t2
800061e8:	01f2d2b3          	srl	t0,t0,t6
800061ec:	007595b3          	sll	a1,a1,t2
800061f0:	0055e5b3          	or	a1,a1,t0
800061f4:	fe038293          	add	t0,t2,-32
800061f8:	0002a293          	slti	t0,t0,0
800061fc:	0e55d5b3          	.4byte	0xe55d5b3
80006200:	00751533          	sll	a0,a0,t2
80006204:	0e5573b3          	.4byte	0xe5573b3
80006208:	0075e5b3          	or	a1,a1,t2
8000620c:	0e555533          	.4byte	0xe555533
80006210:	fff84813          	not	a6,a6
80006214:	00680333          	add	t1,a6,t1
80006218:	cc402873          	csrr	a6,0xcc4
8000621c:	00c12403          	lw	s0,12(sp)
80006220:	01010113          	add	sp,sp,16
80006224:	001e9293          	sll	t0,t4,0x1
80006228:	01f5d393          	srl	t2,a1,0x1f
8000622c:	0072e2b3          	or	t0,t0,t2
80006230:	01fed393          	srl	t2,t4,0x1f
80006234:	001f1f13          	sll	t5,t5,0x1
80006238:	007f63b3          	or	t2,t5,t2
8000623c:	01f55e93          	srl	t4,a0,0x1f
80006240:	00159593          	sll	a1,a1,0x1
80006244:	01d5e5b3          	or	a1,a1,t4
80006248:	00151513          	sll	a0,a0,0x1
8000624c:	00f56533          	or	a0,a0,a5
80006250:	01c5e5b3          	or	a1,a1,t3
80006254:	fff3c793          	not	a5,t2
80006258:	fff2ce13          	not	t3,t0
8000625c:	00ce0eb3          	add	t4,t3,a2
80006260:	01cebe33          	sltu	t3,t4,t3
80006264:	00d787b3          	add	a5,a5,a3
80006268:	01c78e33          	add	t3,a5,t3
8000626c:	01fe5793          	srl	a5,t3,0x1f
80006270:	41fe5e13          	sra	t3,t3,0x1f
80006274:	00de7eb3          	and	t4,t3,a3
80006278:	00ce7e33          	and	t3,t3,a2
8000627c:	01c2bf33          	sltu	t5,t0,t3
80006280:	41d383b3          	sub	t2,t2,t4
80006284:	41e38f33          	sub	t5,t2,t5
80006288:	41c28eb3          	sub	t4,t0,t3
8000628c:	00130313          	add	t1,t1,1
80006290:	00133293          	seqz	t0,t1
80006294:	0102d08b          	.4byte	0x102d08b
80006298:	00000e13          	li	t3,0
8000629c:	f80284e3          	beqz	t0,80006224 <__udivdi3+0x2b8>
800062a0:	01f55613          	srl	a2,a0,0x1f
800062a4:	00159593          	sll	a1,a1,0x1
800062a8:	00c5e5b3          	or	a1,a1,a2
800062ac:	00151513          	sll	a0,a0,0x1
800062b0:	00a7e533          	or	a0,a5,a0
800062b4:	0007300b          	.4byte	0x7300b
800062b8:	00050713          	mv	a4,a0
800062bc:	00058793          	mv	a5,a1
800062c0:	0008b00b          	.4byte	0x8b00b
800062c4:	00070513          	mv	a0,a4
800062c8:	00078593          	mv	a1,a5
800062cc:	00008067          	ret

800062d0 <__umoddi3>:
800062d0:	00d66733          	or	a4,a2,a3
800062d4:	00e03833          	snez	a6,a4
800062d8:	0018278b          	.4byte	0x18278b
800062dc:	04000713          	li	a4,64
800062e0:	0e080663          	beqz	a6,800063cc <__umoddi3+0xfc>
800062e4:	00165713          	srl	a4,a2,0x1
800062e8:	00e66733          	or	a4,a2,a4
800062ec:	00275813          	srl	a6,a4,0x2
800062f0:	01076733          	or	a4,a4,a6
800062f4:	00475813          	srl	a6,a4,0x4
800062f8:	01076733          	or	a4,a4,a6
800062fc:	00875813          	srl	a6,a4,0x8
80006300:	01076733          	or	a4,a4,a6
80006304:	01075813          	srl	a6,a4,0x10
80006308:	01076733          	or	a4,a4,a6
8000630c:	fff74713          	not	a4,a4
80006310:	00175813          	srl	a6,a4,0x1
80006314:	555558b7          	lui	a7,0x55555
80006318:	55588893          	add	a7,a7,1365 # 55555555 <__tbss_size+0x55555535>
8000631c:	01187833          	and	a6,a6,a7
80006320:	41070733          	sub	a4,a4,a6
80006324:	33333837          	lui	a6,0x33333
80006328:	33380813          	add	a6,a6,819 # 33333333 <__tbss_size+0x33333313>
8000632c:	010772b3          	and	t0,a4,a6
80006330:	00275713          	srl	a4,a4,0x2
80006334:	01077733          	and	a4,a4,a6
80006338:	00e28733          	add	a4,t0,a4
8000633c:	00475293          	srl	t0,a4,0x4
80006340:	00570733          	add	a4,a4,t0
80006344:	0f0f12b7          	lui	t0,0xf0f1
80006348:	f0f28293          	add	t0,t0,-241 # f0f0f0f <__tbss_size+0xf0f0eef>
8000634c:	00577733          	and	a4,a4,t0
80006350:	01010337          	lui	t1,0x1010
80006354:	10130313          	add	t1,t1,257 # 1010101 <__tbss_size+0x10100e1>
80006358:	02670733          	mul	a4,a4,t1
8000635c:	01875713          	srl	a4,a4,0x18
80006360:	02070713          	add	a4,a4,32 # 80000020 <_start+0x20>
80006364:	0ed77733          	.4byte	0xed77733
80006368:	0016d393          	srl	t2,a3,0x1
8000636c:	0076e3b3          	or	t2,a3,t2
80006370:	0023de13          	srl	t3,t2,0x2
80006374:	01c3e3b3          	or	t2,t2,t3
80006378:	0043de13          	srl	t3,t2,0x4
8000637c:	01c3e3b3          	or	t2,t2,t3
80006380:	0083de13          	srl	t3,t2,0x8
80006384:	01c3e3b3          	or	t2,t2,t3
80006388:	0103de13          	srl	t3,t2,0x10
8000638c:	01c3e3b3          	or	t2,t2,t3
80006390:	fff3c393          	not	t2,t2
80006394:	0013de13          	srl	t3,t2,0x1
80006398:	011e78b3          	and	a7,t3,a7
8000639c:	411388b3          	sub	a7,t2,a7
800063a0:	0108f3b3          	and	t2,a7,a6
800063a4:	0028d893          	srl	a7,a7,0x2
800063a8:	0108f833          	and	a6,a7,a6
800063ac:	01038833          	add	a6,t2,a6
800063b0:	00485893          	srl	a7,a6,0x4
800063b4:	01180833          	add	a6,a6,a7
800063b8:	00587833          	and	a6,a6,t0
800063bc:	02680833          	mul	a6,a6,t1
800063c0:	01885813          	srl	a6,a6,0x18
800063c4:	0ed85833          	.4byte	0xed85833
800063c8:	00e86733          	or	a4,a6,a4
800063cc:	0007b00b          	.4byte	0x7b00b
800063d0:	00b567b3          	or	a5,a0,a1
800063d4:	00f038b3          	snez	a7,a5
800063d8:	0018a78b          	.4byte	0x18a78b
800063dc:	04000293          	li	t0,64
800063e0:	00155813          	srl	a6,a0,0x1
800063e4:	0e088463          	beqz	a7,800064cc <__umoddi3+0x1fc>
800063e8:	010568b3          	or	a7,a0,a6
800063ec:	0028d293          	srl	t0,a7,0x2
800063f0:	0058e8b3          	or	a7,a7,t0
800063f4:	0048d293          	srl	t0,a7,0x4
800063f8:	0058e8b3          	or	a7,a7,t0
800063fc:	0088d293          	srl	t0,a7,0x8
80006400:	0058e8b3          	or	a7,a7,t0
80006404:	0108d293          	srl	t0,a7,0x10
80006408:	0058e8b3          	or	a7,a7,t0
8000640c:	fff8c893          	not	a7,a7
80006410:	0018d293          	srl	t0,a7,0x1
80006414:	55555337          	lui	t1,0x55555
80006418:	55530313          	add	t1,t1,1365 # 55555555 <__tbss_size+0x55555535>
8000641c:	0062f2b3          	and	t0,t0,t1
80006420:	405888b3          	sub	a7,a7,t0
80006424:	333332b7          	lui	t0,0x33333
80006428:	33328293          	add	t0,t0,819 # 33333333 <__tbss_size+0x33333313>
8000642c:	0058f3b3          	and	t2,a7,t0
80006430:	0028d893          	srl	a7,a7,0x2
80006434:	0058f8b3          	and	a7,a7,t0
80006438:	011388b3          	add	a7,t2,a7
8000643c:	0048d393          	srl	t2,a7,0x4
80006440:	007888b3          	add	a7,a7,t2
80006444:	0f0f13b7          	lui	t2,0xf0f1
80006448:	f0f38393          	add	t2,t2,-241 # f0f0f0f <__tbss_size+0xf0f0eef>
8000644c:	0078f8b3          	and	a7,a7,t2
80006450:	01010e37          	lui	t3,0x1010
80006454:	101e0e13          	add	t3,t3,257 # 1010101 <__tbss_size+0x10100e1>
80006458:	03c888b3          	mul	a7,a7,t3
8000645c:	0188d893          	srl	a7,a7,0x18
80006460:	02088893          	add	a7,a7,32
80006464:	0eb8f8b3          	.4byte	0xeb8f8b3
80006468:	0015de93          	srl	t4,a1,0x1
8000646c:	01d5eeb3          	or	t4,a1,t4
80006470:	002edf13          	srl	t5,t4,0x2
80006474:	01eeeeb3          	or	t4,t4,t5
80006478:	004edf13          	srl	t5,t4,0x4
8000647c:	01eeeeb3          	or	t4,t4,t5
80006480:	008edf13          	srl	t5,t4,0x8
80006484:	01eeeeb3          	or	t4,t4,t5
80006488:	010edf13          	srl	t5,t4,0x10
8000648c:	01eeeeb3          	or	t4,t4,t5
80006490:	fffece93          	not	t4,t4
80006494:	001edf13          	srl	t5,t4,0x1
80006498:	006f7333          	and	t1,t5,t1
8000649c:	406e8333          	sub	t1,t4,t1
800064a0:	00537eb3          	and	t4,t1,t0
800064a4:	00235313          	srl	t1,t1,0x2
800064a8:	005372b3          	and	t0,t1,t0
800064ac:	005e82b3          	add	t0,t4,t0
800064b0:	0042d313          	srl	t1,t0,0x4
800064b4:	006282b3          	add	t0,t0,t1
800064b8:	0072f2b3          	and	t0,t0,t2
800064bc:	03c282b3          	mul	t0,t0,t3
800064c0:	0182d293          	srl	t0,t0,0x18
800064c4:	0eb2d2b3          	.4byte	0xeb2d2b3
800064c8:	0112e2b3          	or	t0,t0,a7
800064cc:	0007b00b          	.4byte	0x7b00b
800064d0:	405703b3          	sub	t2,a4,t0
800064d4:	0403b893          	sltiu	a7,t2,64
800064d8:	0018a78b          	.4byte	0x18a78b
800064dc:	12088a63          	beqz	a7,80006610 <__umoddi3+0x340>
800064e0:	00000e93          	li	t4,0
800064e4:	00000f13          	li	t5,0
800064e8:	fc138893          	add	a7,t2,-63
800064ec:	01103333          	snez	t1,a7
800064f0:	0013288b          	.4byte	0x13288b
800064f4:	10030863          	beqz	t1,80006604 <__umoddi3+0x334>
800064f8:	ff010113          	add	sp,sp,-16
800064fc:	00812623          	sw	s0,12(sp)
80006500:	00000313          	li	t1,0
80006504:	00000e13          	li	t3,0
80006508:	00138f13          	add	t5,t2,1
8000650c:	01e55eb3          	srl	t4,a0,t5
80006510:	01e00f93          	li	t6,30
80006514:	407f8fb3          	sub	t6,t6,t2
80006518:	00159413          	sll	s0,a1,0x1
8000651c:	01f41fb3          	sll	t6,s0,t6
80006520:	01feeeb3          	or	t4,t4,t6
80006524:	fe138f93          	add	t6,t2,-31
80006528:	000fa413          	slti	s0,t6,0
8000652c:	0e8edeb3          	.4byte	0xe8edeb3
80006530:	01f5dfb3          	srl	t6,a1,t6
80006534:	0e8fffb3          	.4byte	0xe8fffb3
80006538:	01feeeb3          	or	t4,t4,t6
8000653c:	01e5df33          	srl	t5,a1,t5
80006540:	0e8f5f33          	.4byte	0xe8f5f33
80006544:	03f3c393          	xor	t2,t2,63
80006548:	fff3cf93          	not	t6,t2
8000654c:	01f85833          	srl	a6,a6,t6
80006550:	007595b3          	sll	a1,a1,t2
80006554:	0105e5b3          	or	a1,a1,a6
80006558:	fe038813          	add	a6,t2,-32
8000655c:	00082f93          	slti	t6,a6,0
80006560:	0ff5d5b3          	.4byte	0xff5d5b3
80006564:	00751533          	sll	a0,a0,t2
80006568:	0ff57833          	.4byte	0xff57833
8000656c:	0105e833          	or	a6,a1,a6
80006570:	0ff55533          	.4byte	0xff55533
80006574:	fff74593          	not	a1,a4
80006578:	005582b3          	add	t0,a1,t0
8000657c:	cc4025f3          	csrr	a1,0xcc4
80006580:	00c12403          	lw	s0,12(sp)
80006584:	01010113          	add	sp,sp,16
80006588:	001e9713          	sll	a4,t4,0x1
8000658c:	01f85393          	srl	t2,a6,0x1f
80006590:	00776733          	or	a4,a4,t2
80006594:	01fed393          	srl	t2,t4,0x1f
80006598:	001f1f13          	sll	t5,t5,0x1
8000659c:	007f63b3          	or	t2,t5,t2
800065a0:	01f55e93          	srl	t4,a0,0x1f
800065a4:	00181813          	sll	a6,a6,0x1
800065a8:	01d86833          	or	a6,a6,t4
800065ac:	00151513          	sll	a0,a0,0x1
800065b0:	00656533          	or	a0,a0,t1
800065b4:	01c86833          	or	a6,a6,t3
800065b8:	fff3c313          	not	t1,t2
800065bc:	fff74e13          	not	t3,a4
800065c0:	00ce0eb3          	add	t4,t3,a2
800065c4:	01cebe33          	sltu	t3,t4,t3
800065c8:	00d30333          	add	t1,t1,a3
800065cc:	01c30e33          	add	t3,t1,t3
800065d0:	01fe5313          	srl	t1,t3,0x1f
800065d4:	41fe5e13          	sra	t3,t3,0x1f
800065d8:	00de7eb3          	and	t4,t3,a3
800065dc:	00ce7e33          	and	t3,t3,a2
800065e0:	01c73f33          	sltu	t5,a4,t3
800065e4:	41d383b3          	sub	t2,t2,t4
800065e8:	41e38f33          	sub	t5,t2,t5
800065ec:	41c70eb3          	sub	t4,a4,t3
800065f0:	00128293          	add	t0,t0,1
800065f4:	0012b713          	seqz	a4,t0
800065f8:	00b7508b          	.4byte	0xb7508b
800065fc:	00000e13          	li	t3,0
80006600:	f80704e3          	beqz	a4,80006588 <__umoddi3+0x2b8>
80006604:	0008b00b          	.4byte	0x8b00b
80006608:	000e8513          	mv	a0,t4
8000660c:	000f0593          	mv	a1,t5
80006610:	0007b00b          	.4byte	0x7b00b
80006614:	00008067          	ret

80006618 <__fe_getround>:
80006618:	00000513          	li	a0,0
8000661c:	00202673          	frrm	a2
80006620:	fff60613          	add	a2,a2,-1 # 7fefffff <__tbss_size+0x7fefffdf>
80006624:	00363693          	sltiu	a3,a2,3
80006628:	0016a58b          	.4byte	0x16a58b
8000662c:	00068c63          	beqz	a3,80006644 <__fe_getround+0x2c>
80006630:	00261613          	sll	a2,a2,0x2
80006634:	00000517          	auipc	a0,0x0
80006638:	35c50513          	add	a0,a0,860 # 80006990 <pow10.0+0x50>
8000663c:	00c50533          	add	a0,a0,a2
80006640:	00052503          	lw	a0,0(a0)
80006644:	0005b00b          	.4byte	0x5b00b
80006648:	00008067          	ret

8000664c <__fe_raise_inexact>:
8000664c:	0010e073          	csrs	fflags,1
80006650:	00000513          	li	a0,0
80006654:	00008067          	ret

Disassembly of section .rodata:

80006658 <pow10.0-0x2e8>:
80006658:	6150                	.2byte	0x6150
8000665a:	64657373          	csrrc	t1,hviprio1,10
8000665e:	0a21                	.2byte	0xa21
80006660:	0000                	.2byte	0x0
80006662:	0000                	.2byte	0x0
80006664:	6146                	.2byte	0x6146
80006666:	6c69                	.2byte	0x6c69
80006668:	6465                	.2byte	0x6465
8000666a:	0a21                	.2byte	0xa21
8000666c:	0000                	.2byte	0x0
8000666e:	0000                	.2byte	0x0
80006670:	2a2a                	.2byte	0x2a2a
80006672:	202a                	.2byte	0x202a
80006674:	7265                	.2byte	0x7265
80006676:	6f72                	.2byte	0x6f72
80006678:	3a72                	.2byte	0x3a72
8000667a:	5b20                	.2byte	0x5b20
8000667c:	6425                	.2byte	0x6425
8000667e:	205d                	.2byte	0x205d
80006680:	7830                	.2byte	0x7830
80006682:	7825                	.2byte	0x7825
80006684:	202c                	.2byte	0x202c
80006686:	7865                	.2byte	0x7865
80006688:	6570                	.2byte	0x6570
8000668a:	64657463          	bgeu	a0,t1,80006cd2 <pow10.0+0x392>
8000668e:	3020                	.2byte	0x3020
80006690:	2578                	.2byte	0x2578
80006692:	0a78                	.2byte	0xa78
80006694:	0000                	.2byte	0x0
80006696:	0000                	.2byte	0x0
80006698:	626f6c47          	.4byte	0x626f6c47
8000669c:	6c61                	.2byte	0x6c61
8000669e:	4d20                	.2byte	0x4d20
800066a0:	6d65                	.2byte	0x6d65
800066a2:	2079726f          	jal	tp,8009e0a8 <__global_pointer+0x95d7c>
800066a6:	6554                	.2byte	0x6554
800066a8:	000a7473          	csrrc	s0,ustatus,20
800066ac:	6f4c                	.2byte	0x6f4c
800066ae:	206c6163          	bltu	s8,t1,800068b0 <__fe_raise_inexact+0x264>
800066b2:	654d                	.2byte	0x654d
800066b4:	6f6d                	.2byte	0x6f6d
800066b6:	7972                	.2byte	0x7972
800066b8:	5420                	.2byte	0x5420
800066ba:	7365                	.2byte	0x7365
800066bc:	0a74                	.2byte	0xa74
800066be:	0000                	.2byte	0x0
800066c0:	4d54                	.2byte	0x4d54
800066c2:	65542043          	.4byte	0x65542043
800066c6:	000a7473          	csrrc	s0,ustatus,20
800066ca:	0000                	.2byte	0x0
800066cc:	5250                	.2byte	0x5250
800066ce:	4445                	.2byte	0x4445
800066d0:	5420                	.2byte	0x5420
800066d2:	7365                	.2byte	0x7365
800066d4:	0a74                	.2byte	0xa74
800066d6:	0000                	.2byte	0x0
800066d8:	61707357          	.4byte	0x61707357
800066dc:	54206e77          	.4byte	0x54206e77
800066e0:	7365                	.2byte	0x7365
800066e2:	0a74                	.2byte	0xa74
800066e4:	0000                	.2byte	0x0
800066e6:	0000                	.2byte	0x0
800066e8:	746e6f43          	.4byte	0x746e6f43
800066ec:	6f72                	.2byte	0x6f72
800066ee:	206c                	.2byte	0x206c
800066f0:	6944                	.2byte	0x6944
800066f2:	6576                	.2byte	0x6576
800066f4:	6772                	.2byte	0x6772
800066f6:	6e65                	.2byte	0x6e65
800066f8:	54206563          	bltu	zero,sp,80006c42 <pow10.0+0x302>
800066fc:	7365                	.2byte	0x7365
800066fe:	0a74                	.2byte	0xa74
80006700:	0000                	.2byte	0x0
80006702:	0000                	.2byte	0x0
80006704:	77617053          	.4byte	0x77617053
80006708:	546e                	.2byte	0x546e
8000670a:	7361                	.2byte	0x7361
8000670c:	5420736b          	.4byte	0x5420736b
80006710:	7365                	.2byte	0x7365
80006712:	0a74                	.2byte	0xa74
80006714:	0000                	.2byte	0x0
80006716:	0000                	.2byte	0x0
80006718:	69726553          	.4byte	0x69726553
8000671c:	6c61                	.2byte	0x6c61
8000671e:	5420                	.2byte	0x5420
80006720:	7365                	.2byte	0x7365
80006722:	0a74                	.2byte	0xa74
80006724:	0000                	.2byte	0x0
80006726:	0000                	.2byte	0x0
80006728:	6854                	.2byte	0x6854
8000672a:	6572                	.2byte	0x6572
8000672c:	6461                	.2byte	0x6461
8000672e:	4d20                	.2byte	0x4d20
80006730:	7361                	.2byte	0x7361
80006732:	6554206b          	.4byte	0x6554206b
80006736:	000a7473          	csrrc	s0,ustatus,20
8000673a:	0000                	.2byte	0x0
8000673c:	6142                	.2byte	0x6142
8000673e:	7272                	.2byte	0x7272
80006740:	6569                	.2byte	0x6569
80006742:	2072                	.2byte	0x2072
80006744:	6554                	.2byte	0x6554
80006746:	000a7473          	csrrc	s0,ustatus,20
8000674a:	0000                	.2byte	0x0
8000674c:	4c54                	.2byte	0x4c54
8000674e:	65542053          	.4byte	0x65542053
80006752:	000a7473          	csrrc	s0,ustatus,20
80006756:	0000                	.2byte	0x0
80006758:	7265                	.2byte	0x7265
8000675a:	6f72                	.2byte	0x6f72
8000675c:	3a72                	.2byte	0x3a72
8000675e:	6720                	.2byte	0x6720
80006760:	6f72                	.2byte	0x6f72
80006762:	7075                	.2byte	0x7075
80006764:	735f 7a69 2065      	.byte	0x5f, 0x73, 0x69, 0x7a, 0x65, 0x20
8000676a:	203e                	.2byte	0x203e
8000676c:	6874                	.2byte	0x6874
8000676e:	6572                	.2byte	0x6572
80006770:	6461                	.2byte	0x6461
80006772:	65705f73          	csrrw	t5,hviprio2h,0
80006776:	5f72                	.2byte	0x5f72
80006778:	65726f63          	bltu	tp,s7,80006dd6 <pow10.0+0x496>
8000677c:	2820                	.2byte	0x2820
8000677e:	6425                	.2byte	0x6425
80006780:	252c                	.2byte	0x252c
80006782:	2964                	.2byte	0x2964
80006784:	000a                	.2byte	0xa
80006786:	0000                	.2byte	0x0
80006788:	6e66                	.2byte	0x6e66
8000678a:	2b69                	.2byte	0x2b69
8000678c:	0000                	.2byte	0x0
8000678e:	0000                	.2byte	0x0
80006790:	6e66                	.2byte	0x6e66
80006792:	0069                	.2byte	0x69
80006794:	616e                	.2byte	0x616e
80006796:	006e                	.2byte	0x6e
80006798:	6e66                	.2byte	0x6e66
8000679a:	2d69                	.2byte	0x2d69
8000679c:	0000                	.2byte	0x0
8000679e:	0000                	.2byte	0x0
800067a0:	c098                	.2byte	0xc098
800067a2:	ffff                	.2byte	0xffff
800067a4:	c014                	.2byte	0xc014
800067a6:	ffff                	.2byte	0xffff
800067a8:	c014                	.2byte	0xc014
800067aa:	ffff                	.2byte	0xffff
800067ac:	c08c                	.2byte	0xc08c
800067ae:	ffff                	.2byte	0xffff
800067b0:	c014                	.2byte	0xc014
800067b2:	ffff                	.2byte	0xffff
800067b4:	c014                	.2byte	0xc014
800067b6:	ffff                	.2byte	0xffff
800067b8:	c014                	.2byte	0xc014
800067ba:	ffff                	.2byte	0xffff
800067bc:	c014                	.2byte	0xc014
800067be:	ffff                	.2byte	0xffff
800067c0:	c014                	.2byte	0xc014
800067c2:	ffff                	.2byte	0xffff
800067c4:	c014                	.2byte	0xc014
800067c6:	ffff                	.2byte	0xffff
800067c8:	c014                	.2byte	0xc014
800067ca:	ffff                	.2byte	0xffff
800067cc:	c080                	.2byte	0xc080
800067ce:	ffff                	.2byte	0xffff
800067d0:	c014                	.2byte	0xc014
800067d2:	ffff                	.2byte	0xffff
800067d4:	c074                	.2byte	0xc074
800067d6:	ffff                	.2byte	0xffff
800067d8:	c014                	.2byte	0xc014
800067da:	ffff                	.2byte	0xffff
800067dc:	c014                	.2byte	0xc014
800067de:	ffff                	.2byte	0xffff
800067e0:	c068                	.2byte	0xc068
800067e2:	ffff                	.2byte	0xffff
800067e4:	c2f8                	.2byte	0xc2f8
800067e6:	ffff                	.2byte	0xffff
800067e8:	c06c                	.2byte	0xc06c
800067ea:	ffff                	.2byte	0xffff
800067ec:	c2e8                	.2byte	0xc2e8
800067ee:	ffff                	.2byte	0xffff
800067f0:	c06c                	.2byte	0xc06c
800067f2:	ffff                	.2byte	0xffff
800067f4:	c2cc                	.2byte	0xc2cc
800067f6:	ffff                	.2byte	0xffff
800067f8:	c06c                	.2byte	0xc06c
800067fa:	ffff                	.2byte	0xffff
800067fc:	c06c                	.2byte	0xc06c
800067fe:	ffff                	.2byte	0xffff
80006800:	c06c                	.2byte	0xc06c
80006802:	ffff                	.2byte	0xffff
80006804:	c06c                	.2byte	0xc06c
80006806:	ffff                	.2byte	0xffff
80006808:	c06c                	.2byte	0xc06c
8000680a:	ffff                	.2byte	0xffff
8000680c:	c06c                	.2byte	0xc06c
8000680e:	ffff                	.2byte	0xffff
80006810:	c06c                	.2byte	0xc06c
80006812:	ffff                	.2byte	0xffff
80006814:	c060                	.2byte	0xc060
80006816:	ffff                	.2byte	0xffff
80006818:	c06c                	.2byte	0xc06c
8000681a:	ffff                	.2byte	0xffff
8000681c:	c06c                	.2byte	0xc06c
8000681e:	ffff                	.2byte	0xffff
80006820:	c06c                	.2byte	0xc06c
80006822:	ffff                	.2byte	0xffff
80006824:	c06c                	.2byte	0xc06c
80006826:	ffff                	.2byte	0xffff
80006828:	c06c                	.2byte	0xc06c
8000682a:	ffff                	.2byte	0xffff
8000682c:	c060                	.2byte	0xc060
8000682e:	ffff                	.2byte	0xffff
80006830:	c300                	.2byte	0xc300
80006832:	ffff                	.2byte	0xffff
80006834:	bf34                	.2byte	0xbf34
80006836:	ffff                	.2byte	0xffff
80006838:	bf34                	.2byte	0xbf34
8000683a:	ffff                	.2byte	0xffff
8000683c:	bf34                	.2byte	0xbf34
8000683e:	ffff                	.2byte	0xffff
80006840:	bf34                	.2byte	0xbf34
80006842:	ffff                	.2byte	0xffff
80006844:	bf34                	.2byte	0xbf34
80006846:	ffff                	.2byte	0xffff
80006848:	bf34                	.2byte	0xbf34
8000684a:	ffff                	.2byte	0xffff
8000684c:	bf34                	.2byte	0xbf34
8000684e:	ffff                	.2byte	0xffff
80006850:	bf34                	.2byte	0xbf34
80006852:	ffff                	.2byte	0xffff
80006854:	bf34                	.2byte	0xbf34
80006856:	ffff                	.2byte	0xffff
80006858:	bf34                	.2byte	0xbf34
8000685a:	ffff                	.2byte	0xffff
8000685c:	bf34                	.2byte	0xbf34
8000685e:	ffff                	.2byte	0xffff
80006860:	bf34                	.2byte	0xbf34
80006862:	ffff                	.2byte	0xffff
80006864:	bf34                	.2byte	0xbf34
80006866:	ffff                	.2byte	0xffff
80006868:	bf34                	.2byte	0xbf34
8000686a:	ffff                	.2byte	0xffff
8000686c:	bf34                	.2byte	0xbf34
8000686e:	ffff                	.2byte	0xffff
80006870:	bf34                	.2byte	0xbf34
80006872:	ffff                	.2byte	0xffff
80006874:	bf34                	.2byte	0xbf34
80006876:	ffff                	.2byte	0xffff
80006878:	bf34                	.2byte	0xbf34
8000687a:	ffff                	.2byte	0xffff
8000687c:	bf34                	.2byte	0xbf34
8000687e:	ffff                	.2byte	0xffff
80006880:	bf34                	.2byte	0xbf34
80006882:	ffff                	.2byte	0xffff
80006884:	bf34                	.2byte	0xbf34
80006886:	ffff                	.2byte	0xffff
80006888:	bf34                	.2byte	0xbf34
8000688a:	ffff                	.2byte	0xffff
8000688c:	bf34                	.2byte	0xbf34
8000688e:	ffff                	.2byte	0xffff
80006890:	bf34                	.2byte	0xbf34
80006892:	ffff                	.2byte	0xffff
80006894:	bf34                	.2byte	0xbf34
80006896:	ffff                	.2byte	0xffff
80006898:	bf34                	.2byte	0xbf34
8000689a:	ffff                	.2byte	0xffff
8000689c:	bf34                	.2byte	0xbf34
8000689e:	ffff                	.2byte	0xffff
800068a0:	bf34                	.2byte	0xbf34
800068a2:	ffff                	.2byte	0xffff
800068a4:	bf34                	.2byte	0xbf34
800068a6:	ffff                	.2byte	0xffff
800068a8:	bf34                	.2byte	0xbf34
800068aa:	ffff                	.2byte	0xffff
800068ac:	bf34                	.2byte	0xbf34
800068ae:	ffff                	.2byte	0xffff
800068b0:	c234                	.2byte	0xc234
800068b2:	ffff                	.2byte	0xffff
800068b4:	c2c4                	.2byte	0xc2c4
800068b6:	ffff                	.2byte	0xffff
800068b8:	c234                	.2byte	0xc234
800068ba:	ffff                	.2byte	0xffff
800068bc:	bf34                	.2byte	0xbf34
800068be:	ffff                	.2byte	0xffff
800068c0:	bf34                	.2byte	0xbf34
800068c2:	ffff                	.2byte	0xffff
800068c4:	bf34                	.2byte	0xbf34
800068c6:	ffff                	.2byte	0xffff
800068c8:	bf34                	.2byte	0xbf34
800068ca:	ffff                	.2byte	0xffff
800068cc:	bf34                	.2byte	0xbf34
800068ce:	ffff                	.2byte	0xffff
800068d0:	bf34                	.2byte	0xbf34
800068d2:	ffff                	.2byte	0xffff
800068d4:	bf34                	.2byte	0xbf34
800068d6:	ffff                	.2byte	0xffff
800068d8:	bf34                	.2byte	0xbf34
800068da:	ffff                	.2byte	0xffff
800068dc:	bf34                	.2byte	0xbf34
800068de:	ffff                	.2byte	0xffff
800068e0:	bf34                	.2byte	0xbf34
800068e2:	ffff                	.2byte	0xffff
800068e4:	bf34                	.2byte	0xbf34
800068e6:	ffff                	.2byte	0xffff
800068e8:	bf34                	.2byte	0xbf34
800068ea:	ffff                	.2byte	0xffff
800068ec:	bf34                	.2byte	0xbf34
800068ee:	ffff                	.2byte	0xffff
800068f0:	bf34                	.2byte	0xbf34
800068f2:	ffff                	.2byte	0xffff
800068f4:	bf34                	.2byte	0xbf34
800068f6:	ffff                	.2byte	0xffff
800068f8:	bf34                	.2byte	0xbf34
800068fa:	ffff                	.2byte	0xffff
800068fc:	c49c                	.2byte	0xc49c
800068fe:	ffff                	.2byte	0xffff
80006900:	bf34                	.2byte	0xbf34
80006902:	ffff                	.2byte	0xffff
80006904:	bf34                	.2byte	0xbf34
80006906:	ffff                	.2byte	0xffff
80006908:	bf34                	.2byte	0xbf34
8000690a:	ffff                	.2byte	0xffff
8000690c:	bf34                	.2byte	0xbf34
8000690e:	ffff                	.2byte	0xffff
80006910:	bf34                	.2byte	0xbf34
80006912:	ffff                	.2byte	0xffff
80006914:	bf34                	.2byte	0xbf34
80006916:	ffff                	.2byte	0xffff
80006918:	bf34                	.2byte	0xbf34
8000691a:	ffff                	.2byte	0xffff
8000691c:	bf34                	.2byte	0xbf34
8000691e:	ffff                	.2byte	0xffff
80006920:	bf34                	.2byte	0xbf34
80006922:	ffff                	.2byte	0xffff
80006924:	c49c                	.2byte	0xc49c
80006926:	ffff                	.2byte	0xffff
80006928:	c31c                	.2byte	0xc31c
8000692a:	ffff                	.2byte	0xffff
8000692c:	c49c                	.2byte	0xc49c
8000692e:	ffff                	.2byte	0xffff
80006930:	c234                	.2byte	0xc234
80006932:	ffff                	.2byte	0xffff
80006934:	c2c4                	.2byte	0xc2c4
80006936:	ffff                	.2byte	0xffff
80006938:	c234                	.2byte	0xc234
8000693a:	ffff                	.2byte	0xffff
8000693c:	0000                	.2byte	0x0
	...

80006940 <pow10.0>:
80006940:	0000                	.2byte	0x0
80006942:	0000                	.2byte	0x0
80006944:	0000                	.2byte	0x0
80006946:	3ff0                	.2byte	0x3ff0
80006948:	0000                	.2byte	0x0
8000694a:	0000                	.2byte	0x0
8000694c:	0000                	.2byte	0x0
8000694e:	4024                	.2byte	0x4024
80006950:	0000                	.2byte	0x0
80006952:	0000                	.2byte	0x0
80006954:	0000                	.2byte	0x0
80006956:	4059                	.2byte	0x4059
80006958:	0000                	.2byte	0x0
8000695a:	0000                	.2byte	0x0
8000695c:	4000                	.2byte	0x4000
8000695e:	0000408f          	.4byte	0x408f
80006962:	0000                	.2byte	0x0
80006964:	8800                	.2byte	0x8800
80006966:	000040c3          	fmadd.s	ft1,ft0,ft0,ft0,rmm
8000696a:	0000                	.2byte	0x0
8000696c:	6a00                	.2byte	0x6a00
8000696e:	40f8                	.2byte	0x40f8
80006970:	0000                	.2byte	0x0
80006972:	0000                	.2byte	0x0
80006974:	8480                	.2byte	0x8480
80006976:	412e                	.2byte	0x412e
80006978:	0000                	.2byte	0x0
8000697a:	0000                	.2byte	0x0
8000697c:	12d0                	.2byte	0x12d0
8000697e:	00004163          	bltz	zero,80006980 <pow10.0+0x40>
80006982:	0000                	.2byte	0x0
80006984:	d784                	.2byte	0xd784
80006986:	00004197          	auipc	gp,0x4
8000698a:	0000                	.2byte	0x0
8000698c:	cd65                	.2byte	0xcd65
8000698e:	41cd                	.2byte	0x41cd
80006990:	00000003          	lb	zero,0(zero) # 0 <tls_var>
80006994:	0001                	.2byte	0x1
80006996:	0000                	.2byte	0x0
80006998:	0002                	.2byte	0x2
	...

Disassembly of section .eh_frame:

8000699c <__tdata_start-0x1190>:
8000699c:	0010                	.2byte	0x10
8000699e:	0000                	.2byte	0x0
800069a0:	0000                	.2byte	0x0
800069a2:	0000                	.2byte	0x0
800069a4:	7a01                	.2byte	0x7a01
800069a6:	0052                	.2byte	0x52
800069a8:	7c01                	.2byte	0x7c01
800069aa:	0101                	.2byte	0x101
800069ac:	00020c1b          	.4byte	0x20c1b
800069b0:	002c                	.2byte	0x2c
800069b2:	0000                	.2byte	0x0
800069b4:	0018                	.2byte	0x18
800069b6:	0000                	.2byte	0x0
800069b8:	d22c                	.2byte	0xd22c
800069ba:	ffff                	.2byte	0xffff
800069bc:	0b40                	.2byte	0xb40
800069be:	0000                	.2byte	0x0
800069c0:	4400                	.2byte	0x4400
800069c2:	500e                	.2byte	0x500e
800069c4:	8174                	.2byte	0x8174
800069c6:	8801                	.2byte	0x8801
800069c8:	8902                	.2byte	0x8902
800069ca:	93049203          	lh	tp,-1744(s1)
800069ce:	9405                	.2byte	0x9405
800069d0:	9506                	.2byte	0x9506
800069d2:	97089607          	.4byte	0x97089607
800069d6:	9809                	.2byte	0x9809
800069d8:	990a                	.2byte	0x990a
800069da:	9b0c9a0b          	.4byte	0x9b0c9a0b
800069de:	000d                	.2byte	0xd
800069e0:	0010                	.2byte	0x10
800069e2:	0000                	.2byte	0x0
800069e4:	0048                	.2byte	0x48
800069e6:	0000                	.2byte	0x0
800069e8:	dd3c                	.2byte	0xdd3c
800069ea:	ffff                	.2byte	0xffff
800069ec:	00f8                	.2byte	0xf8
800069ee:	0000                	.2byte	0x0
800069f0:	0000                	.2byte	0x0
800069f2:	0000                	.2byte	0x0
800069f4:	0010                	.2byte	0x10
800069f6:	0000                	.2byte	0x0
800069f8:	005c                	.2byte	0x5c
800069fa:	0000                	.2byte	0x0
800069fc:	de20                	.2byte	0xde20
800069fe:	ffff                	.2byte	0xffff
80006a00:	00f8                	.2byte	0xf8
80006a02:	0000                	.2byte	0x0
80006a04:	0000                	.2byte	0x0
80006a06:	0000                	.2byte	0x0
80006a08:	002c                	.2byte	0x2c
80006a0a:	0000                	.2byte	0x0
80006a0c:	0070                	.2byte	0x70
80006a0e:	0000                	.2byte	0x0
80006a10:	df04                	.2byte	0xdf04
80006a12:	ffff                	.2byte	0xffff
80006a14:	09fc                	.2byte	0x9fc
80006a16:	0000                	.2byte	0x0
80006a18:	4400                	.2byte	0x4400
80006a1a:	400e                	.2byte	0x400e
80006a1c:	8174                	.2byte	0x8174
80006a1e:	8801                	.2byte	0x8801
80006a20:	8902                	.2byte	0x8902
80006a22:	93049203          	lh	tp,-1744(s1)
80006a26:	9405                	.2byte	0x9405
80006a28:	9506                	.2byte	0x9506
80006a2a:	97089607          	.4byte	0x97089607
80006a2e:	9809                	.2byte	0x9809
80006a30:	990a                	.2byte	0x990a
80006a32:	9b0c9a0b          	.4byte	0x9b0c9a0b
80006a36:	000d                	.2byte	0xd
80006a38:	0010                	.2byte	0x10
80006a3a:	0000                	.2byte	0x0
80006a3c:	00a0                	.2byte	0xa0
80006a3e:	0000                	.2byte	0x0
80006a40:	e8d0                	.2byte	0xe8d0
80006a42:	ffff                	.2byte	0xffff
80006a44:	00d4                	.2byte	0xd4
80006a46:	0000                	.2byte	0x0
80006a48:	0000                	.2byte	0x0
80006a4a:	0000                	.2byte	0x0
80006a4c:	0010                	.2byte	0x10
80006a4e:	0000                	.2byte	0x0
80006a50:	00b4                	.2byte	0xb4
80006a52:	0000                	.2byte	0x0
80006a54:	e990                	.2byte	0xe990
80006a56:	ffff                	.2byte	0xffff
80006a58:	00a0                	.2byte	0xa0
80006a5a:	0000                	.2byte	0x0
80006a5c:	0000                	.2byte	0x0
80006a5e:	0000                	.2byte	0x0
80006a60:	0010                	.2byte	0x10
80006a62:	0000                	.2byte	0x0
80006a64:	00c8                	.2byte	0xc8
80006a66:	0000                	.2byte	0x0
80006a68:	ea1c                	.2byte	0xea1c
80006a6a:	ffff                	.2byte	0xffff
80006a6c:	0104                	.2byte	0x104
80006a6e:	0000                	.2byte	0x0
80006a70:	0000                	.2byte	0x0
80006a72:	0000                	.2byte	0x0
80006a74:	0010                	.2byte	0x10
80006a76:	0000                	.2byte	0x0
80006a78:	00dc                	.2byte	0xdc
80006a7a:	0000                	.2byte	0x0
80006a7c:	eb0c                	.2byte	0xeb0c
80006a7e:	ffff                	.2byte	0xffff
80006a80:	00ec                	.2byte	0xec
80006a82:	0000                	.2byte	0x0
80006a84:	0000                	.2byte	0x0
80006a86:	0000                	.2byte	0x0
80006a88:	002c                	.2byte	0x2c
80006a8a:	0000                	.2byte	0x0
80006a8c:	00f0                	.2byte	0xf0
80006a8e:	0000                	.2byte	0x0
80006a90:	ebe4                	.2byte	0xebe4
80006a92:	ffff                	.2byte	0xffff
80006a94:	08ec                	.2byte	0x8ec
80006a96:	0000                	.2byte	0x0
80006a98:	4400                	.2byte	0x4400
80006a9a:	400e                	.2byte	0x400e
80006a9c:	8174                	.2byte	0x8174
80006a9e:	8801                	.2byte	0x8801
80006aa0:	8902                	.2byte	0x8902
80006aa2:	93049203          	lh	tp,-1744(s1)
80006aa6:	9405                	.2byte	0x9405
80006aa8:	9506                	.2byte	0x9506
80006aaa:	97089607          	.4byte	0x97089607
80006aae:	9809                	.2byte	0x9809
80006ab0:	990a                	.2byte	0x990a
80006ab2:	9b0c9a0b          	.4byte	0x9b0c9a0b
80006ab6:	000d                	.2byte	0xd
80006ab8:	0010                	.2byte	0x10
80006aba:	0000                	.2byte	0x0
80006abc:	0120                	.2byte	0x120
80006abe:	0000                	.2byte	0x0
80006ac0:	f4a0                	.2byte	0xf4a0
80006ac2:	ffff                	.2byte	0xffff
80006ac4:	000c                	.2byte	0xc
80006ac6:	0000                	.2byte	0x0
80006ac8:	0000                	.2byte	0x0
80006aca:	0000                	.2byte	0x0
80006acc:	0018                	.2byte	0x18
80006ace:	0000                	.2byte	0x0
80006ad0:	0134                	.2byte	0x134
80006ad2:	0000                	.2byte	0x0
80006ad4:	f498                	.2byte	0xf498
80006ad6:	ffff                	.2byte	0xffff
80006ad8:	0364                	.2byte	0x364
80006ada:	0000                	.2byte	0x0
80006adc:	0300                	.2byte	0x300
80006ade:	022c                	.2byte	0x22c
80006ae0:	100e                	.2byte	0x100e
80006ae2:	8844                	.2byte	0x8844
80006ae4:	0001                	.2byte	0x1
80006ae6:	0000                	.2byte	0x0
80006ae8:	0018                	.2byte	0x18
80006aea:	0000                	.2byte	0x0
80006aec:	0150                	.2byte	0x150
80006aee:	0000                	.2byte	0x0
80006af0:	f7e0                	.2byte	0xf7e0
80006af2:	ffff                	.2byte	0xffff
80006af4:	0348                	.2byte	0x348
80006af6:	0000                	.2byte	0x0
80006af8:	0300                	.2byte	0x300
80006afa:	022c                	.2byte	0x22c
80006afc:	100e                	.2byte	0x100e
80006afe:	8844                	.2byte	0x8844
80006b00:	0001                	.2byte	0x1
80006b02:	0000                	.2byte	0x0
80006b04:	0010                	.2byte	0x10
80006b06:	0000                	.2byte	0x0
80006b08:	016c                	.2byte	0x16c
80006b0a:	0000                	.2byte	0x0
80006b0c:	fb0c                	.2byte	0xfb0c
80006b0e:	ffff                	.2byte	0xffff
80006b10:	0034                	.2byte	0x34
80006b12:	0000                	.2byte	0x0
80006b14:	0000                	.2byte	0x0
80006b16:	0000                	.2byte	0x0
80006b18:	0010                	.2byte	0x10
80006b1a:	0000                	.2byte	0x0
80006b1c:	0180                	.2byte	0x180
80006b1e:	0000                	.2byte	0x0
80006b20:	fb2c                	.2byte	0xfb2c
80006b22:	ffff                	.2byte	0xffff
80006b24:	000c                	.2byte	0xc
80006b26:	0000                	.2byte	0x0
80006b28:	0000                	.2byte	0x0
	...

Disassembly of section .tbss:

80007b2c <__DATA_BEGIN__>:
	...

Disassembly of section .got:

80007b2c <.got>:
80007b2c:	ffff                	.2byte	0xffff
80007b2e:	ffff                	.2byte	0xffff
80007b30:	0000                	.2byte	0x0
	...

80007b34 <_GLOBAL_OFFSET_TABLE_>:
80007b34:	0000                	.2byte	0x0
80007b36:	0000                	.2byte	0x0
80007b38:	0014                	.2byte	0x14
80007b3a:	0000                	.2byte	0x0
80007b3c:	7b2c                	.2byte	0x7b2c
80007b3e:	8000                	.2byte	0x8000
80007b40:	7b2c                	.2byte	0x7b2c
80007b42:	8000                	.2byte	0x8000

Disassembly of section .sdata:

80007b48 <__SDATA_BEGIN__>:
80007b48:	ffff                	.2byte	0xffff
80007b4a:	ffff                	.2byte	0xffff
80007b4c:	ffff                	.2byte	0xffff
80007b4e:	ffff7fef          	jal	t6,7ffffb4c <__tbss_size+0x7ffffb2c>
80007b52:	ffff                	.2byte	0xffff
80007b54:	ffff                	.2byte	0xffff
80007b56:	79fbffef          	jal	t6,800c7af4 <__global_pointer+0xbf7c8>
80007b5a:	509f 4413 3fd3      	.byte	0x9f, 0x50, 0x13, 0x44, 0xd3, 0x3f
80007b60:	8b60c8b3          	.4byte	0x8b60c8b3
80007b64:	8a28                	.2byte	0x8a28
80007b66:	3fc6                	.2byte	0x3fc6
80007b68:	0000                	.2byte	0x0
80007b6a:	0000                	.2byte	0x0
80007b6c:	0000                	.2byte	0x0
80007b6e:	3ff8                	.2byte	0x3ff8
80007b70:	4361                	.2byte	0x4361
80007b72:	87a7636f          	jal	t1,7ff7dbec <__tbss_size+0x7ff7dbcc>
80007b76:	3fd2                	.2byte	0x3fd2
80007b78:	a371                	.2byte	0xa371
80007b7a:	0979                	.2byte	0x979
80007b7c:	400a934f          	fnmadd.s	ft6,fs5,ft0,fs0,rtz
80007b80:	0000                	.2byte	0x0
80007b82:	0000                	.2byte	0x0
80007b84:	0000                	.2byte	0x0
80007b86:	3fe0                	.2byte	0x3fe0
80007b88:	5516                	.2byte	0x5516
80007b8a:	bbb5                	.2byte	0xbbb5
80007b8c:	6bb1                	.2byte	0x6bb1
80007b8e:	4002                	.2byte	0x4002
80007b90:	fefa39ef          	jal	s3,7ffabb7e <__tbss_size+0x7ffabb5e>
80007b94:	2e42                	.2byte	0x2e42
80007b96:	3fe6                	.2byte	0x3fe6
80007b98:	0000                	.2byte	0x0
80007b9a:	0000                	.2byte	0x0
80007b9c:	0000                	.2byte	0x0
80007b9e:	402c                	.2byte	0x402c
80007ba0:	0000                	.2byte	0x0
80007ba2:	0000                	.2byte	0x0
80007ba4:	0000                	.2byte	0x0
80007ba6:	4024                	.2byte	0x4024
80007ba8:	0000                	.2byte	0x0
80007baa:	0000                	.2byte	0x0
80007bac:	0000                	.2byte	0x0
80007bae:	4018                	.2byte	0x4018
80007bb0:	0000                	.2byte	0x0
80007bb2:	0000                	.2byte	0x0
80007bb4:	0000                	.2byte	0x0
80007bb6:	4000                	.2byte	0x4000
80007bb8:	0000                	.2byte	0x0
80007bba:	0000                	.2byte	0x0
80007bbc:	0000                	.2byte	0x0
80007bbe:	3ff0                	.2byte	0x3ff0
80007bc0:	432d                	.2byte	0x432d
80007bc2:	eb1c                	.2byte	0xeb1c
80007bc4:	36e2                	.2byte	0x36e2
80007bc6:	3f1a                	.2byte	0x3f1a
80007bc8:	0000                	.2byte	0x0
80007bca:	0000                	.2byte	0x0
80007bcc:	8480                	.2byte	0x8480
80007bce:	412e                	.2byte	0x412e
80007bd0:	0000                	.2byte	0x0
80007bd2:	0000                	.2byte	0x0
80007bd4:	cd65                	.2byte	0xcd65
80007bd6:	41cd                	.2byte	0x41cd
80007bd8:	0000                	.2byte	0x0
80007bda:	0000                	.2byte	0x0
80007bdc:	cd65                	.2byte	0xcd65
80007bde:	c1cd                	.2byte	0xc1cd

80007be0 <lmem_addr>:
80007be0:	0000                	.2byte	0x0
80007be2:	ffff                	.2byte	0xffff

Disassembly of section .sbss:

80007be4 <barrier_stall>:
80007be4:	0000                	.2byte	0x0
	...

80007be8 <barrier_ctr>:
80007be8:	0000                	.2byte	0x0
	...

80007bec <__warps_per_group>:
80007bec:	0000                	.2byte	0x0
	...

Disassembly of section .bss:

80007bf0 <tls_buffer>:
	...

80007c10 <barrier_buffer>:
	...

80007c30 <tmask_buffer>:
	...

80007c50 <sr_buffer>:
	...

80007c70 <st_buffer_dst>:
	...

80007c90 <st_buffer_src>:
	...

80007cb0 <dvg_buffer>:
	...

80007cc0 <wspawn_buffer>:
	...

80007ce0 <pred_buffer>:
	...

80007d00 <tmc_buffer>:
	...

80007d20 <lmem_buffer>:
	...

80007d40 <global_buffer>:
	...

80007d60 <blockDim>:
	...

80007d6c <gridDim>:
	...

Disassembly of section .comment:

00000000 <.comment>:
   0:	3a434347          	.4byte	0x3a434347
   4:	2820                	.2byte	0x2820
   6:	65653267          	.4byte	0x65653267
   a:	6535                	.2byte	0x6535
   c:	3334                	.2byte	0x3334
   e:	3030                	.2byte	0x3030
  10:	3831                	.2byte	0x3831
  12:	642d                	.2byte	0x642d
  14:	7269                	.2byte	0x7269
  16:	7974                	.2byte	0x7974
  18:	2029                	.2byte	0x2029
  1a:	3231                	.2byte	0x3231
  1c:	322e                	.2byte	0x322e
  1e:	302e                	.2byte	0x302e
  20:	6300                	.2byte	0x6300
  22:	616c                	.2byte	0x616c
  24:	676e                	.2byte	0x676e
  26:	7620                	.2byte	0x7620
  28:	7265                	.2byte	0x7265
  2a:	6e6f6973          	csrrs	s2,0x6e6,30
  2e:	3120                	.2byte	0x3120
  30:	2e38                	.2byte	0x2e38
  32:	2e31                	.2byte	0x2e31
  34:	2036                	.2byte	0x2036
  36:	6828                	.2byte	0x6828
  38:	7474                	.2byte	0x7474
  3a:	7370                	.2byte	0x7370
  3c:	2f3a                	.2byte	0x2f3a
  3e:	7469672f          	.4byte	0x7469672f
  42:	7568                	.2byte	0x7568
  44:	2e62                	.2byte	0x2e62
  46:	2f6d6f63          	bltu	s10,s6,344 <__tbss_size+0x324>
  4a:	6c6c                	.2byte	0x6c6c
  4c:	6d76                	.2byte	0x6d76
  4e:	766c6c2f          	.4byte	0x766c6c2f
  52:	2d6d                	.2byte	0x2d6d
  54:	7270                	.2byte	0x7270
  56:	63656a6f          	jal	s4,5668c <__tbss_size+0x5666c>
  5a:	2e74                	.2byte	0x2e74
  5c:	20746967          	.4byte	0x20746967
  60:	6431                	.2byte	0x6431
  62:	3136                	.2byte	0x3136
  64:	3462                	.2byte	0x3462
  66:	3430                	.2byte	0x3430
  68:	6434                	.2byte	0x6434
  6a:	6464                	.2byte	0x6464
  6c:	6164                	.2byte	0x6164
  6e:	3536                	.2byte	0x3536
  70:	3965                	.2byte	0x3965
  72:	6538                	.2byte	0x6538
  74:	38323937          	lui	s2,0x38323
  78:	6466                	.2byte	0x6466
  7a:	65353933          	.4byte	0x65353933
  7e:	6136                	.2byte	0x6136
  80:	3539                	.2byte	0x3539
  82:	6331                	.2byte	0x6331
  84:	6135                	.2byte	0x6135
  86:	6638                	.2byte	0x6638
  88:	0029                	.2byte	0x29

Disassembly of section .riscv.attributes:

00000000 <.riscv.attributes>:
   0:	4a41                	.2byte	0x4a41
   2:	0000                	.2byte	0x0
   4:	7200                	.2byte	0x7200
   6:	7369                	.2byte	0x7369
   8:	01007663          	bgeu	zero,a6,14 <blockIdx>
   c:	0040                	.2byte	0x40
   e:	0000                	.2byte	0x0
  10:	1004                	.2byte	0x1004
  12:	7205                	.2byte	0x7205
  14:	3376                	.2byte	0x3376
  16:	6932                	.2byte	0x6932
  18:	7032                	.2byte	0x7032
  1a:	5f31                	.2byte	0x5f31
  1c:	326d                	.2byte	0x326d
  1e:	3070                	.2byte	0x3070
  20:	615f 7032 5f31      	.byte	0x5f, 0x61, 0x32, 0x70, 0x31, 0x5f
  26:	3266                	.2byte	0x3266
  28:	3270                	.2byte	0x3270
  2a:	7a5f 6369 6e6f      	.byte	0x5f, 0x7a, 0x69, 0x63, 0x6f, 0x6e
  30:	3164                	.2byte	0x3164
  32:	3070                	.2byte	0x3070
  34:	7a5f 6369 7273      	.byte	0x5f, 0x7a, 0x69, 0x63, 0x73, 0x72
  3a:	7032                	.2byte	0x7032
  3c:	5f30                	.2byte	0x5f30
  3e:	6d7a                	.2byte	0x6d7a
  40:	756d                	.2byte	0x756d
  42:	316c                	.2byte	0x316c
  44:	3070                	.2byte	0x3070
  46:	0800                	.2byte	0x800
  48:	0a01                	.2byte	0xa01
  4a:	0b              	Address 0x4a is out of bounds.

