
kernel.elf:	file format elf32-littleriscv

Disassembly of section .init:

80000000 <_start>:
80000000: f3 22 10 fc  	csrr	t0, nw
80000004: 17 13 00 00  	auipc	t1, 0x1
80000008: 13 03 c3 d9  	addi	t1, t1, -0x264
8000000c: 0b 90 62 00  	vx_wspawn	t0, t1
80000010: 93 02 f0 ff  	li	t0, -0x1
80000014: 0b 80 02 00  	vx_tmc	t0
80000018: ef 00 90 55  	jal	0x80000d70 <init_regs>
8000001c: 93 02 10 00  	li	t0, 0x1
80000020: 0b 80 02 00  	vx_tmc	t0
80000024: f3 22 10 fc  	csrr	t0, nw
80000028: 17 13 00 00  	auipc	t1, 0x1
8000002c: 13 03 c3 d8  	addi	t1, t1, -0x274
80000030: 0b 90 62 00  	vx_wspawn	t0, t1
80000034: 93 02 f0 ff  	li	t0, -0x1
80000038: 0b 80 02 00  	vx_tmc	t0
8000003c: ef 00 d0 58  	jal	0x80000dc8 <__init_tls>
80000040: 93 02 10 00  	li	t0, 0x1
80000044: 0b 80 02 00  	vx_tmc	t0
80000048: 17 b5 00 00  	auipc	a0, 0xb
8000004c: 13 05 85 c9  	addi	a0, a0, -0x368
80000050: 17 b6 00 00  	auipc	a2, 0xb
80000054: 13 06 c6 d0  	addi	a2, a2, -0x2f4
80000058: 33 06 a6 40  	sub	a2, a2, a0
8000005c: 93 05 00 00  	li	a1, 0x0
80000060: ef 40 00 24  	jal	0x800042a0 <memset>
80000064: ef 00 90 5a  	jal	0x80000e0c <__libc_init_array>
80000068: ef 00 90 3a  	jal	0x80000c10 <main>
8000006c: 6f 00 40 00  	j	0x80000070 <exit>

Disassembly of section .text:

80000070 <exit>:
80000070: 13 01 01 ff  	addi	sp, sp, -0x10
80000074: 23 26 11 00  	sw	ra, 0xc(sp)
80000078: 23 24 81 00  	sw	s0, 0x8(sp)
8000007c: 13 04 05 00  	mv	s0, a0
80000080: ef 00 10 62  	jal	0x80000ea0 <__funcs_on_exit>
80000084: ef 30 c0 7c  	jal	0x80003850 <libc_exit_fini>
80000088: ef 30 40 7c  	jal	0x8000384c <dummy>
8000008c: 13 05 04 00  	mv	a0, s0
80000090: ef 00 d0 4c  	jal	0x80000d5c <_Exit>

80000094 <_Z11kernel_iaddP12kernel_arg_t>:
80000094: 13 01 01 ff  	addi	sp, sp, -0x10
80000098: 83 25 85 00  	lw	a1, 0x8(a0)
8000009c: 23 26 a1 00  	sw	a0, 0xc(sp)
800000a0: 63 8c 05 04  	beqz	a1, 0x800000f8 <_Z11kernel_iaddP12kernel_arg_t+0x64>
800000a4: 17 b6 00 00  	auipc	a2, 0xb
800000a8: 03 26 86 b9  	lw	a2, -0x468(a2)
800000ac: 33 06 46 00  	add	a2, a2, tp
800000b0: 03 26 06 00  	lw	a2, 0x0(a2)
800000b4: 83 26 05 01  	lw	a3, 0x10(a0)
800000b8: 03 27 05 02  	lw	a4, 0x20(a0)
800000bc: 83 27 85 01  	lw	a5, 0x18(a0)
800000c0: 33 05 b6 02  	mul	a0, a2, a1
800000c4: 13 18 25 00  	slli	a6, a0, 0x2
800000c8: 33 05 07 01  	add	a0, a4, a6
800000cc: 33 86 07 01  	add	a2, a5, a6
800000d0: b3 86 06 01  	add	a3, a3, a6
800000d4: 03 a7 06 00  	lw	a4, 0x0(a3)
800000d8: 83 27 06 00  	lw	a5, 0x0(a2)
800000dc: 33 87 e7 00  	add	a4, a5, a4
800000e0: 23 20 e5 00  	sw	a4, 0x0(a0)
800000e4: 93 85 f5 ff  	addi	a1, a1, -0x1
800000e8: 13 05 45 00  	addi	a0, a0, 0x4
800000ec: 13 06 46 00  	addi	a2, a2, 0x4
800000f0: 93 86 46 00  	addi	a3, a3, 0x4
800000f4: e3 90 05 fe  	bnez	a1, 0x800000d4 <_Z11kernel_iaddP12kernel_arg_t+0x40>
800000f8: 13 01 01 01  	addi	sp, sp, 0x10
800000fc: 67 80 00 00  	ret

80000100 <_Z11kernel_imulP12kernel_arg_t>:
80000100: 13 01 01 ff  	addi	sp, sp, -0x10
80000104: 83 25 85 00  	lw	a1, 0x8(a0)
80000108: 23 26 a1 00  	sw	a0, 0xc(sp)
8000010c: 63 8c 05 04  	beqz	a1, 0x80000164 <_Z11kernel_imulP12kernel_arg_t+0x64>
80000110: 17 b6 00 00  	auipc	a2, 0xb
80000114: 03 26 c6 b2  	lw	a2, -0x4d4(a2)
80000118: 33 06 46 00  	add	a2, a2, tp
8000011c: 03 26 06 00  	lw	a2, 0x0(a2)
80000120: 83 26 05 01  	lw	a3, 0x10(a0)
80000124: 03 27 05 02  	lw	a4, 0x20(a0)
80000128: 83 27 85 01  	lw	a5, 0x18(a0)
8000012c: 33 05 b6 02  	mul	a0, a2, a1
80000130: 13 18 25 00  	slli	a6, a0, 0x2
80000134: 33 05 07 01  	add	a0, a4, a6
80000138: 33 86 07 01  	add	a2, a5, a6
8000013c: b3 86 06 01  	add	a3, a3, a6
80000140: 03 a7 06 00  	lw	a4, 0x0(a3)
80000144: 83 27 06 00  	lw	a5, 0x0(a2)
80000148: 33 87 e7 02  	mul	a4, a5, a4
8000014c: 23 20 e5 00  	sw	a4, 0x0(a0)
80000150: 93 85 f5 ff  	addi	a1, a1, -0x1
80000154: 13 05 45 00  	addi	a0, a0, 0x4
80000158: 13 06 46 00  	addi	a2, a2, 0x4
8000015c: 93 86 46 00  	addi	a3, a3, 0x4
80000160: e3 90 05 fe  	bnez	a1, 0x80000140 <_Z11kernel_imulP12kernel_arg_t+0x40>
80000164: 13 01 01 01  	addi	sp, sp, 0x10
80000168: 67 80 00 00  	ret

8000016c <_Z11kernel_idivP12kernel_arg_t>:
8000016c: 13 01 01 ff  	addi	sp, sp, -0x10
80000170: 83 25 85 00  	lw	a1, 0x8(a0)
80000174: 23 26 a1 00  	sw	a0, 0xc(sp)
80000178: 63 8c 05 04  	beqz	a1, 0x800001d0 <_Z11kernel_idivP12kernel_arg_t+0x64>
8000017c: 17 b6 00 00  	auipc	a2, 0xb
80000180: 03 26 06 ac  	lw	a2, -0x540(a2)
80000184: 33 06 46 00  	add	a2, a2, tp
80000188: 03 26 06 00  	lw	a2, 0x0(a2)
8000018c: 83 26 05 01  	lw	a3, 0x10(a0)
80000190: 03 27 05 02  	lw	a4, 0x20(a0)
80000194: 83 27 85 01  	lw	a5, 0x18(a0)
80000198: 33 05 b6 02  	mul	a0, a2, a1
8000019c: 13 18 25 00  	slli	a6, a0, 0x2
800001a0: 33 05 07 01  	add	a0, a4, a6
800001a4: 33 86 07 01  	add	a2, a5, a6
800001a8: b3 86 06 01  	add	a3, a3, a6
800001ac: 03 a7 06 00  	lw	a4, 0x0(a3)
800001b0: 83 27 06 00  	lw	a5, 0x0(a2)
800001b4: 33 47 f7 02  	div	a4, a4, a5
800001b8: 23 20 e5 00  	sw	a4, 0x0(a0)
800001bc: 93 85 f5 ff  	addi	a1, a1, -0x1
800001c0: 13 05 45 00  	addi	a0, a0, 0x4
800001c4: 13 06 46 00  	addi	a2, a2, 0x4
800001c8: 93 86 46 00  	addi	a3, a3, 0x4
800001cc: e3 90 05 fe  	bnez	a1, 0x800001ac <_Z11kernel_idivP12kernel_arg_t+0x40>
800001d0: 13 01 01 01  	addi	sp, sp, 0x10
800001d4: 67 80 00 00  	ret

800001d8 <_Z15kernel_idiv_mulP12kernel_arg_t>:
800001d8: 13 01 01 ff  	addi	sp, sp, -0x10
800001dc: 83 25 85 00  	lw	a1, 0x8(a0)
800001e0: 23 26 a1 00  	sw	a0, 0xc(sp)
800001e4: 63 80 05 06  	beqz	a1, 0x80000244 <_Z15kernel_idiv_mulP12kernel_arg_t+0x6c>
800001e8: 17 b6 00 00  	auipc	a2, 0xb
800001ec: 03 26 46 a5  	lw	a2, -0x5ac(a2)
800001f0: 33 06 46 00  	add	a2, a2, tp
800001f4: 03 26 06 00  	lw	a2, 0x0(a2)
800001f8: 83 26 05 01  	lw	a3, 0x10(a0)
800001fc: 03 27 05 02  	lw	a4, 0x20(a0)
80000200: 83 27 85 01  	lw	a5, 0x18(a0)
80000204: 33 05 b6 02  	mul	a0, a2, a1
80000208: 13 18 25 00  	slli	a6, a0, 0x2
8000020c: 33 05 07 01  	add	a0, a4, a6
80000210: 33 86 07 01  	add	a2, a5, a6
80000214: b3 86 06 01  	add	a3, a3, a6
80000218: 03 a7 06 00  	lw	a4, 0x0(a3)
8000021c: 83 27 06 00  	lw	a5, 0x0(a2)
80000220: 33 48 f7 02  	div	a6, a4, a5
80000224: 33 87 e7 02  	mul	a4, a5, a4
80000228: 33 07 e8 00  	add	a4, a6, a4
8000022c: 23 20 e5 00  	sw	a4, 0x0(a0)
80000230: 93 85 f5 ff  	addi	a1, a1, -0x1
80000234: 13 05 45 00  	addi	a0, a0, 0x4
80000238: 13 06 46 00  	addi	a2, a2, 0x4
8000023c: 93 86 46 00  	addi	a3, a3, 0x4
80000240: e3 9c 05 fc  	bnez	a1, 0x80000218 <_Z15kernel_idiv_mulP12kernel_arg_t+0x40>
80000244: 13 01 01 01  	addi	sp, sp, 0x10
80000248: 67 80 00 00  	ret

8000024c <_Z11kernel_faddP12kernel_arg_t>:
8000024c: 13 01 01 ff  	addi	sp, sp, -0x10
80000250: 83 25 85 00  	lw	a1, 0x8(a0)
80000254: 23 26 a1 00  	sw	a0, 0xc(sp)
80000258: 63 8c 05 04  	beqz	a1, 0x800002b0 <_Z11kernel_faddP12kernel_arg_t+0x64>
8000025c: 17 b6 00 00  	auipc	a2, 0xb
80000260: 03 26 06 9e  	lw	a2, -0x620(a2)
80000264: 33 06 46 00  	add	a2, a2, tp
80000268: 03 26 06 00  	lw	a2, 0x0(a2)
8000026c: 83 26 05 01  	lw	a3, 0x10(a0)
80000270: 03 27 05 02  	lw	a4, 0x20(a0)
80000274: 83 27 85 01  	lw	a5, 0x18(a0)
80000278: 33 05 b6 02  	mul	a0, a2, a1
8000027c: 13 18 25 00  	slli	a6, a0, 0x2
80000280: 33 05 07 01  	add	a0, a4, a6
80000284: 33 86 07 01  	add	a2, a5, a6
80000288: b3 86 06 01  	add	a3, a3, a6
8000028c: 87 a7 06 00  	flw	fa5, 0x0(a3)
80000290: 07 27 06 00  	flw	fa4, 0x0(a2)
80000294: d3 f7 e7 00  	fadd.s	fa5, fa5, fa4
80000298: 27 20 f5 00  	fsw	fa5, 0x0(a0)
8000029c: 93 85 f5 ff  	addi	a1, a1, -0x1
800002a0: 13 05 45 00  	addi	a0, a0, 0x4
800002a4: 13 06 46 00  	addi	a2, a2, 0x4
800002a8: 93 86 46 00  	addi	a3, a3, 0x4
800002ac: e3 90 05 fe  	bnez	a1, 0x8000028c <_Z11kernel_faddP12kernel_arg_t+0x40>
800002b0: 13 01 01 01  	addi	sp, sp, 0x10
800002b4: 67 80 00 00  	ret

800002b8 <_Z11kernel_fsubP12kernel_arg_t>:
800002b8: 13 01 01 ff  	addi	sp, sp, -0x10
800002bc: 83 25 85 00  	lw	a1, 0x8(a0)
800002c0: 23 26 a1 00  	sw	a0, 0xc(sp)
800002c4: 63 8c 05 04  	beqz	a1, 0x8000031c <_Z11kernel_fsubP12kernel_arg_t+0x64>
800002c8: 17 b6 00 00  	auipc	a2, 0xb
800002cc: 03 26 46 97  	lw	a2, -0x68c(a2)
800002d0: 33 06 46 00  	add	a2, a2, tp
800002d4: 03 26 06 00  	lw	a2, 0x0(a2)
800002d8: 83 26 05 01  	lw	a3, 0x10(a0)
800002dc: 03 27 05 02  	lw	a4, 0x20(a0)
800002e0: 83 27 85 01  	lw	a5, 0x18(a0)
800002e4: 33 05 b6 02  	mul	a0, a2, a1
800002e8: 13 18 25 00  	slli	a6, a0, 0x2
800002ec: 33 05 07 01  	add	a0, a4, a6
800002f0: 33 86 07 01  	add	a2, a5, a6
800002f4: b3 86 06 01  	add	a3, a3, a6
800002f8: 87 a7 06 00  	flw	fa5, 0x0(a3)
800002fc: 07 27 06 00  	flw	fa4, 0x0(a2)
80000300: d3 f7 e7 08  	fsub.s	fa5, fa5, fa4
80000304: 27 20 f5 00  	fsw	fa5, 0x0(a0)
80000308: 93 85 f5 ff  	addi	a1, a1, -0x1
8000030c: 13 05 45 00  	addi	a0, a0, 0x4
80000310: 13 06 46 00  	addi	a2, a2, 0x4
80000314: 93 86 46 00  	addi	a3, a3, 0x4
80000318: e3 90 05 fe  	bnez	a1, 0x800002f8 <_Z11kernel_fsubP12kernel_arg_t+0x40>
8000031c: 13 01 01 01  	addi	sp, sp, 0x10
80000320: 67 80 00 00  	ret

80000324 <_Z11kernel_fmulP12kernel_arg_t>:
80000324: 13 01 01 ff  	addi	sp, sp, -0x10
80000328: 83 25 85 00  	lw	a1, 0x8(a0)
8000032c: 23 26 a1 00  	sw	a0, 0xc(sp)
80000330: 63 8c 05 04  	beqz	a1, 0x80000388 <_Z11kernel_fmulP12kernel_arg_t+0x64>
80000334: 17 b6 00 00  	auipc	a2, 0xb
80000338: 03 26 86 90  	lw	a2, -0x6f8(a2)
8000033c: 33 06 46 00  	add	a2, a2, tp
80000340: 03 26 06 00  	lw	a2, 0x0(a2)
80000344: 83 26 05 01  	lw	a3, 0x10(a0)
80000348: 03 27 05 02  	lw	a4, 0x20(a0)
8000034c: 83 27 85 01  	lw	a5, 0x18(a0)
80000350: 33 05 b6 02  	mul	a0, a2, a1
80000354: 13 18 25 00  	slli	a6, a0, 0x2
80000358: 33 05 07 01  	add	a0, a4, a6
8000035c: 33 86 07 01  	add	a2, a5, a6
80000360: b3 86 06 01  	add	a3, a3, a6
80000364: 87 a7 06 00  	flw	fa5, 0x0(a3)
80000368: 07 27 06 00  	flw	fa4, 0x0(a2)
8000036c: d3 f7 e7 10  	fmul.s	fa5, fa5, fa4
80000370: 27 20 f5 00  	fsw	fa5, 0x0(a0)
80000374: 93 85 f5 ff  	addi	a1, a1, -0x1
80000378: 13 05 45 00  	addi	a0, a0, 0x4
8000037c: 13 06 46 00  	addi	a2, a2, 0x4
80000380: 93 86 46 00  	addi	a3, a3, 0x4
80000384: e3 90 05 fe  	bnez	a1, 0x80000364 <_Z11kernel_fmulP12kernel_arg_t+0x40>
80000388: 13 01 01 01  	addi	sp, sp, 0x10
8000038c: 67 80 00 00  	ret

80000390 <_Z12kernel_fmaddP12kernel_arg_t>:
80000390: 13 01 01 ff  	addi	sp, sp, -0x10
80000394: 83 25 85 00  	lw	a1, 0x8(a0)
80000398: 23 26 a1 00  	sw	a0, 0xc(sp)
8000039c: 63 8c 05 04  	beqz	a1, 0x800003f4 <_Z12kernel_fmaddP12kernel_arg_t+0x64>
800003a0: 17 b6 00 00  	auipc	a2, 0xb
800003a4: 03 26 c6 89  	lw	a2, -0x764(a2)
800003a8: 33 06 46 00  	add	a2, a2, tp
800003ac: 03 26 06 00  	lw	a2, 0x0(a2)
800003b0: 83 26 05 01  	lw	a3, 0x10(a0)
800003b4: 03 27 05 02  	lw	a4, 0x20(a0)
800003b8: 83 27 85 01  	lw	a5, 0x18(a0)
800003bc: 33 05 b6 02  	mul	a0, a2, a1
800003c0: 13 18 25 00  	slli	a6, a0, 0x2
800003c4: 33 05 07 01  	add	a0, a4, a6
800003c8: 33 86 07 01  	add	a2, a5, a6
800003cc: b3 86 06 01  	add	a3, a3, a6
800003d0: 87 a7 06 00  	flw	fa5, 0x0(a3)
800003d4: 07 27 06 00  	flw	fa4, 0x0(a2)
800003d8: c3 f7 e7 70  	fmadd.s	fa5, fa5, fa4, fa4
800003dc: 27 20 f5 00  	fsw	fa5, 0x0(a0)
800003e0: 93 85 f5 ff  	addi	a1, a1, -0x1
800003e4: 13 05 45 00  	addi	a0, a0, 0x4
800003e8: 13 06 46 00  	addi	a2, a2, 0x4
800003ec: 93 86 46 00  	addi	a3, a3, 0x4
800003f0: e3 90 05 fe  	bnez	a1, 0x800003d0 <_Z12kernel_fmaddP12kernel_arg_t+0x40>
800003f4: 13 01 01 01  	addi	sp, sp, 0x10
800003f8: 67 80 00 00  	ret

800003fc <_Z12kernel_fmsubP12kernel_arg_t>:
800003fc: 13 01 01 ff  	addi	sp, sp, -0x10
80000400: 83 25 85 00  	lw	a1, 0x8(a0)
80000404: 23 26 a1 00  	sw	a0, 0xc(sp)
80000408: 63 8c 05 04  	beqz	a1, 0x80000460 <_Z12kernel_fmsubP12kernel_arg_t+0x64>
8000040c: 17 b6 00 00  	auipc	a2, 0xb
80000410: 03 26 06 83  	lw	a2, -0x7d0(a2)
80000414: 33 06 46 00  	add	a2, a2, tp
80000418: 03 26 06 00  	lw	a2, 0x0(a2)
8000041c: 83 26 05 01  	lw	a3, 0x10(a0)
80000420: 03 27 05 02  	lw	a4, 0x20(a0)
80000424: 83 27 85 01  	lw	a5, 0x18(a0)
80000428: 33 05 b6 02  	mul	a0, a2, a1
8000042c: 13 18 25 00  	slli	a6, a0, 0x2
80000430: 33 05 07 01  	add	a0, a4, a6
80000434: 33 86 07 01  	add	a2, a5, a6
80000438: b3 86 06 01  	add	a3, a3, a6
8000043c: 87 a7 06 00  	flw	fa5, 0x0(a3)
80000440: 07 27 06 00  	flw	fa4, 0x0(a2)
80000444: c7 f7 e7 70  	fmsub.s	fa5, fa5, fa4, fa4
80000448: 27 20 f5 00  	fsw	fa5, 0x0(a0)
8000044c: 93 85 f5 ff  	addi	a1, a1, -0x1
80000450: 13 05 45 00  	addi	a0, a0, 0x4
80000454: 13 06 46 00  	addi	a2, a2, 0x4
80000458: 93 86 46 00  	addi	a3, a3, 0x4
8000045c: e3 90 05 fe  	bnez	a1, 0x8000043c <_Z12kernel_fmsubP12kernel_arg_t+0x40>
80000460: 13 01 01 01  	addi	sp, sp, 0x10
80000464: 67 80 00 00  	ret

80000468 <_Z13kernel_fnmaddP12kernel_arg_t>:
80000468: 13 01 01 ff  	addi	sp, sp, -0x10
8000046c: 83 25 85 00  	lw	a1, 0x8(a0)
80000470: 23 26 a1 00  	sw	a0, 0xc(sp)
80000474: 63 8c 05 04  	beqz	a1, 0x800004cc <_Z13kernel_fnmaddP12kernel_arg_t+0x64>
80000478: 17 a6 00 00  	auipc	a2, 0xa
8000047c: 03 26 46 7c  	lw	a2, 0x7c4(a2)
80000480: 33 06 46 00  	add	a2, a2, tp
80000484: 03 26 06 00  	lw	a2, 0x0(a2)
80000488: 83 26 05 01  	lw	a3, 0x10(a0)
8000048c: 03 27 05 02  	lw	a4, 0x20(a0)
80000490: 83 27 85 01  	lw	a5, 0x18(a0)
80000494: 33 05 b6 02  	mul	a0, a2, a1
80000498: 13 18 25 00  	slli	a6, a0, 0x2
8000049c: 33 05 07 01  	add	a0, a4, a6
800004a0: 33 86 07 01  	add	a2, a5, a6
800004a4: b3 86 06 01  	add	a3, a3, a6
800004a8: 87 a7 06 00  	flw	fa5, 0x0(a3)
800004ac: 07 27 06 00  	flw	fa4, 0x0(a2)
800004b0: cf f7 e7 70  	fnmadd.s	fa5, fa5, fa4, fa4
800004b4: 27 20 f5 00  	fsw	fa5, 0x0(a0)
800004b8: 93 85 f5 ff  	addi	a1, a1, -0x1
800004bc: 13 05 45 00  	addi	a0, a0, 0x4
800004c0: 13 06 46 00  	addi	a2, a2, 0x4
800004c4: 93 86 46 00  	addi	a3, a3, 0x4
800004c8: e3 90 05 fe  	bnez	a1, 0x800004a8 <_Z13kernel_fnmaddP12kernel_arg_t+0x40>
800004cc: 13 01 01 01  	addi	sp, sp, 0x10
800004d0: 67 80 00 00  	ret

800004d4 <_Z13kernel_fnmsubP12kernel_arg_t>:
800004d4: 13 01 01 ff  	addi	sp, sp, -0x10
800004d8: 83 25 85 00  	lw	a1, 0x8(a0)
800004dc: 23 26 a1 00  	sw	a0, 0xc(sp)
800004e0: 63 8c 05 04  	beqz	a1, 0x80000538 <_Z13kernel_fnmsubP12kernel_arg_t+0x64>
800004e4: 17 a6 00 00  	auipc	a2, 0xa
800004e8: 03 26 86 75  	lw	a2, 0x758(a2)
800004ec: 33 06 46 00  	add	a2, a2, tp
800004f0: 03 26 06 00  	lw	a2, 0x0(a2)
800004f4: 83 26 05 01  	lw	a3, 0x10(a0)
800004f8: 03 27 05 02  	lw	a4, 0x20(a0)
800004fc: 83 27 85 01  	lw	a5, 0x18(a0)
80000500: 33 05 b6 02  	mul	a0, a2, a1
80000504: 13 18 25 00  	slli	a6, a0, 0x2
80000508: 33 05 07 01  	add	a0, a4, a6
8000050c: 33 86 07 01  	add	a2, a5, a6
80000510: b3 86 06 01  	add	a3, a3, a6
80000514: 87 a7 06 00  	flw	fa5, 0x0(a3)
80000518: 07 27 06 00  	flw	fa4, 0x0(a2)
8000051c: cb f7 e7 70  	fnmsub.s	fa5, fa5, fa4, fa4
80000520: 27 20 f5 00  	fsw	fa5, 0x0(a0)
80000524: 93 85 f5 ff  	addi	a1, a1, -0x1
80000528: 13 05 45 00  	addi	a0, a0, 0x4
8000052c: 13 06 46 00  	addi	a2, a2, 0x4
80000530: 93 86 46 00  	addi	a3, a3, 0x4
80000534: e3 90 05 fe  	bnez	a1, 0x80000514 <_Z13kernel_fnmsubP12kernel_arg_t+0x40>
80000538: 13 01 01 01  	addi	sp, sp, 0x10
8000053c: 67 80 00 00  	ret

80000540 <_Z18kernel_fnmadd_maddP12kernel_arg_t>:
80000540: 13 01 01 ff  	addi	sp, sp, -0x10
80000544: 83 25 85 00  	lw	a1, 0x8(a0)
80000548: 23 26 a1 00  	sw	a0, 0xc(sp)
8000054c: 63 80 05 06  	beqz	a1, 0x800005ac <_Z18kernel_fnmadd_maddP12kernel_arg_t+0x6c>
80000550: 17 a6 00 00  	auipc	a2, 0xa
80000554: 03 26 c6 6e  	lw	a2, 0x6ec(a2)
80000558: 33 06 46 00  	add	a2, a2, tp
8000055c: 03 26 06 00  	lw	a2, 0x0(a2)
80000560: 83 26 05 01  	lw	a3, 0x10(a0)
80000564: 03 27 05 02  	lw	a4, 0x20(a0)
80000568: 83 27 85 01  	lw	a5, 0x18(a0)
8000056c: 33 05 b6 02  	mul	a0, a2, a1
80000570: 13 18 25 00  	slli	a6, a0, 0x2
80000574: 33 05 07 01  	add	a0, a4, a6
80000578: 33 86 07 01  	add	a2, a5, a6
8000057c: b3 86 06 01  	add	a3, a3, a6
80000580: 87 a7 06 00  	flw	fa5, 0x0(a3)
80000584: 07 27 06 00  	flw	fa4, 0x0(a2)
80000588: cf f6 e7 70  	fnmadd.s	fa3, fa5, fa4, fa4
8000058c: c3 f7 e7 70  	fmadd.s	fa5, fa5, fa4, fa4
80000590: d3 f7 f6 00  	fadd.s	fa5, fa3, fa5
80000594: 27 20 f5 00  	fsw	fa5, 0x0(a0)
80000598: 93 85 f5 ff  	addi	a1, a1, -0x1
8000059c: 13 05 45 00  	addi	a0, a0, 0x4
800005a0: 13 06 46 00  	addi	a2, a2, 0x4
800005a4: 93 86 46 00  	addi	a3, a3, 0x4
800005a8: e3 9c 05 fc  	bnez	a1, 0x80000580 <_Z18kernel_fnmadd_maddP12kernel_arg_t+0x40>
800005ac: 13 01 01 01  	addi	sp, sp, 0x10
800005b0: 67 80 00 00  	ret

800005b4 <_Z11kernel_fdivP12kernel_arg_t>:
800005b4: 13 01 01 ff  	addi	sp, sp, -0x10
800005b8: 83 25 85 00  	lw	a1, 0x8(a0)
800005bc: 23 26 a1 00  	sw	a0, 0xc(sp)
800005c0: 63 8c 05 04  	beqz	a1, 0x80000618 <_Z11kernel_fdivP12kernel_arg_t+0x64>
800005c4: 17 a6 00 00  	auipc	a2, 0xa
800005c8: 03 26 86 67  	lw	a2, 0x678(a2)
800005cc: 33 06 46 00  	add	a2, a2, tp
800005d0: 03 26 06 00  	lw	a2, 0x0(a2)
800005d4: 83 26 05 01  	lw	a3, 0x10(a0)
800005d8: 03 27 05 02  	lw	a4, 0x20(a0)
800005dc: 83 27 85 01  	lw	a5, 0x18(a0)
800005e0: 33 05 b6 02  	mul	a0, a2, a1
800005e4: 13 18 25 00  	slli	a6, a0, 0x2
800005e8: 33 05 07 01  	add	a0, a4, a6
800005ec: 33 86 07 01  	add	a2, a5, a6
800005f0: b3 86 06 01  	add	a3, a3, a6
800005f4: 87 a7 06 00  	flw	fa5, 0x0(a3)
800005f8: 07 27 06 00  	flw	fa4, 0x0(a2)
800005fc: d3 f7 e7 18  	fdiv.s	fa5, fa5, fa4
80000600: 27 20 f5 00  	fsw	fa5, 0x0(a0)
80000604: 93 85 f5 ff  	addi	a1, a1, -0x1
80000608: 13 05 45 00  	addi	a0, a0, 0x4
8000060c: 13 06 46 00  	addi	a2, a2, 0x4
80000610: 93 86 46 00  	addi	a3, a3, 0x4
80000614: e3 90 05 fe  	bnez	a1, 0x800005f4 <_Z11kernel_fdivP12kernel_arg_t+0x40>
80000618: 13 01 01 01  	addi	sp, sp, 0x10
8000061c: 67 80 00 00  	ret

80000620 <_Z12kernel_fdiv2P12kernel_arg_t>:
80000620: 13 01 01 ff  	addi	sp, sp, -0x10
80000624: 83 25 85 00  	lw	a1, 0x8(a0)
80000628: 23 26 a1 00  	sw	a0, 0xc(sp)
8000062c: 63 80 05 06  	beqz	a1, 0x8000068c <_Z12kernel_fdiv2P12kernel_arg_t+0x6c>
80000630: 17 a6 00 00  	auipc	a2, 0xa
80000634: 03 26 c6 60  	lw	a2, 0x60c(a2)
80000638: 33 06 46 00  	add	a2, a2, tp
8000063c: 03 26 06 00  	lw	a2, 0x0(a2)
80000640: 83 26 05 01  	lw	a3, 0x10(a0)
80000644: 03 27 05 02  	lw	a4, 0x20(a0)
80000648: 83 27 85 01  	lw	a5, 0x18(a0)
8000064c: 33 05 b6 02  	mul	a0, a2, a1
80000650: 13 18 25 00  	slli	a6, a0, 0x2
80000654: 33 05 07 01  	add	a0, a4, a6
80000658: 33 86 07 01  	add	a2, a5, a6
8000065c: b3 86 06 01  	add	a3, a3, a6
80000660: 87 a7 06 00  	flw	fa5, 0x0(a3)
80000664: 07 27 06 00  	flw	fa4, 0x0(a2)
80000668: d3 f6 e7 18  	fdiv.s	fa3, fa5, fa4
8000066c: d3 77 f7 18  	fdiv.s	fa5, fa4, fa5
80000670: d3 f7 f6 00  	fadd.s	fa5, fa3, fa5
80000674: 27 20 f5 00  	fsw	fa5, 0x0(a0)
80000678: 93 85 f5 ff  	addi	a1, a1, -0x1
8000067c: 13 05 45 00  	addi	a0, a0, 0x4
80000680: 13 06 46 00  	addi	a2, a2, 0x4
80000684: 93 86 46 00  	addi	a3, a3, 0x4
80000688: e3 9c 05 fc  	bnez	a1, 0x80000660 <_Z12kernel_fdiv2P12kernel_arg_t+0x40>
8000068c: 13 01 01 01  	addi	sp, sp, 0x10
80000690: 67 80 00 00  	ret

80000694 <_Z12kernel_fsqrtP12kernel_arg_t>:
80000694: 13 01 01 ff  	addi	sp, sp, -0x10
80000698: 83 25 85 00  	lw	a1, 0x8(a0)
8000069c: 23 26 a1 00  	sw	a0, 0xc(sp)
800006a0: 63 8e 05 04  	beqz	a1, 0x800006fc <_Z12kernel_fsqrtP12kernel_arg_t+0x68>
800006a4: 17 a6 00 00  	auipc	a2, 0xa
800006a8: 03 26 86 59  	lw	a2, 0x598(a2)
800006ac: 33 06 46 00  	add	a2, a2, tp
800006b0: 03 26 06 00  	lw	a2, 0x0(a2)
800006b4: 83 26 05 01  	lw	a3, 0x10(a0)
800006b8: 03 27 05 02  	lw	a4, 0x20(a0)
800006bc: 83 27 85 01  	lw	a5, 0x18(a0)
800006c0: 33 05 b6 02  	mul	a0, a2, a1
800006c4: 13 18 25 00  	slli	a6, a0, 0x2
800006c8: 33 05 07 01  	add	a0, a4, a6
800006cc: 33 86 07 01  	add	a2, a5, a6
800006d0: b3 86 06 01  	add	a3, a3, a6
800006d4: 87 a7 06 00  	flw	fa5, 0x0(a3)
800006d8: 07 27 06 00  	flw	fa4, 0x0(a2)
800006dc: d3 f7 e7 10  	fmul.s	fa5, fa5, fa4
800006e0: d3 f7 07 58  	fsqrt.s	fa5, fa5
800006e4: 27 20 f5 00  	fsw	fa5, 0x0(a0)
800006e8: 93 85 f5 ff  	addi	a1, a1, -0x1
800006ec: 13 05 45 00  	addi	a0, a0, 0x4
800006f0: 13 06 46 00  	addi	a2, a2, 0x4
800006f4: 93 86 46 00  	addi	a3, a3, 0x4
800006f8: e3 9e 05 fc  	bnez	a1, 0x800006d4 <_Z12kernel_fsqrtP12kernel_arg_t+0x40>
800006fc: 13 01 01 01  	addi	sp, sp, 0x10
80000700: 67 80 00 00  	ret

80000704 <_Z11kernel_ftoiP12kernel_arg_t>:
80000704: 13 01 01 ff  	addi	sp, sp, -0x10
80000708: 83 25 85 00  	lw	a1, 0x8(a0)
8000070c: 23 26 a1 00  	sw	a0, 0xc(sp)
80000710: 63 8e 05 04  	beqz	a1, 0x8000076c <_Z11kernel_ftoiP12kernel_arg_t+0x68>
80000714: 17 a6 00 00  	auipc	a2, 0xa
80000718: 03 26 86 52  	lw	a2, 0x528(a2)
8000071c: 33 06 46 00  	add	a2, a2, tp
80000720: 03 26 06 00  	lw	a2, 0x0(a2)
80000724: 83 26 05 01  	lw	a3, 0x10(a0)
80000728: 03 27 05 02  	lw	a4, 0x20(a0)
8000072c: 83 27 85 01  	lw	a5, 0x18(a0)
80000730: 33 05 b6 02  	mul	a0, a2, a1
80000734: 13 18 25 00  	slli	a6, a0, 0x2
80000738: 33 05 07 01  	add	a0, a4, a6
8000073c: 33 86 07 01  	add	a2, a5, a6
80000740: b3 86 06 01  	add	a3, a3, a6
80000744: 87 a7 06 00  	flw	fa5, 0x0(a3)
80000748: 07 27 06 00  	flw	fa4, 0x0(a2)
8000074c: d3 f7 e7 00  	fadd.s	fa5, fa5, fa4
80000750: 53 97 07 c0  	fcvt.w.s	a4, fa5, rtz
80000754: 23 20 e5 00  	sw	a4, 0x0(a0)
80000758: 93 85 f5 ff  	addi	a1, a1, -0x1
8000075c: 13 05 45 00  	addi	a0, a0, 0x4
80000760: 13 06 46 00  	addi	a2, a2, 0x4
80000764: 93 86 46 00  	addi	a3, a3, 0x4
80000768: e3 9e 05 fc  	bnez	a1, 0x80000744 <_Z11kernel_ftoiP12kernel_arg_t+0x40>
8000076c: 13 01 01 01  	addi	sp, sp, 0x10
80000770: 67 80 00 00  	ret

80000774 <_Z11kernel_ftouP12kernel_arg_t>:
80000774: 13 01 01 ff  	addi	sp, sp, -0x10
80000778: 83 25 85 00  	lw	a1, 0x8(a0)
8000077c: 23 26 a1 00  	sw	a0, 0xc(sp)
80000780: 63 8e 05 04  	beqz	a1, 0x800007dc <_Z11kernel_ftouP12kernel_arg_t+0x68>
80000784: 17 a6 00 00  	auipc	a2, 0xa
80000788: 03 26 86 4b  	lw	a2, 0x4b8(a2)
8000078c: 33 06 46 00  	add	a2, a2, tp
80000790: 03 26 06 00  	lw	a2, 0x0(a2)
80000794: 83 26 05 01  	lw	a3, 0x10(a0)
80000798: 03 27 05 02  	lw	a4, 0x20(a0)
8000079c: 83 27 85 01  	lw	a5, 0x18(a0)
800007a0: 33 05 b6 02  	mul	a0, a2, a1
800007a4: 13 18 25 00  	slli	a6, a0, 0x2
800007a8: 33 05 07 01  	add	a0, a4, a6
800007ac: 33 86 07 01  	add	a2, a5, a6
800007b0: b3 86 06 01  	add	a3, a3, a6
800007b4: 87 a7 06 00  	flw	fa5, 0x0(a3)
800007b8: 07 27 06 00  	flw	fa4, 0x0(a2)
800007bc: d3 f7 e7 00  	fadd.s	fa5, fa5, fa4
800007c0: 53 97 17 c0  	fcvt.wu.s	a4, fa5, rtz
800007c4: 23 20 e5 00  	sw	a4, 0x0(a0)
800007c8: 93 85 f5 ff  	addi	a1, a1, -0x1
800007cc: 13 05 45 00  	addi	a0, a0, 0x4
800007d0: 13 06 46 00  	addi	a2, a2, 0x4
800007d4: 93 86 46 00  	addi	a3, a3, 0x4
800007d8: e3 9e 05 fc  	bnez	a1, 0x800007b4 <_Z11kernel_ftouP12kernel_arg_t+0x40>
800007dc: 13 01 01 01  	addi	sp, sp, 0x10
800007e0: 67 80 00 00  	ret

800007e4 <_Z11kernel_itofP12kernel_arg_t>:
800007e4: 13 01 01 ff  	addi	sp, sp, -0x10
800007e8: 83 25 85 00  	lw	a1, 0x8(a0)
800007ec: 23 26 a1 00  	sw	a0, 0xc(sp)
800007f0: 63 8e 05 04  	beqz	a1, 0x8000084c <_Z11kernel_itofP12kernel_arg_t+0x68>
800007f4: 17 a6 00 00  	auipc	a2, 0xa
800007f8: 03 26 86 44  	lw	a2, 0x448(a2)
800007fc: 33 06 46 00  	add	a2, a2, tp
80000800: 03 26 06 00  	lw	a2, 0x0(a2)
80000804: 83 26 05 01  	lw	a3, 0x10(a0)
80000808: 03 27 05 02  	lw	a4, 0x20(a0)
8000080c: 83 27 85 01  	lw	a5, 0x18(a0)
80000810: 33 05 b6 02  	mul	a0, a2, a1
80000814: 13 18 25 00  	slli	a6, a0, 0x2
80000818: 33 05 07 01  	add	a0, a4, a6
8000081c: 33 86 07 01  	add	a2, a5, a6
80000820: b3 86 06 01  	add	a3, a3, a6
80000824: 03 a7 06 00  	lw	a4, 0x0(a3)
80000828: 83 27 06 00  	lw	a5, 0x0(a2)
8000082c: 33 87 e7 00  	add	a4, a5, a4
80000830: d3 77 07 d0  	fcvt.s.w	fa5, a4
80000834: 27 20 f5 00  	fsw	fa5, 0x0(a0)
80000838: 93 85 f5 ff  	addi	a1, a1, -0x1
8000083c: 13 05 45 00  	addi	a0, a0, 0x4
80000840: 13 06 46 00  	addi	a2, a2, 0x4
80000844: 93 86 46 00  	addi	a3, a3, 0x4
80000848: e3 9e 05 fc  	bnez	a1, 0x80000824 <_Z11kernel_itofP12kernel_arg_t+0x40>
8000084c: 13 01 01 01  	addi	sp, sp, 0x10
80000850: 67 80 00 00  	ret

80000854 <_Z11kernel_utofP12kernel_arg_t>:
80000854: 13 01 01 ff  	addi	sp, sp, -0x10
80000858: 83 25 85 00  	lw	a1, 0x8(a0)
8000085c: 23 26 a1 00  	sw	a0, 0xc(sp)
80000860: 63 8e 05 04  	beqz	a1, 0x800008bc <_Z11kernel_utofP12kernel_arg_t+0x68>
80000864: 17 a6 00 00  	auipc	a2, 0xa
80000868: 03 26 86 3d  	lw	a2, 0x3d8(a2)
8000086c: 33 06 46 00  	add	a2, a2, tp
80000870: 03 26 06 00  	lw	a2, 0x0(a2)
80000874: 83 26 05 01  	lw	a3, 0x10(a0)
80000878: 03 27 05 02  	lw	a4, 0x20(a0)
8000087c: 83 27 85 01  	lw	a5, 0x18(a0)
80000880: 33 05 b6 02  	mul	a0, a2, a1
80000884: 13 18 25 00  	slli	a6, a0, 0x2
80000888: 33 05 07 01  	add	a0, a4, a6
8000088c: 33 86 07 01  	add	a2, a5, a6
80000890: b3 86 06 01  	add	a3, a3, a6
80000894: 03 a7 06 00  	lw	a4, 0x0(a3)
80000898: 83 27 06 00  	lw	a5, 0x0(a2)
8000089c: 33 87 e7 00  	add	a4, a5, a4
800008a0: d3 77 07 d0  	fcvt.s.w	fa5, a4
800008a4: 27 20 f5 00  	fsw	fa5, 0x0(a0)
800008a8: 93 85 f5 ff  	addi	a1, a1, -0x1
800008ac: 13 05 45 00  	addi	a0, a0, 0x4
800008b0: 13 06 46 00  	addi	a2, a2, 0x4
800008b4: 93 86 46 00  	addi	a3, a3, 0x4
800008b8: e3 9e 05 fc  	bnez	a1, 0x80000894 <_Z11kernel_utofP12kernel_arg_t+0x40>
800008bc: 13 01 01 01  	addi	sp, sp, 0x10
800008c0: 67 80 00 00  	ret

800008c4 <_Z13kernel_fclampP12kernel_arg_t>:
800008c4: 13 01 01 ff  	addi	sp, sp, -0x10
800008c8: 83 25 85 00  	lw	a1, 0x8(a0)
800008cc: 23 26 a1 00  	sw	a0, 0xc(sp)
800008d0: 63 82 05 06  	beqz	a1, 0x80000934 <_Z13kernel_fclampP12kernel_arg_t+0x70>
800008d4: 17 a6 00 00  	auipc	a2, 0xa
800008d8: 03 26 86 36  	lw	a2, 0x368(a2)
800008dc: 33 06 46 00  	add	a2, a2, tp
800008e0: 03 26 06 00  	lw	a2, 0x0(a2)
800008e4: 83 26 05 01  	lw	a3, 0x10(a0)
800008e8: 03 27 05 02  	lw	a4, 0x20(a0)
800008ec: 83 27 85 01  	lw	a5, 0x18(a0)
800008f0: 33 05 b6 02  	mul	a0, a2, a1
800008f4: 13 18 25 00  	slli	a6, a0, 0x2
800008f8: 33 05 07 01  	add	a0, a4, a6
800008fc: 33 86 07 01  	add	a2, a5, a6
80000900: b3 86 06 01  	add	a3, a3, a6
80000904: 37 07 80 3f  	lui	a4, 0x3f800
80000908: d3 07 07 f0  	fmv.w.x	fa5, a4
8000090c: 07 a7 06 00  	flw	fa4, 0x0(a3)
80000910: 87 26 06 00  	flw	fa3, 0x0(a2)
80000914: 53 17 f7 28  	fmax.s	fa4, fa4, fa5
80000918: 53 07 d7 28  	fmin.s	fa4, fa4, fa3
8000091c: 27 20 e5 00  	fsw	fa4, 0x0(a0)
80000920: 93 85 f5 ff  	addi	a1, a1, -0x1
80000924: 13 05 45 00  	addi	a0, a0, 0x4
80000928: 13 06 46 00  	addi	a2, a2, 0x4
8000092c: 93 86 46 00  	addi	a3, a3, 0x4
80000930: e3 9e 05 fc  	bnez	a1, 0x8000090c <_Z13kernel_fclampP12kernel_arg_t+0x48>
80000934: 13 01 01 01  	addi	sp, sp, 0x10
80000938: 67 80 00 00  	ret

8000093c <_Z13kernel_iclampP12kernel_arg_t>:
8000093c: 13 01 01 ff  	addi	sp, sp, -0x10
80000940: 83 25 85 00  	lw	a1, 0x8(a0)
80000944: 23 26 a1 00  	sw	a0, 0xc(sp)
80000948: 63 8c 05 06  	beqz	a1, 0x800009c0 <_Z13kernel_iclampP12kernel_arg_t+0x84>
8000094c: 17 a6 00 00  	auipc	a2, 0xa
80000950: 03 26 06 2f  	lw	a2, 0x2f0(a2)
80000954: 33 06 46 00  	add	a2, a2, tp
80000958: 03 26 06 00  	lw	a2, 0x0(a2)
8000095c: 83 26 05 01  	lw	a3, 0x10(a0)
80000960: 03 27 05 02  	lw	a4, 0x20(a0)
80000964: 83 27 85 01  	lw	a5, 0x18(a0)
80000968: 33 05 b6 02  	mul	a0, a2, a1
8000096c: 13 18 25 00  	slli	a6, a0, 0x2
80000970: 33 05 07 01  	add	a0, a4, a6
80000974: 33 86 07 01  	add	a2, a5, a6
80000978: b3 86 06 01  	add	a3, a3, a6
8000097c: 13 07 10 00  	li	a4, 0x1
80000980: 83 a7 06 00  	lw	a5, 0x0(a3)
80000984: 03 28 06 00  	lw	a6, 0x0(a2)
80000988: 93 a8 27 00  	slti	a7, a5, 0x2
8000098c: b3 52 17 0f  	czero.eqz	t0, a4, a7
80000990: b3 f7 17 0f  	czero.nez	a5, a5, a7
80000994: b3 e7 57 00  	or	a5, a5, t0
80000998: b3 a8 07 01  	slt	a7, a5, a6
8000099c: b3 d7 17 0f  	czero.eqz	a5, a5, a7
800009a0: 33 78 18 0f  	czero.nez	a6, a6, a7
800009a4: b3 e7 07 01  	or	a5, a5, a6
800009a8: 23 20 f5 00  	sw	a5, 0x0(a0)
800009ac: 93 85 f5 ff  	addi	a1, a1, -0x1
800009b0: 13 05 45 00  	addi	a0, a0, 0x4
800009b4: 13 06 46 00  	addi	a2, a2, 0x4
800009b8: 93 86 46 00  	addi	a3, a3, 0x4
800009bc: e3 92 05 fc  	bnez	a1, 0x80000980 <_Z13kernel_iclampP12kernel_arg_t+0x44>
800009c0: 13 01 01 01  	addi	sp, sp, 0x10
800009c4: 67 80 00 00  	ret

800009c8 <_Z12kernel_trigoP12kernel_arg_t>:
800009c8: 13 01 01 fd  	addi	sp, sp, -0x30
800009cc: 23 26 11 02  	sw	ra, 0x2c(sp)
800009d0: 23 24 81 02  	sw	s0, 0x28(sp)
800009d4: 23 22 91 02  	sw	s1, 0x24(sp)
800009d8: 23 20 21 03  	sw	s2, 0x20(sp)
800009dc: 23 2e 31 01  	sw	s3, 0x1c(sp)
800009e0: 23 2c 41 01  	sw	s4, 0x18(sp)
800009e4: 23 2a 51 01  	sw	s5, 0x14(sp)
800009e8: 23 28 61 01  	sw	s6, 0x10(sp)
800009ec: 83 25 85 00  	lw	a1, 0x8(a0)
800009f0: 23 26 a1 00  	sw	a0, 0xc(sp)
800009f4: 63 8a 05 08  	beqz	a1, 0x80000a88 <_Z12kernel_trigoP12kernel_arg_t+0xc0>
800009f8: 17 a6 00 00  	auipc	a2, 0xa
800009fc: 03 26 46 24  	lw	a2, 0x244(a2)
80000a00: 33 06 46 00  	add	a2, a2, tp
80000a04: 03 26 06 00  	lw	a2, 0x0(a2)
80000a08: 83 24 05 01  	lw	s1, 0x10(a0)
80000a0c: 03 29 85 01  	lw	s2, 0x18(a0)
80000a10: 83 29 05 02  	lw	s3, 0x20(a0)
80000a14: 33 04 b6 02  	mul	s0, a2, a1
80000a18: 33 05 b6 02  	mul	a0, a2, a1
80000a1c: 13 15 25 00  	slli	a0, a0, 0x2
80000a20: b3 84 a4 00  	add	s1, s1, a0
80000a24: 33 09 a9 00  	add	s2, s2, a0
80000a28: b3 89 a9 00  	add	s3, s3, a0
80000a2c: 13 06 16 00  	addi	a2, a2, 0x1
80000a30: 33 8a c5 02  	mul	s4, a1, a2
80000a34: f3 2a 40 cc  	csrr	s5, tmask
80000a38: 6f 00 c0 02  	j	0x80000a64 <_Z12kernel_trigoP12kernel_arg_t+0x9c>
80000a3c: 0b 30 0b 00  	vx_join	s6
80000a40: 27 a0 a9 00  	fsw	fa0, 0x0(s3)
80000a44: 13 04 14 00  	addi	s0, s0, 0x1
80000a48: 93 84 44 00  	addi	s1, s1, 0x4
80000a4c: 13 09 49 00  	addi	s2, s2, 0x4
80000a50: 93 89 49 00  	addi	s3, s3, 0x4
80000a54: 33 45 44 01  	xor	a0, s0, s4
80000a58: 13 35 15 00  	seqz	a0, a0
80000a5c: 8b 50 55 01  	vx_pred_n	a0, s5
80000a60: 63 14 05 02  	bnez	a0, 0x80000a88 <_Z12kernel_trigoP12kernel_arg_t+0xc0>
80000a64: 87 a7 04 00  	flw	fa5, 0x0(s1)
80000a68: 07 27 09 00  	flw	fa4, 0x0(s2)
80000a6c: 53 f5 e7 10  	fmul.s	fa0, fa5, fa4
80000a70: 13 75 34 00  	andi	a0, s0, 0x3
80000a74: 13 35 15 00  	seqz	a0, a0
80000a78: 0b 2b 15 00  	vx_split_n	s6, a0
80000a7c: e3 00 05 fc  	beqz	a0, 0x80000a3c <_Z12kernel_trigoP12kernel_arg_t+0x74>
80000a80: ef 20 d0 61  	jal	0x8000389c <sinf>
80000a84: 6f f0 9f fb  	j	0x80000a3c <_Z12kernel_trigoP12kernel_arg_t+0x74>
80000a88: 83 20 c1 02  	lw	ra, 0x2c(sp)
80000a8c: 03 24 81 02  	lw	s0, 0x28(sp)
80000a90: 83 24 41 02  	lw	s1, 0x24(sp)
80000a94: 03 29 01 02  	lw	s2, 0x20(sp)
80000a98: 83 29 c1 01  	lw	s3, 0x1c(sp)
80000a9c: 03 2a 81 01  	lw	s4, 0x18(sp)
80000aa0: 83 2a 41 01  	lw	s5, 0x14(sp)
80000aa4: 03 2b 01 01  	lw	s6, 0x10(sp)
80000aa8: 13 01 01 03  	addi	sp, sp, 0x30
80000aac: 67 80 00 00  	ret

80000ab0 <_Z10kernel_barP12kernel_arg_t>:
80000ab0: 13 01 01 ff  	addi	sp, sp, -0x10
80000ab4: 23 26 a1 00  	sw	a0, 0xc(sp)
80000ab8: 73 27 20 fc  	csrr	a4, nw
80000abc: f3 25 10 fc  	csrr	a1, nw
80000ac0: 73 26 00 fc  	csrr	a2, nt
80000ac4: 73 28 20 cc  	csrr	a6, cid
80000ac8: f3 26 10 cc  	csrr	a3, wid
80000acc: f3 27 00 cc  	csrr	a5, tid
80000ad0: 03 26 05 02  	lw	a2, 0x20(a0)
80000ad4: b3 e6 f6 00  	or	a3, a3, a5
80000ad8: 93 b7 16 00  	seqz	a5, a3
80000adc: 8b a6 17 00  	vx_split_n	a3, a5
80000ae0: 63 8a 07 04  	beqz	a5, 0x80000b34 <_Z10kernel_barP12kernel_arg_t+0x84>
80000ae4: 83 27 45 00  	lw	a5, 0x4(a0)
80000ae8: 33 d7 e7 02  	divu	a4, a5, a4
80000aec: b3 28 e0 00  	sgtz	a7, a4
80000af0: 8b a7 18 00  	vx_split_n	a5, a7
80000af4: 63 8e 08 02  	beqz	a7, 0x80000b30 <_Z10kernel_barP12kernel_arg_t+0x80>
80000af8: 03 25 05 01  	lw	a0, 0x10(a0)
80000afc: 93 08 00 00  	li	a7, 0x0
80000b00: 33 08 07 03  	mul	a6, a4, a6
80000b04: f3 22 40 cc  	csrr	t0, tmask
80000b08: 33 83 08 01  	add	t1, a7, a6
80000b0c: 13 13 23 00  	slli	t1, t1, 0x2
80000b10: b3 03 65 00  	add	t2, a0, t1
80000b14: 83 a3 03 00  	lw	t2, 0x0(t2)
80000b18: 33 03 66 00  	add	t1, a2, t1
80000b1c: 23 20 73 00  	sw	t2, 0x0(t1)
80000b20: 93 88 18 00  	addi	a7, a7, 0x1
80000b24: 33 a3 e8 00  	slt	t1, a7, a4
80000b28: 0b 50 53 00  	vx_pred	t1, t0
80000b2c: e3 1e 03 fc  	bnez	t1, 0x80000b08 <_Z10kernel_barP12kernel_arg_t+0x58>
80000b30: 0b b0 07 00  	vx_join	a5
80000b34: 0b b0 06 00  	vx_join	a3
80000b38: 17 a5 00 00  	auipc	a0, 0xa
80000b3c: 03 25 45 10  	lw	a0, 0x104(a0)
80000b40: 93 06 00 00  	li	a3, 0x0
80000b44: 0f 00 f0 0f  	fence
80000b48: 0b c0 b6 00  	vx_bar	a3, a1
80000b4c: 33 05 45 00  	add	a0, a0, tp
80000b50: 03 25 05 00  	lw	a0, 0x0(a0)
80000b54: 13 15 25 00  	slli	a0, a0, 0x2
80000b58: 33 05 a6 00  	add	a0, a2, a0
80000b5c: 83 25 05 00  	lw	a1, 0x0(a0)
80000b60: 93 85 15 00  	addi	a1, a1, 0x1
80000b64: 23 20 b5 00  	sw	a1, 0x0(a0)
80000b68: 13 01 01 01  	addi	sp, sp, 0x10
80000b6c: 67 80 00 00  	ret

80000b70 <_Z11kernel_gbarP12kernel_arg_t>:
80000b70: 13 01 01 ff  	addi	sp, sp, -0x10
80000b74: 23 26 a1 00  	sw	a0, 0xc(sp)
80000b78: f3 25 20 fc  	csrr	a1, nw
80000b7c: 73 26 10 fc  	csrr	a2, nw
80000b80: 73 26 00 fc  	csrr	a2, nt
80000b84: f3 26 20 cc  	csrr	a3, cid
80000b88: 73 27 10 cc  	csrr	a4, wid
80000b8c: f3 27 00 cc  	csrr	a5, tid
80000b90: 03 26 05 02  	lw	a2, 0x20(a0)
80000b94: b3 e6 e6 00  	or	a3, a3, a4
80000b98: b3 e6 f6 00  	or	a3, a3, a5
80000b9c: 13 b7 16 00  	seqz	a4, a3
80000ba0: 8b 26 17 00  	vx_split_n	a3, a4
80000ba4: 63 08 07 02  	beqz	a4, 0x80000bd4 <_Z11kernel_gbarP12kernel_arg_t+0x64>
80000ba8: 03 27 45 00  	lw	a4, 0x4(a0)
80000bac: 63 54 e0 02  	blez	a4, 0x80000bd4 <_Z11kernel_gbarP12kernel_arg_t+0x64>
80000bb0: 03 25 05 01  	lw	a0, 0x10(a0)
80000bb4: 13 17 27 00  	slli	a4, a4, 0x2
80000bb8: 33 07 e6 00  	add	a4, a2, a4
80000bbc: 93 07 06 00  	mv	a5, a2
80000bc0: 03 28 05 00  	lw	a6, 0x0(a0)
80000bc4: 23 a0 07 01  	sw	a6, 0x0(a5)
80000bc8: 93 87 47 00  	addi	a5, a5, 0x4
80000bcc: 13 05 45 00  	addi	a0, a0, 0x4
80000bd0: e3 98 e7 fe  	bne	a5, a4, 0x80000bc0 <_Z11kernel_gbarP12kernel_arg_t+0x50>
80000bd4: 0b b0 06 00  	vx_join	a3
80000bd8: 17 a5 00 00  	auipc	a0, 0xa
80000bdc: 03 25 45 06  	lw	a0, 0x64(a0)
80000be0: 0f 00 f0 0f  	fence
80000be4: b7 06 00 80  	lui	a3, 0x80000
80000be8: 0b c0 b6 00  	vx_bar	a3, a1
80000bec: 33 05 45 00  	add	a0, a0, tp
80000bf0: 03 25 05 00  	lw	a0, 0x0(a0)
80000bf4: 13 15 25 00  	slli	a0, a0, 0x2
80000bf8: 33 05 a6 00  	add	a0, a2, a0
80000bfc: 83 25 05 00  	lw	a1, 0x0(a0)
80000c00: 93 85 15 00  	addi	a1, a1, 0x1
80000c04: 23 20 b5 00  	sw	a1, 0x0(a0)
80000c08: 13 01 01 01  	addi	sp, sp, 0x10
80000c0c: 67 80 00 00  	ret

80000c10 <main>:
80000c10: 17 a5 00 00  	auipc	a0, 0xa
80000c14: 13 05 45 0d  	addi	a0, a0, 0xd4
80000c18: 97 f5 ff ff  	auipc	a1, 0xfffff
80000c1c: 93 85 c5 47  	addi	a1, a1, 0x47c
80000c20: 23 20 b5 00  	sw	a1, 0x0(a0)
80000c24: 97 f5 ff ff  	auipc	a1, 0xfffff
80000c28: 93 85 c5 4d  	addi	a1, a1, 0x4dc
80000c2c: 23 22 b5 00  	sw	a1, 0x4(a0)
80000c30: 97 f5 ff ff  	auipc	a1, 0xfffff
80000c34: 93 85 c5 53  	addi	a1, a1, 0x53c
80000c38: 23 24 b5 00  	sw	a1, 0x8(a0)
80000c3c: 97 f5 ff ff  	auipc	a1, 0xfffff
80000c40: 93 85 c5 59  	addi	a1, a1, 0x59c
80000c44: 23 26 b5 00  	sw	a1, 0xc(a0)
80000c48: 97 f5 ff ff  	auipc	a1, 0xfffff
80000c4c: 93 85 45 60  	addi	a1, a1, 0x604
80000c50: 23 28 b5 00  	sw	a1, 0x10(a0)
80000c54: 97 f5 ff ff  	auipc	a1, 0xfffff
80000c58: 93 85 45 66  	addi	a1, a1, 0x664
80000c5c: 23 2a b5 00  	sw	a1, 0x14(a0)
80000c60: 97 f5 ff ff  	auipc	a1, 0xfffff
80000c64: 93 85 45 6c  	addi	a1, a1, 0x6c4
80000c68: 23 2c b5 00  	sw	a1, 0x18(a0)
80000c6c: 97 f5 ff ff  	auipc	a1, 0xfffff
80000c70: 93 85 45 72  	addi	a1, a1, 0x724
80000c74: 23 2e b5 00  	sw	a1, 0x1c(a0)
80000c78: 97 f5 ff ff  	auipc	a1, 0xfffff
80000c7c: 93 85 45 78  	addi	a1, a1, 0x784
80000c80: 23 20 b5 02  	sw	a1, 0x20(a0)
80000c84: 97 f5 ff ff  	auipc	a1, 0xfffff
80000c88: 93 85 45 7e  	addi	a1, a1, 0x7e4
80000c8c: 23 22 b5 02  	sw	a1, 0x24(a0)
80000c90: 97 05 00 00  	auipc	a1, 0x0
80000c94: 93 85 45 84  	addi	a1, a1, -0x7bc
80000c98: 23 24 b5 02  	sw	a1, 0x28(a0)
80000c9c: 97 05 00 00  	auipc	a1, 0x0
80000ca0: 93 85 45 8a  	addi	a1, a1, -0x75c
80000ca4: 23 26 b5 02  	sw	a1, 0x2c(a0)
80000ca8: 97 05 00 00  	auipc	a1, 0x0
80000cac: 93 85 c5 90  	addi	a1, a1, -0x6f4
80000cb0: 23 28 b5 02  	sw	a1, 0x30(a0)
80000cb4: 97 05 00 00  	auipc	a1, 0x0
80000cb8: 93 85 c5 96  	addi	a1, a1, -0x694
80000cbc: 23 2a b5 02  	sw	a1, 0x34(a0)
80000cc0: 97 05 00 00  	auipc	a1, 0x0
80000cc4: 93 85 45 9d  	addi	a1, a1, -0x62c
80000cc8: 23 2c b5 02  	sw	a1, 0x38(a0)
80000ccc: 97 05 00 00  	auipc	a1, 0x0
80000cd0: 93 85 85 a3  	addi	a1, a1, -0x5c8
80000cd4: 23 2e b5 02  	sw	a1, 0x3c(a0)
80000cd8: 97 05 00 00  	auipc	a1, 0x0
80000cdc: 93 85 c5 a9  	addi	a1, a1, -0x564
80000ce0: 23 20 b5 04  	sw	a1, 0x40(a0)
80000ce4: 97 05 00 00  	auipc	a1, 0x0
80000ce8: 93 85 05 b0  	addi	a1, a1, -0x500
80000cec: 23 22 b5 04  	sw	a1, 0x44(a0)
80000cf0: 97 05 00 00  	auipc	a1, 0x0
80000cf4: 93 85 45 b6  	addi	a1, a1, -0x49c
80000cf8: 23 24 b5 04  	sw	a1, 0x48(a0)
80000cfc: 97 05 00 00  	auipc	a1, 0x0
80000d00: 93 85 85 bc  	addi	a1, a1, -0x438
80000d04: 23 26 b5 04  	sw	a1, 0x4c(a0)
80000d08: 97 05 00 00  	auipc	a1, 0x0
80000d0c: 93 85 45 c3  	addi	a1, a1, -0x3cc
80000d10: 23 28 b5 04  	sw	a1, 0x50(a0)
80000d14: 97 05 00 00  	auipc	a1, 0x0
80000d18: 93 85 45 cb  	addi	a1, a1, -0x34c
80000d1c: 23 2a b5 04  	sw	a1, 0x54(a0)
80000d20: 97 05 00 00  	auipc	a1, 0x0
80000d24: 93 85 05 d9  	addi	a1, a1, -0x270
80000d28: 23 2c b5 04  	sw	a1, 0x58(a0)
80000d2c: 97 05 00 00  	auipc	a1, 0x0
80000d30: 93 85 45 e4  	addi	a1, a1, -0x1bc
80000d34: 23 2e b5 04  	sw	a1, 0x5c(a0)
80000d38: 73 27 00 34  	csrr	a4, mscratch
80000d3c: 83 25 07 00  	lw	a1, 0x0(a4)
80000d40: 93 95 25 00  	slli	a1, a1, 0x2
80000d44: 33 05 b5 00  	add	a0, a0, a1
80000d48: 83 26 05 00  	lw	a3, 0x0(a0)
80000d4c: 93 05 47 00  	addi	a1, a4, 0x4
80000d50: 13 05 10 00  	li	a0, 0x1
80000d54: 13 06 00 00  	li	a2, 0x0
80000d58: 6f 00 80 45  	j	0x800011b0 <vx_spawn_threads>

80000d5c <_Exit>:
80000d5c: ef 00 50 07  	jal	0x800015d0 <vx_perf_dump>
80000d60: 93 02 80 08  	li	t0, 0x88
80000d64: 23 a0 a2 00  	sw	a0, 0x0(t0)
80000d68: 0f 00 f0 0f  	fence
80000d6c: 0b 00 00 00  	vx_tmc	zero

80000d70 <init_regs>:
80000d70: 97 a1 00 00  	auipc	gp, 0xa
80000d74: 93 81 01 6c  	addi	gp, gp, 0x6c0
80000d78: 37 01 ff ff  	lui	sp, 0xffff0
80000d7c: f3 22 40 f1  	csrr	t0, mhartid
80000d80: 13 93 d2 00  	slli	t1, t0, 0xd
80000d84: 33 01 61 40  	sub	sp, sp, t1
80000d88: 13 03 c0 01  	li	t1, 0x1c
80000d8c: b3 82 62 02  	mul	t0, t0, t1
80000d90: 17 a2 00 00  	auipc	tp, 0xa
80000d94: 13 02 c2 fc  	addi	tp, tp, -0x34
80000d98: 33 02 52 00  	add	tp, tp, t0
80000d9c: 67 80 00 00  	ret

80000da0 <init_regs_all>:
80000da0: 93 02 f0 ff  	li	t0, -0x1
80000da4: 0b 80 02 00  	vx_tmc	t0
80000da8: ef f0 9f fc  	jal	0x80000d70 <init_regs>
80000dac: 0b 00 00 00  	vx_tmc	zero
80000db0: 67 80 00 00  	ret

80000db4 <init_tls_all>:
80000db4: 93 02 f0 ff  	li	t0, -0x1
80000db8: 0b 80 02 00  	vx_tmc	t0
80000dbc: ef 00 c0 00  	jal	0x80000dc8 <__init_tls>
80000dc0: 0b 00 00 00  	vx_tmc	zero
80000dc4: 67 80 00 00  	ret

80000dc8 <__init_tls>:
80000dc8: 13 01 01 ff  	addi	sp, sp, -0x10
80000dcc: 13 06 00 00  	li	a2, 0x0
80000dd0: 97 a5 00 00  	auipc	a1, 0xa
80000dd4: 93 85 05 e6  	addi	a1, a1, -0x1a0
80000dd8: 13 05 02 00  	mv	a0, tp
80000ddc: 23 24 81 00  	sw	s0, 0x8(sp)
80000de0: 23 26 11 00  	sw	ra, 0xc(sp)
80000de4: 13 04 02 00  	mv	s0, tp
80000de8: ef 20 d0 77  	jal	0x80003d64 <memcpy>
80000dec: 13 05 00 00  	li	a0, 0x0
80000df0: 33 05 a4 00  	add	a0, s0, a0
80000df4: 03 24 81 00  	lw	s0, 0x8(sp)
80000df8: 83 20 c1 00  	lw	ra, 0xc(sp)
80000dfc: 13 06 c0 01  	li	a2, 0x1c
80000e00: 93 05 00 00  	li	a1, 0x0
80000e04: 13 01 01 01  	addi	sp, sp, 0x10
80000e08: 6f 30 80 49  	j	0x800042a0 <memset>

80000e0c <__libc_init_array>:
80000e0c: 13 01 01 ff  	addi	sp, sp, -0x10
80000e10: 23 24 81 00  	sw	s0, 0x8(sp)
80000e14: 23 20 21 01  	sw	s2, 0x0(sp)
80000e18: 97 a7 00 00  	auipc	a5, 0xa
80000e1c: 93 87 87 e1  	addi	a5, a5, -0x1e8
80000e20: 17 a4 00 00  	auipc	s0, 0xa
80000e24: 13 04 04 e1  	addi	s0, s0, -0x1f0
80000e28: 23 26 11 00  	sw	ra, 0xc(sp)
80000e2c: 23 22 91 00  	sw	s1, 0x4(sp)
80000e30: 33 89 87 40  	sub	s2, a5, s0
80000e34: 63 80 87 02  	beq	a5, s0, 0x80000e54 <__libc_init_array+0x48>
80000e38: 13 59 29 40  	srai	s2, s2, 0x2
80000e3c: 93 04 00 00  	li	s1, 0x0
80000e40: 83 27 04 00  	lw	a5, 0x0(s0)
80000e44: 93 84 14 00  	addi	s1, s1, 0x1
80000e48: 13 04 44 00  	addi	s0, s0, 0x4
80000e4c: e7 80 07 00  	jalr	a5
80000e50: e3 e8 24 ff  	bltu	s1, s2, 0x80000e40 <__libc_init_array+0x34>
80000e54: 97 a7 00 00  	auipc	a5, 0xa
80000e58: 93 87 c7 dd  	addi	a5, a5, -0x224
80000e5c: 17 a4 00 00  	auipc	s0, 0xa
80000e60: 13 04 44 dd  	addi	s0, s0, -0x22c
80000e64: 33 89 87 40  	sub	s2, a5, s0
80000e68: 13 59 29 40  	srai	s2, s2, 0x2
80000e6c: 63 8e 87 00  	beq	a5, s0, 0x80000e88 <__libc_init_array+0x7c>
80000e70: 93 04 00 00  	li	s1, 0x0
80000e74: 83 27 04 00  	lw	a5, 0x0(s0)
80000e78: 93 84 14 00  	addi	s1, s1, 0x1
80000e7c: 13 04 44 00  	addi	s0, s0, 0x4
80000e80: e7 80 07 00  	jalr	a5
80000e84: e3 e8 24 ff  	bltu	s1, s2, 0x80000e74 <__libc_init_array+0x68>
80000e88: 83 20 c1 00  	lw	ra, 0xc(sp)
80000e8c: 03 24 81 00  	lw	s0, 0x8(sp)
80000e90: 83 24 41 00  	lw	s1, 0x4(sp)
80000e94: 03 29 01 00  	lw	s2, 0x0(sp)
80000e98: 13 01 01 01  	addi	sp, sp, 0x10
80000e9c: 67 80 00 00  	ret

80000ea0 <__funcs_on_exit>:
80000ea0: 13 01 01 ff  	addi	sp, sp, -0x10
80000ea4: 23 24 81 00  	sw	s0, 0x8(sp)
80000ea8: 97 a7 00 00  	auipc	a5, 0xa
80000eac: 93 87 87 d8  	addi	a5, a5, -0x278
80000eb0: 17 a4 00 00  	auipc	s0, 0xa
80000eb4: 13 04 04 d8  	addi	s0, s0, -0x280
80000eb8: 33 04 f4 40  	sub	s0, s0, a5
80000ebc: 23 22 91 00  	sw	s1, 0x4(sp)
80000ec0: 23 26 11 00  	sw	ra, 0xc(sp)
80000ec4: 93 54 24 40  	srai	s1, s0, 0x2
80000ec8: 63 80 04 02  	beqz	s1, 0x80000ee8 <__funcs_on_exit+0x48>
80000ecc: 13 04 c4 ff  	addi	s0, s0, -0x4
80000ed0: 33 04 f4 00  	add	s0, s0, a5
80000ed4: 83 27 04 00  	lw	a5, 0x0(s0)
80000ed8: 93 84 f4 ff  	addi	s1, s1, -0x1
80000edc: 13 04 c4 ff  	addi	s0, s0, -0x4
80000ee0: e7 80 07 00  	jalr	a5
80000ee4: e3 98 04 fe  	bnez	s1, 0x80000ed4 <__funcs_on_exit+0x34>
80000ee8: 83 20 c1 00  	lw	ra, 0xc(sp)
80000eec: 03 24 81 00  	lw	s0, 0x8(sp)
80000ef0: 83 24 41 00  	lw	s1, 0x4(sp)
80000ef4: 13 01 01 01  	addi	sp, sp, 0x10
80000ef8: 67 80 00 00  	ret

80000efc <vx_putchar>:
80000efc: f3 22 40 f1  	csrr	t0, mhartid
80000f00: 93 f2 f2 03  	andi	t0, t0, 0x3f
80000f04: 13 03 00 04  	li	t1, 0x40
80000f08: b3 82 62 00  	add	t0, t0, t1
80000f0c: 23 80 a2 00  	sb	a0, 0x0(t0)
80000f10: 67 80 00 00  	ret

80000f14 <process_threads>:
80000f14: 13 01 01 fe  	addi	sp, sp, -0x20
80000f18: 23 2e 11 00  	sw	ra, 0x1c(sp)
80000f1c: 23 2c 81 00  	sw	s0, 0x18(sp)
80000f20: 23 2a 91 00  	sw	s1, 0x14(sp)
80000f24: 23 28 21 01  	sw	s2, 0x10(sp)
80000f28: 23 26 31 01  	sw	s3, 0xc(sp)
80000f2c: 23 24 41 01  	sw	s4, 0x8(sp)
80000f30: 23 22 51 01  	sw	s5, 0x4(sp)
80000f34: 23 20 61 01  	sw	s6, 0x0(sp)
80000f38: 73 27 00 34  	csrr	a4, mscratch
80000f3c: 73 29 00 fc  	csrr	s2, nt
80000f40: f3 26 10 cc  	csrr	a3, wid
80000f44: 73 26 00 cc  	csrr	a2, tid
80000f48: 83 25 07 01  	lw	a1, 0x10(a4)
80000f4c: 83 27 47 01  	lw	a5, 0x14(a4)
80000f50: 13 85 06 00  	mv	a0, a3
80000f54: 33 84 d5 02  	mul	s0, a1, a3
80000f58: 63 e4 f6 00  	bltu	a3, a5, 0x80000f60 <process_threads+0x4c>
80000f5c: 13 85 07 00  	mv	a0, a5
80000f60: b3 b9 f6 00  	sltu	s3, a3, a5
80000f64: 33 04 a4 00  	add	s0, s0, a0
80000f68: b3 89 b9 00  	add	s3, s3, a1
80000f6c: 83 27 87 00  	lw	a5, 0x8(a4)
80000f70: 03 2a 07 00  	lw	s4, 0x0(a4)
80000f74: 83 2a 47 00  	lw	s5, 0x4(a4)
80000f78: b3 06 f6 00  	add	a3, a2, a5
80000f7c: 33 04 24 03  	mul	s0, s0, s2
80000f80: 93 07 42 00  	addi	a5, tp, 0x4
80000f84: 23 20 02 00  	sw	zero, 0x0(tp)
80000f88: 23 a0 07 00  	sw	zero, 0x0(a5)
80000f8c: 23 a2 07 00  	sw	zero, 0x4(a5)
80000f90: 23 a4 07 00  	sw	zero, 0x8(a5)
80000f94: b3 89 29 03  	mul	s3, s3, s2
80000f98: 33 04 d4 00  	add	s0, s0, a3
80000f9c: b3 89 89 00  	add	s3, s3, s0
80000fa0: 63 74 34 05  	bgeu	s0, s3, 0x80000fe8 <process_threads+0xd4>
80000fa4: 17 ab 00 00  	auipc	s6, 0xa
80000fa8: 13 0b cb da  	addi	s6, s6, -0x254
80000fac: 93 04 02 01  	addi	s1, tp, 0x10
80000fb0: 83 27 0b 00  	lw	a5, 0x0(s6)
80000fb4: 03 26 4b 00  	lw	a2, 0x4(s6)
80000fb8: 13 85 0a 00  	mv	a0, s5
80000fbc: 33 57 f4 02  	divu	a4, s0, a5
80000fc0: b3 86 c7 02  	mul	a3, a5, a2
80000fc4: b3 77 f4 02  	remu	a5, s0, a5
80000fc8: b3 56 d4 02  	divu	a3, s0, a3
80000fcc: 23 a0 f4 00  	sw	a5, 0x0(s1)
80000fd0: 33 04 24 01  	add	s0, s0, s2
80000fd4: b3 77 c7 02  	remu	a5, a4, a2
80000fd8: 23 a4 d4 00  	sw	a3, 0x8(s1)
80000fdc: 23 a2 f4 00  	sw	a5, 0x4(s1)
80000fe0: e7 00 0a 00  	jalr	s4
80000fe4: e3 66 34 fd  	bltu	s0, s3, 0x80000fb0 <process_threads+0x9c>
80000fe8: 83 20 c1 01  	lw	ra, 0x1c(sp)
80000fec: 03 24 81 01  	lw	s0, 0x18(sp)
80000ff0: 83 24 41 01  	lw	s1, 0x14(sp)
80000ff4: 03 29 01 01  	lw	s2, 0x10(sp)
80000ff8: 83 29 c1 00  	lw	s3, 0xc(sp)
80000ffc: 03 2a 81 00  	lw	s4, 0x8(sp)
80001000: 83 2a 41 00  	lw	s5, 0x4(sp)
80001004: 03 2b 01 00  	lw	s6, 0x0(sp)
80001008: 13 01 01 02  	addi	sp, sp, 0x20
8000100c: 67 80 00 00  	ret

80001010 <process_remaining_threads>:
80001010: f3 27 00 34  	csrr	a5, mscratch
80001014: 73 27 00 cc  	csrr	a4, tid
80001018: 03 a7 07 00  	lw	a4, 0x0(a5)
8000101c: 03 a5 47 00  	lw	a0, 0x4(a5)
80001020: 67 00 07 00  	jr	a4

80001024 <process_threads_stub>:
80001024: 13 01 01 ff  	addi	sp, sp, -0x10
80001028: 23 26 11 00  	sw	ra, 0xc(sp)
8000102c: 93 07 f0 ff  	li	a5, -0x1
80001030: 0b 80 07 00  	vx_tmc	a5
80001034: ef f0 1f ee  	jal	0x80000f14 <process_threads>
80001038: 0b 00 00 00  	vx_tmc	zero
8000103c: 83 20 c1 00  	lw	ra, 0xc(sp)
80001040: 13 01 01 01  	addi	sp, sp, 0x10
80001044: 67 80 00 00  	ret

80001048 <process_thread_groups>:
80001048: 13 01 01 fe  	addi	sp, sp, -0x20
8000104c: 23 2e 11 00  	sw	ra, 0x1c(sp)
80001050: 23 2c 81 00  	sw	s0, 0x18(sp)
80001054: 23 2a 91 00  	sw	s1, 0x14(sp)
80001058: 23 28 21 01  	sw	s2, 0x10(sp)
8000105c: 23 26 31 01  	sw	s3, 0xc(sp)
80001060: 23 24 41 01  	sw	s4, 0x8(sp)
80001064: 23 22 51 01  	sw	s5, 0x4(sp)
80001068: 23 20 61 01  	sw	s6, 0x0(sp)
8000106c: f3 26 00 34  	csrr	a3, mscratch
80001070: 73 2e 00 fc  	csrr	t3, nt
80001074: 73 26 10 cc  	csrr	a2, wid
80001078: 73 23 00 cc  	csrr	t1, tid
8000107c: 83 a8 46 01  	lw	a7, 0x14(a3)
80001080: 17 a7 00 00  	auipc	a4, 0xa
80001084: 13 07 47 cc  	addi	a4, a4, -0x33c
80001088: 83 25 07 00  	lw	a1, 0x0(a4)
8000108c: b3 77 16 03  	remu	a5, a2, a7
80001090: 03 aa 06 00  	lw	s4, 0x0(a3)
80001094: 03 28 47 00  	lw	a6, 0x4(a4)
80001098: 03 a4 86 00  	lw	s0, 0x8(a3)
8000109c: 03 a7 c6 00  	lw	a4, 0xc(a3)
800010a0: 83 aa 46 00  	lw	s5, 0x4(a3)
800010a4: 03 a9 06 01  	lw	s2, 0x10(a3)
800010a8: 83 a9 86 01  	lw	s3, 0x18(a3)
800010ac: 33 39 26 01  	sltu	s2, a2, s2
800010b0: 33 09 e9 00  	add	s2, s2, a4
800010b4: 13 07 42 00  	addi	a4, tp, 0x4
800010b8: b3 87 c7 03  	mul	a5, a5, t3
800010bc: b3 87 67 00  	add	a5, a5, t1
800010c0: b3 d6 b7 02  	divu	a3, a5, a1
800010c4: 33 83 05 03  	mul	t1, a1, a6
800010c8: 33 56 16 03  	divu	a2, a2, a7
800010cc: b3 f5 b7 02  	remu	a1, a5, a1
800010d0: 33 04 86 00  	add	s0, a2, s0
800010d4: 23 20 c2 00  	sw	a2, 0x0(tp)
800010d8: b3 f6 06 03  	remu	a3, a3, a6
800010dc: 23 20 b7 00  	sw	a1, 0x0(a4)
800010e0: b3 d7 67 02  	divu	a5, a5, t1
800010e4: 23 22 d7 00  	sw	a3, 0x4(a4)
800010e8: 33 09 39 03  	mul	s2, s2, s3
800010ec: 23 24 f7 00  	sw	a5, 0x8(a4)
800010f0: 33 09 89 00  	add	s2, s2, s0
800010f4: 63 74 24 05  	bgeu	s0, s2, 0x8000113c <process_thread_groups+0xf4>
800010f8: 17 ab 00 00  	auipc	s6, 0xa
800010fc: 13 0b 8b c5  	addi	s6, s6, -0x3a8
80001100: 93 04 02 01  	addi	s1, tp, 0x10
80001104: 83 27 0b 00  	lw	a5, 0x0(s6)
80001108: 03 26 4b 00  	lw	a2, 0x4(s6)
8000110c: 13 85 0a 00  	mv	a0, s5
80001110: 33 57 f4 02  	divu	a4, s0, a5
80001114: b3 86 c7 02  	mul	a3, a5, a2
80001118: b3 77 f4 02  	remu	a5, s0, a5
8000111c: b3 56 d4 02  	divu	a3, s0, a3
80001120: 23 a0 f4 00  	sw	a5, 0x0(s1)
80001124: 33 04 34 01  	add	s0, s0, s3
80001128: b3 77 c7 02  	remu	a5, a4, a2
8000112c: 23 a4 d4 00  	sw	a3, 0x8(s1)
80001130: 23 a2 f4 00  	sw	a5, 0x4(s1)
80001134: e7 00 0a 00  	jalr	s4
80001138: e3 66 24 fd  	bltu	s0, s2, 0x80001104 <process_thread_groups+0xbc>
8000113c: 83 20 c1 01  	lw	ra, 0x1c(sp)
80001140: 03 24 81 01  	lw	s0, 0x18(sp)
80001144: 83 24 41 01  	lw	s1, 0x14(sp)
80001148: 03 29 01 01  	lw	s2, 0x10(sp)
8000114c: 83 29 c1 00  	lw	s3, 0xc(sp)
80001150: 03 2a 81 00  	lw	s4, 0x8(sp)
80001154: 83 2a 41 00  	lw	s5, 0x4(sp)
80001158: 03 2b 01 00  	lw	s6, 0x0(sp)
8000115c: 13 01 01 02  	addi	sp, sp, 0x20
80001160: 67 80 00 00  	ret

80001164 <process_thread_groups_stub>:
80001164: 13 01 01 ff  	addi	sp, sp, -0x10
80001168: 23 26 11 00  	sw	ra, 0xc(sp)
8000116c: 73 27 00 34  	csrr	a4, mscratch
80001170: 83 27 47 01  	lw	a5, 0x14(a4)
80001174: 03 26 c7 01  	lw	a2, 0x1c(a4)
80001178: 73 27 10 cc  	csrr	a4, wid
8000117c: 33 77 f7 02  	remu	a4, a4, a5
80001180: 93 87 f7 ff  	addi	a5, a5, -0x1
80001184: 93 06 06 00  	mv	a3, a2
80001188: 63 84 e7 00  	beq	a5, a4, 0x80001190 <process_thread_groups_stub+0x2c>
8000118c: 93 06 f0 ff  	li	a3, -0x1
80001190: 0b 80 06 00  	vx_tmc	a3
80001194: ef f0 5f eb  	jal	0x80001048 <process_thread_groups>
80001198: f3 27 10 cc  	csrr	a5, wid
8000119c: 93 b7 17 00  	seqz	a5, a5
800011a0: 0b 80 07 00  	vx_tmc	a5
800011a4: 83 20 c1 00  	lw	ra, 0xc(sp)
800011a8: 13 01 01 01  	addi	sp, sp, 0x10
800011ac: 67 80 00 00  	ret

800011b0 <vx_spawn_threads>:
800011b0: 13 01 01 fd  	addi	sp, sp, -0x30
800011b4: 23 26 11 02  	sw	ra, 0x2c(sp)
800011b8: 23 24 81 02  	sw	s0, 0x28(sp)
800011bc: 63 8e 05 22  	beqz	a1, 0x800013f8 <vx_spawn_threads+0x248>
800011c0: 63 0c 06 12  	beqz	a2, 0x800012f8 <vx_spawn_threads+0x148>
800011c4: 63 12 05 28  	bnez	a0, 0x80001448 <vx_spawn_threads+0x298>
800011c8: 13 06 10 00  	li	a2, 0x1
800011cc: 17 a3 00 00  	auipc	t1, 0xa
800011d0: 13 03 43 b8  	addi	t1, t1, -0x47c
800011d4: 97 a7 00 00  	auipc	a5, 0xa
800011d8: 93 87 07 b7  	addi	a5, a5, -0x490
800011dc: 23 20 c3 00  	sw	a2, 0x0(t1)
800011e0: 23 a0 c7 00  	sw	a2, 0x0(a5)
800011e4: 93 08 10 00  	li	a7, 0x1
800011e8: 13 08 10 00  	li	a6, 0x1
800011ec: 13 06 10 00  	li	a2, 0x1
800011f0: 23 22 c3 00  	sw	a2, 0x4(t1)
800011f4: 23 a2 c7 00  	sw	a2, 0x4(a5)
800011f8: 93 05 10 00  	li	a1, 0x1
800011fc: 13 05 10 00  	li	a0, 0x1
80001200: 23 24 b3 00  	sw	a1, 0x8(t1)
80001204: 23 a4 a7 00  	sw	a0, 0x8(a5)
80001208: f3 2e 20 fc  	csrr	t4, nw
8000120c: f3 25 10 fc  	csrr	a1, nw
80001210: f3 27 00 fc  	csrr	a5, nt
80001214: 73 25 20 cc  	csrr	a0, cid
80001218: 33 8e f5 02  	mul	t3, a1, a5
8000121c: 63 68 1e 39  	bltu	t3, a7, 0x800015ac <vx_spawn_threads+0x3fc>
80001220: 13 03 10 00  	li	t1, 0x1
80001224: 63 74 13 13  	bgeu	t1, a7, 0x8000134c <vx_spawn_threads+0x19c>
80001228: 33 fe f8 02  	remu	t3, a7, a5
8000122c: 13 0f f0 ff  	li	t5, -0x1
80001230: 33 d6 f8 02  	divu	a2, a7, a5
80001234: 63 08 0e 00  	beqz	t3, 0x80001244 <vx_spawn_threads+0x94>
80001238: 33 13 c3 01  	sll	t1, t1, t3
8000123c: 13 0f f3 ff  	addi	t5, t1, -0x1
80001240: 13 06 16 00  	addi	a2, a2, 0x1
80001244: 93 88 f5 ff  	addi	a7, a1, -0x1
80001248: b3 07 06 03  	mul	a5, a2, a6
8000124c: b3 87 17 01  	add	a5, a5, a7
80001250: b3 d7 b7 02  	divu	a5, a5, a1
80001254: 63 f4 fe 00  	bgeu	t4, a5, 0x8000125c <vx_spawn_threads+0xac>
80001258: 93 87 0e 00  	mv	a5, t4
8000125c: 63 74 f5 08  	bgeu	a0, a5, 0x800012e4 <vx_spawn_threads+0x134>
80001260: b3 78 f8 02  	remu	a7, a6, a5
80001264: b3 57 f8 02  	divu	a5, a6, a5
80001268: 33 38 15 01  	sltu	a6, a0, a7
8000126c: b3 87 07 01  	add	a5, a5, a6
80001270: 33 08 f6 02  	mul	a6, a2, a5
80001274: 33 d3 c5 02  	divu	t1, a1, a2
80001278: 63 e6 05 23  	bltu	a1, a6, 0x800014a4 <vx_spawn_threads+0x2f4>
8000127c: 93 05 00 00  	li	a1, 0x0
80001280: 13 0e 10 00  	li	t3, 0x1
80001284: 23 22 e1 00  	sw	a4, 0x4(sp)
80001288: 23 20 d1 00  	sw	a3, 0x0(sp)
8000128c: 13 87 08 00  	mv	a4, a7
80001290: b3 87 a7 02  	mul	a5, a5, a0
80001294: 63 74 15 01  	bgeu	a0, a7, 0x8000129c <vx_spawn_threads+0xec>
80001298: 13 07 05 00  	mv	a4, a0
8000129c: b3 87 e7 00  	add	a5, a5, a4
800012a0: 23 24 f1 00  	sw	a5, 0x8(sp)
800012a4: 23 26 c1 01  	sw	t3, 0xc(sp)
800012a8: 23 28 b1 00  	sw	a1, 0x10(sp)
800012ac: 23 2a c1 00  	sw	a2, 0x14(sp)
800012b0: 23 2c 61 00  	sw	t1, 0x18(sp)
800012b4: 23 2e e1 01  	sw	t5, 0x1c(sp)
800012b8: 93 07 01 00  	mv	a5, sp
800012bc: 73 90 07 34  	csrw	mscratch, a5
800012c0: 97 a7 00 00  	auipc	a5, 0xa
800012c4: 23 a0 c7 a2  	sw	a2, -0x5e0(a5)
800012c8: 97 07 00 00  	auipc	a5, 0x0
800012cc: 93 87 c7 e9  	addi	a5, a5, -0x164
800012d0: 0b 10 f8 00  	vx_wspawn	a6, a5
800012d4: ef f0 1f e9  	jal	0x80001164 <process_thread_groups_stub>
800012d8: 93 07 10 00  	li	a5, 0x1
800012dc: 13 07 00 00  	li	a4, 0x0
800012e0: 0b 90 e7 00  	vx_wspawn	a5, a4
800012e4: 13 05 00 00  	li	a0, 0x0
800012e8: 83 20 c1 02  	lw	ra, 0x2c(sp)
800012ec: 03 24 81 02  	lw	s0, 0x28(sp)
800012f0: 13 01 01 03  	addi	sp, sp, 0x30
800012f4: 67 80 00 00  	ret
800012f8: 63 02 05 20  	beqz	a0, 0x800014fc <vx_spawn_threads+0x34c>
800012fc: 03 a8 05 00  	lw	a6, 0x0(a1)
80001300: 17 a3 00 00  	auipc	t1, 0xa
80001304: 13 03 03 a5  	addi	t1, t1, -0x5b0
80001308: 97 a7 00 00  	auipc	a5, 0xa
8000130c: 93 87 c7 a3  	addi	a5, a5, -0x5c4
80001310: 13 06 10 00  	li	a2, 0x1
80001314: 23 20 03 01  	sw	a6, 0x0(t1)
80001318: 23 a0 c7 00  	sw	a2, 0x0(a5)
8000131c: 63 00 c5 20  	beq	a0, a2, 0x8000151c <vx_spawn_threads+0x36c>
80001320: 83 a8 45 00  	lw	a7, 0x4(a1)
80001324: 13 0e 20 00  	li	t3, 0x2
80001328: 23 a2 c7 00  	sw	a2, 0x4(a5)
8000132c: 23 22 13 01  	sw	a7, 0x4(t1)
80001330: 33 08 18 03  	mul	a6, a6, a7
80001334: 63 02 c5 27  	beq	a0, t3, 0x80001598 <vx_spawn_threads+0x3e8>
80001338: 83 a5 85 00  	lw	a1, 0x8(a1)
8000133c: 33 08 b8 02  	mul	a6, a6, a1
80001340: 13 05 10 00  	li	a0, 0x1
80001344: 93 08 10 00  	li	a7, 0x1
80001348: 6f f0 9f eb  	j	0x80001200 <vx_spawn_threads+0x50>
8000134c: 13 06 f8 ff  	addi	a2, a6, -0x1
80001350: 33 06 c6 01  	add	a2, a2, t3
80001354: 33 56 c6 03  	divu	a2, a2, t3
80001358: 97 a8 00 00  	auipc	a7, 0xa
8000135c: 23 a4 08 98  	sw	zero, -0x678(a7)
80001360: 63 f4 ce 00  	bgeu	t4, a2, 0x80001368 <vx_spawn_threads+0x1b8>
80001364: 13 86 0e 00  	mv	a2, t4
80001368: e3 7e c5 f6  	bgeu	a0, a2, 0x800012e4 <vx_spawn_threads+0x134>
8000136c: b3 78 c8 02  	remu	a7, a6, a2
80001370: 33 58 c8 02  	divu	a6, a6, a2
80001374: 33 36 15 01  	sltu	a2, a0, a7
80001378: 33 08 c8 00  	add	a6, a6, a2
8000137c: 33 53 f8 02  	divu	t1, a6, a5
80001380: 33 74 f8 02  	remu	s0, a6, a5
80001384: b3 87 67 02  	mul	a5, a5, t1
80001388: 63 f8 65 12  	bgeu	a1, t1, 0x800014b8 <vx_spawn_threads+0x308>
8000138c: b3 5e b3 02  	divu	t4, t1, a1
80001390: 33 7e b3 02  	remu	t3, t1, a1
80001394: 13 83 05 00  	mv	t1, a1
80001398: 13 86 08 00  	mv	a2, a7
8000139c: 33 08 a8 02  	mul	a6, a6, a0
800013a0: 63 74 15 01  	bgeu	a0, a7, 0x800013a8 <vx_spawn_threads+0x1f8>
800013a4: 13 06 05 00  	mv	a2, a0
800013a8: 33 08 c8 00  	add	a6, a6, a2
800013ac: b3 87 07 01  	add	a5, a5, a6
800013b0: 23 26 f1 00  	sw	a5, 0xc(sp)
800013b4: 23 20 d1 00  	sw	a3, 0x0(sp)
800013b8: 23 22 e1 00  	sw	a4, 0x4(sp)
800013bc: 23 24 01 01  	sw	a6, 0x8(sp)
800013c0: 23 28 d1 01  	sw	t4, 0x10(sp)
800013c4: 23 2a c1 01  	sw	t3, 0x14(sp)
800013c8: 93 07 01 00  	mv	a5, sp
800013cc: 73 90 07 34  	csrw	mscratch, a5
800013d0: 63 10 03 16  	bnez	t1, 0x80001530 <vx_spawn_threads+0x380>
800013d4: e3 02 04 f0  	beqz	s0, 0x800012d8 <vx_spawn_threads+0x128>
800013d8: 93 07 10 00  	li	a5, 0x1
800013dc: b3 97 87 00  	sll	a5, a5, s0
800013e0: 93 87 f7 ff  	addi	a5, a5, -0x1
800013e4: 0b 80 07 00  	vx_tmc	a5
800013e8: ef f0 9f c2  	jal	0x80001010 <process_remaining_threads>
800013ec: 13 05 10 00  	li	a0, 0x1
800013f0: 0b 00 05 00  	vx_tmc	a0
800013f4: 6f f0 5f ee  	j	0x800012d8 <vx_spawn_threads+0x128>
800013f8: 63 0e 06 14  	beqz	a2, 0x80001554 <vx_spawn_threads+0x3a4>
800013fc: 63 04 05 0c  	beqz	a0, 0x800014c4 <vx_spawn_threads+0x314>
80001400: 83 28 06 00  	lw	a7, 0x0(a2)
80001404: 17 a3 00 00  	auipc	t1, 0xa
80001408: 13 03 c3 94  	addi	t1, t1, -0x6b4
8000140c: 93 05 10 00  	li	a1, 0x1
80001410: 97 a7 00 00  	auipc	a5, 0xa
80001414: 93 87 47 93  	addi	a5, a5, -0x6cc
80001418: 23 20 b3 00  	sw	a1, 0x0(t1)
8000141c: 23 a0 17 01  	sw	a7, 0x0(a5)
80001420: 63 00 b5 18  	beq	a0, a1, 0x800015a0 <vx_spawn_threads+0x3f0>
80001424: 03 28 46 00  	lw	a6, 0x4(a2)
80001428: 13 0e 20 00  	li	t3, 0x2
8000142c: 23 22 b3 00  	sw	a1, 0x4(t1)
80001430: 23 a2 07 01  	sw	a6, 0x4(a5)
80001434: b3 88 08 03  	mul	a7, a7, a6
80001438: 63 08 c5 19  	beq	a0, t3, 0x800015c8 <vx_spawn_threads+0x418>
8000143c: 03 25 86 00  	lw	a0, 0x8(a2)
80001440: b3 88 a8 02  	mul	a7, a7, a0
80001444: 6f 00 c0 0a  	j	0x800014f0 <vx_spawn_threads+0x340>
80001448: 03 a8 05 00  	lw	a6, 0x0(a1)
8000144c: 83 28 06 00  	lw	a7, 0x0(a2)
80001450: 17 a3 00 00  	auipc	t1, 0xa
80001454: 13 03 03 90  	addi	t1, t1, -0x700
80001458: 97 a7 00 00  	auipc	a5, 0xa
8000145c: 93 87 c7 8e  	addi	a5, a5, -0x714
80001460: 23 20 03 01  	sw	a6, 0x0(t1)
80001464: 23 a0 17 01  	sw	a7, 0x0(a5)
80001468: 13 0e 10 00  	li	t3, 0x1
8000146c: e3 00 c5 d9  	beq	a0, t3, 0x800011ec <vx_spawn_threads+0x3c>
80001470: 83 ae 45 00  	lw	t4, 0x4(a1)
80001474: 03 2e 46 00  	lw	t3, 0x4(a2)
80001478: 13 0f 20 00  	li	t5, 0x2
8000147c: 23 22 d3 01  	sw	t4, 0x4(t1)
80001480: 23 a2 c7 01  	sw	t3, 0x4(a5)
80001484: 33 08 d8 03  	mul	a6, a6, t4
80001488: b3 88 c8 03  	mul	a7, a7, t3
8000148c: 63 00 e5 11  	beq	a0, t5, 0x8000158c <vx_spawn_threads+0x3dc>
80001490: 83 a5 85 00  	lw	a1, 0x8(a1)
80001494: 03 25 86 00  	lw	a0, 0x8(a2)
80001498: 33 08 b8 02  	mul	a6, a6, a1
8000149c: b3 88 a8 02  	mul	a7, a7, a0
800014a0: 6f f0 1f d6  	j	0x80001200 <vx_spawn_threads+0x50>
800014a4: b3 0e 66 02  	mul	t4, a2, t1
800014a8: 33 5e d8 03  	divu	t3, a6, t4
800014ac: b3 75 d8 03  	remu	a1, a6, t4
800014b0: 13 88 0e 00  	mv	a6, t4
800014b4: 6f f0 1f dd  	j	0x80001284 <vx_spawn_threads+0xd4>
800014b8: 13 0e 00 00  	li	t3, 0x0
800014bc: 93 0e 10 00  	li	t4, 0x1
800014c0: 6f f0 9f ed  	j	0x80001398 <vx_spawn_threads+0x1e8>
800014c4: 13 06 10 00  	li	a2, 0x1
800014c8: 17 a3 00 00  	auipc	t1, 0xa
800014cc: 13 03 83 88  	addi	t1, t1, -0x778
800014d0: 97 a7 00 00  	auipc	a5, 0xa
800014d4: 93 87 47 87  	addi	a5, a5, -0x78c
800014d8: 23 20 c3 00  	sw	a2, 0x0(t1)
800014dc: 23 a0 c7 00  	sw	a2, 0x0(a5)
800014e0: 23 22 c3 00  	sw	a2, 0x4(t1)
800014e4: 23 a2 c7 00  	sw	a2, 0x4(a5)
800014e8: 93 08 10 00  	li	a7, 0x1
800014ec: 13 05 10 00  	li	a0, 0x1
800014f0: 93 05 10 00  	li	a1, 0x1
800014f4: 13 08 10 00  	li	a6, 0x1
800014f8: 6f f0 9f d0  	j	0x80001200 <vx_spawn_threads+0x50>
800014fc: 13 06 10 00  	li	a2, 0x1
80001500: 17 a3 00 00  	auipc	t1, 0xa
80001504: 13 03 03 85  	addi	t1, t1, -0x7b0
80001508: 97 a7 00 00  	auipc	a5, 0xa
8000150c: 93 87 c7 83  	addi	a5, a5, -0x7c4
80001510: 23 20 c3 00  	sw	a2, 0x0(t1)
80001514: 23 a0 c7 00  	sw	a2, 0x0(a5)
80001518: 13 08 10 00  	li	a6, 0x1
8000151c: 13 06 10 00  	li	a2, 0x1
80001520: 23 22 c3 00  	sw	a2, 0x4(t1)
80001524: 23 a2 c7 00  	sw	a2, 0x4(a5)
80001528: 93 05 10 00  	li	a1, 0x1
8000152c: 6f f0 5f e1  	j	0x80001340 <vx_spawn_threads+0x190>
80001530: 97 07 00 00  	auipc	a5, 0x0
80001534: 93 87 47 af  	addi	a5, a5, -0x50c
80001538: 0b 10 f3 00  	vx_wspawn	t1, a5
8000153c: 93 07 f0 ff  	li	a5, -0x1
80001540: 0b 80 07 00  	vx_tmc	a5
80001544: ef f0 1f 9d  	jal	0x80000f14 <process_threads>
80001548: 13 05 10 00  	li	a0, 0x1
8000154c: 0b 00 05 00  	vx_tmc	a0
80001550: 6f f0 5f e8  	j	0x800013d4 <vx_spawn_threads+0x224>
80001554: 13 06 10 00  	li	a2, 0x1
80001558: 17 93 00 00  	auipc	t1, 0x9
8000155c: 13 03 83 7f  	addi	t1, t1, 0x7f8
80001560: 97 97 00 00  	auipc	a5, 0x9
80001564: 93 87 47 7e  	addi	a5, a5, 0x7e4
80001568: 23 20 c3 00  	sw	a2, 0x0(t1)
8000156c: 23 a0 c7 00  	sw	a2, 0x0(a5)
80001570: 23 22 c3 00  	sw	a2, 0x4(t1)
80001574: 23 a2 c7 00  	sw	a2, 0x4(a5)
80001578: 93 05 10 00  	li	a1, 0x1
8000157c: 13 05 10 00  	li	a0, 0x1
80001580: 13 08 10 00  	li	a6, 0x1
80001584: 93 08 10 00  	li	a7, 0x1
80001588: 6f f0 9f c7  	j	0x80001200 <vx_spawn_threads+0x50>
8000158c: 93 05 10 00  	li	a1, 0x1
80001590: 13 05 10 00  	li	a0, 0x1
80001594: 6f f0 df c6  	j	0x80001200 <vx_spawn_threads+0x50>
80001598: 93 05 10 00  	li	a1, 0x1
8000159c: 6f f0 5f da  	j	0x80001340 <vx_spawn_threads+0x190>
800015a0: 23 22 a3 00  	sw	a0, 0x4(t1)
800015a4: 23 a2 a7 00  	sw	a0, 0x4(a5)
800015a8: 6f f0 9f f4  	j	0x800014f0 <vx_spawn_threads+0x340>
800015ac: 13 06 0e 00  	mv	a2, t3
800015b0: 93 85 08 00  	mv	a1, a7
800015b4: 17 75 00 00  	auipc	a0, 0x7
800015b8: 13 05 45 55  	addi	a0, a0, 0x554
800015bc: ef 00 80 24  	jal	0x80001804 <vx_printf>
800015c0: 13 05 f0 ff  	li	a0, -0x1
800015c4: 6f f0 5f d2  	j	0x800012e8 <vx_spawn_threads+0x138>
800015c8: 13 05 10 00  	li	a0, 0x1
800015cc: 6f f0 5f f2  	j	0x800014f0 <vx_spawn_threads+0x340>

800015d0 <vx_perf_dump>:
800015d0: 73 27 20 cc  	csrr	a4, cid
800015d4: 13 17 87 00  	slli	a4, a4, 0x8
800015d8: 93 07 07 08  	addi	a5, a4, 0x80
800015dc: f3 26 00 b0  	csrr	a3, mcycle
800015e0: 23 20 d7 08  	sw	a3, 0x80(a4)
800015e4: 73 27 00 b8  	csrr	a4, mcycleh
800015e8: 23 a2 e7 00  	sw	a4, 0x4(a5)
800015ec: 73 27 20 b0  	csrr	a4, minstret
800015f0: 23 a8 e7 00  	sw	a4, 0x10(a5)
800015f4: 73 27 20 b8  	csrr	a4, minstreth
800015f8: 23 aa e7 00  	sw	a4, 0x14(a5)
800015fc: 73 27 30 b0  	csrr	a4, mhpmcounter3
80001600: 23 ac e7 00  	sw	a4, 0x18(a5)
80001604: 73 27 30 b8  	csrr	a4, mhpmcounter3h
80001608: 23 ae e7 00  	sw	a4, 0x1c(a5)
8000160c: 73 27 40 b0  	csrr	a4, mhpmcounter4
80001610: 23 a0 e7 02  	sw	a4, 0x20(a5)
80001614: 73 27 40 b8  	csrr	a4, mhpmcounter4h
80001618: 23 a2 e7 02  	sw	a4, 0x24(a5)
8000161c: 73 27 50 b0  	csrr	a4, mhpmcounter5
80001620: 23 a4 e7 02  	sw	a4, 0x28(a5)
80001624: 73 27 50 b8  	csrr	a4, mhpmcounter5h
80001628: 23 a6 e7 02  	sw	a4, 0x2c(a5)
8000162c: 73 27 60 b0  	csrr	a4, mhpmcounter6
80001630: 23 a8 e7 02  	sw	a4, 0x30(a5)
80001634: 73 27 60 b8  	csrr	a4, mhpmcounter6h
80001638: 23 aa e7 02  	sw	a4, 0x34(a5)
8000163c: 73 27 70 b0  	csrr	a4, mhpmcounter7
80001640: 23 ac e7 02  	sw	a4, 0x38(a5)
80001644: 73 27 70 b8  	csrr	a4, mhpmcounter7h
80001648: 23 ae e7 02  	sw	a4, 0x3c(a5)
8000164c: 73 27 80 b0  	csrr	a4, mhpmcounter8
80001650: 23 a0 e7 04  	sw	a4, 0x40(a5)
80001654: 73 27 80 b8  	csrr	a4, mhpmcounter8h
80001658: 23 a2 e7 04  	sw	a4, 0x44(a5)
8000165c: 73 27 90 b0  	csrr	a4, mhpmcounter9
80001660: 23 a4 e7 04  	sw	a4, 0x48(a5)
80001664: 73 27 90 b8  	csrr	a4, mhpmcounter9h
80001668: 23 a6 e7 04  	sw	a4, 0x4c(a5)
8000166c: 73 27 a0 b0  	csrr	a4, mhpmcounter10
80001670: 23 a8 e7 04  	sw	a4, 0x50(a5)
80001674: 73 27 a0 b8  	csrr	a4, mhpmcounter10h
80001678: 23 aa e7 04  	sw	a4, 0x54(a5)
8000167c: 73 27 b0 b0  	csrr	a4, mhpmcounter11
80001680: 23 ac e7 04  	sw	a4, 0x58(a5)
80001684: 73 27 b0 b8  	csrr	a4, mhpmcounter11h
80001688: 23 ae e7 04  	sw	a4, 0x5c(a5)
8000168c: 73 27 c0 b0  	csrr	a4, mhpmcounter12
80001690: 23 a0 e7 06  	sw	a4, 0x60(a5)
80001694: 73 27 c0 b8  	csrr	a4, mhpmcounter12h
80001698: 23 a2 e7 06  	sw	a4, 0x64(a5)
8000169c: 73 27 d0 b0  	csrr	a4, mhpmcounter13
800016a0: 23 a4 e7 06  	sw	a4, 0x68(a5)
800016a4: 73 27 d0 b8  	csrr	a4, mhpmcounter13h
800016a8: 23 a6 e7 06  	sw	a4, 0x6c(a5)
800016ac: 73 27 e0 b0  	csrr	a4, mhpmcounter14
800016b0: 23 a8 e7 06  	sw	a4, 0x70(a5)
800016b4: 73 27 e0 b8  	csrr	a4, mhpmcounter14h
800016b8: 23 aa e7 06  	sw	a4, 0x74(a5)
800016bc: 73 27 f0 b0  	csrr	a4, mhpmcounter15
800016c0: 23 ac e7 06  	sw	a4, 0x78(a5)
800016c4: 73 27 f0 b8  	csrr	a4, mhpmcounter15h
800016c8: 23 ae e7 06  	sw	a4, 0x7c(a5)
800016cc: 73 27 00 b1  	csrr	a4, mhpmcounter16
800016d0: 23 a0 e7 08  	sw	a4, 0x80(a5)
800016d4: 73 27 00 b9  	csrr	a4, mhpmcounter16h
800016d8: 23 a2 e7 08  	sw	a4, 0x84(a5)
800016dc: 73 27 10 b1  	csrr	a4, mhpmcounter17
800016e0: 23 a4 e7 08  	sw	a4, 0x88(a5)
800016e4: 73 27 10 b9  	csrr	a4, mhpmcounter17h
800016e8: 23 a6 e7 08  	sw	a4, 0x8c(a5)
800016ec: 73 27 20 b1  	csrr	a4, mhpmcounter18
800016f0: 23 a8 e7 08  	sw	a4, 0x90(a5)
800016f4: 73 27 20 b9  	csrr	a4, mhpmcounter18h
800016f8: 23 aa e7 08  	sw	a4, 0x94(a5)
800016fc: 73 27 30 b1  	csrr	a4, mhpmcounter19
80001700: 23 ac e7 08  	sw	a4, 0x98(a5)
80001704: 73 27 30 b9  	csrr	a4, mhpmcounter19h
80001708: 23 ae e7 08  	sw	a4, 0x9c(a5)
8000170c: 73 27 40 b1  	csrr	a4, mhpmcounter20
80001710: 23 a0 e7 0a  	sw	a4, 0xa0(a5)
80001714: 73 27 40 b9  	csrr	a4, mhpmcounter20h
80001718: 23 a2 e7 0a  	sw	a4, 0xa4(a5)
8000171c: 73 27 50 b1  	csrr	a4, mhpmcounter21
80001720: 23 a4 e7 0a  	sw	a4, 0xa8(a5)
80001724: 73 27 50 b9  	csrr	a4, mhpmcounter21h
80001728: 23 a6 e7 0a  	sw	a4, 0xac(a5)
8000172c: 73 27 60 b1  	csrr	a4, mhpmcounter22
80001730: 23 a8 e7 0a  	sw	a4, 0xb0(a5)
80001734: 73 27 60 b9  	csrr	a4, mhpmcounter22h
80001738: 23 aa e7 0a  	sw	a4, 0xb4(a5)
8000173c: 73 27 70 b1  	csrr	a4, mhpmcounter23
80001740: 23 ac e7 0a  	sw	a4, 0xb8(a5)
80001744: 73 27 70 b9  	csrr	a4, mhpmcounter23h
80001748: 23 ae e7 0a  	sw	a4, 0xbc(a5)
8000174c: 73 27 80 b1  	csrr	a4, mhpmcounter24
80001750: 23 a0 e7 0c  	sw	a4, 0xc0(a5)
80001754: 73 27 80 b9  	csrr	a4, mhpmcounter24h
80001758: 23 a2 e7 0c  	sw	a4, 0xc4(a5)
8000175c: 73 27 90 b1  	csrr	a4, mhpmcounter25
80001760: 23 a4 e7 0c  	sw	a4, 0xc8(a5)
80001764: 73 27 90 b9  	csrr	a4, mhpmcounter25h
80001768: 23 a6 e7 0c  	sw	a4, 0xcc(a5)
8000176c: 73 27 a0 b1  	csrr	a4, mhpmcounter26
80001770: 23 a8 e7 0c  	sw	a4, 0xd0(a5)
80001774: 73 27 a0 b9  	csrr	a4, mhpmcounter26h
80001778: 23 aa e7 0c  	sw	a4, 0xd4(a5)
8000177c: 73 27 b0 b1  	csrr	a4, mhpmcounter27
80001780: 23 ac e7 0c  	sw	a4, 0xd8(a5)
80001784: 73 27 b0 b9  	csrr	a4, mhpmcounter27h
80001788: 23 ae e7 0c  	sw	a4, 0xdc(a5)
8000178c: 73 27 c0 b1  	csrr	a4, mhpmcounter28
80001790: 23 a0 e7 0e  	sw	a4, 0xe0(a5)
80001794: 73 27 c0 b9  	csrr	a4, mhpmcounter28h
80001798: 23 a2 e7 0e  	sw	a4, 0xe4(a5)
8000179c: 73 27 d0 b1  	csrr	a4, mhpmcounter29
800017a0: 23 a4 e7 0e  	sw	a4, 0xe8(a5)
800017a4: 73 27 d0 b9  	csrr	a4, mhpmcounter29h
800017a8: 23 a6 e7 0e  	sw	a4, 0xec(a5)
800017ac: 73 27 e0 b1  	csrr	a4, mhpmcounter30
800017b0: 23 a8 e7 0e  	sw	a4, 0xf0(a5)
800017b4: 73 27 e0 b9  	csrr	a4, mhpmcounter30h
800017b8: 23 aa e7 0e  	sw	a4, 0xf4(a5)
800017bc: 73 27 f0 b1  	csrr	a4, mhpmcounter31
800017c0: 23 ac e7 0e  	sw	a4, 0xf8(a5)
800017c4: 73 27 f0 b9  	csrr	a4, mhpmcounter31h
800017c8: 23 ae e7 0e  	sw	a4, 0xfc(a5)
800017cc: 67 80 00 00  	ret

800017d0 <__vprintf_cb>:
800017d0: 83 27 45 00  	lw	a5, 0x4(a0)
800017d4: 13 01 01 ff  	addi	sp, sp, -0x10
800017d8: 23 24 81 00  	sw	s0, 0x8(sp)
800017dc: 83 a5 07 00  	lw	a1, 0x0(a5)
800017e0: 13 04 05 00  	mv	s0, a0
800017e4: 03 25 05 00  	lw	a0, 0x0(a0)
800017e8: 23 26 11 00  	sw	ra, 0xc(sp)
800017ec: ef 20 00 03  	jal	0x8000381c <tiny_vprintf>
800017f0: 83 20 c1 00  	lw	ra, 0xc(sp)
800017f4: 23 24 a4 00  	sw	a0, 0x8(s0)
800017f8: 03 24 81 00  	lw	s0, 0x8(sp)
800017fc: 13 01 01 01  	addi	sp, sp, 0x10
80001800: 67 80 00 00  	ret

80001804 <vx_printf>:
80001804: 13 01 01 fb  	addi	sp, sp, -0x50
80001808: 23 22 f1 04  	sw	a5, 0x44(sp)
8000180c: 93 07 41 03  	addi	a5, sp, 0x34
80001810: 13 03 05 00  	mv	t1, a0
80001814: 23 2a b1 02  	sw	a1, 0x34(sp)
80001818: 23 26 f1 00  	sw	a5, 0xc(sp)
8000181c: 23 28 f1 00  	sw	a5, 0x10(sp)
80001820: 17 05 00 00  	auipc	a0, 0x0
80001824: 13 05 05 fb  	addi	a0, a0, -0x50
80001828: 93 07 01 01  	addi	a5, sp, 0x10
8000182c: 93 05 41 01  	addi	a1, sp, 0x14
80001830: 23 26 11 02  	sw	ra, 0x2c(sp)
80001834: 23 2c c1 02  	sw	a2, 0x38(sp)
80001838: 23 2e d1 02  	sw	a3, 0x3c(sp)
8000183c: 23 20 e1 04  	sw	a4, 0x40(sp)
80001840: 23 24 01 05  	sw	a6, 0x48(sp)
80001844: 23 26 11 05  	sw	a7, 0x4c(sp)
80001848: 23 2a 61 00  	sw	t1, 0x14(sp)
8000184c: 23 2c f1 00  	sw	a5, 0x18(sp)
80001850: ef 00 40 01  	jal	0x80001864 <vx_serial>
80001854: 83 20 c1 02  	lw	ra, 0x2c(sp)
80001858: 03 25 c1 01  	lw	a0, 0x1c(sp)
8000185c: 13 01 01 05  	addi	sp, sp, 0x50
80001860: 67 80 00 00  	ret

80001864 <vx_serial>:
80001864: 13 01 41 fe  	addi	sp, sp, -0x1c
80001868: 23 2c 11 00  	sw	ra, 0x18(sp)
8000186c: 23 2a 51 01  	sw	s5, 0x14(sp)
80001870: 23 28 41 01  	sw	s4, 0x10(sp)
80001874: 23 26 31 01  	sw	s3, 0xc(sp)
80001878: 23 24 21 01  	sw	s2, 0x8(sp)
8000187c: 23 22 91 00  	sw	s1, 0x4(sp)
80001880: 23 20 81 00  	sw	s0, 0x0(sp)
80001884: 13 0a 05 00  	mv	s4, a0
80001888: 93 89 05 00  	mv	s3, a1
8000188c: 73 29 00 fc  	csrr	s2, nt
80001890: f3 24 00 cc  	csrr	s1, tid
80001894: 13 04 00 00  	li	s0, 0x0

80001898 <label_loop>:
80001898: b3 02 94 40  	sub	t0, s0, s1
8000189c: 13 b3 12 00  	seqz	t1, t0
800018a0: 8b 2a 03 00  	vx_split	s5, t1
800018a4: 63 96 02 00  	bnez	t0, 0x800018b0 <label_join>
800018a8: 13 85 09 00  	mv	a0, s3
800018ac: e7 00 0a 00  	jalr	s4

800018b0 <label_join>:
800018b0: 0b b0 0a 00  	vx_join	s5
800018b4: 13 04 14 00  	addi	s0, s0, 0x1
800018b8: e3 40 24 ff  	blt	s0, s2, 0x80001898 <label_loop>
800018bc: 83 20 81 01  	lw	ra, 0x18(sp)
800018c0: 83 2a 41 01  	lw	s5, 0x14(sp)
800018c4: 03 2a 01 01  	lw	s4, 0x10(sp)
800018c8: 83 29 c1 00  	lw	s3, 0xc(sp)
800018cc: 03 29 81 00  	lw	s2, 0x8(sp)
800018d0: 83 24 41 00  	lw	s1, 0x4(sp)
800018d4: 03 24 01 00  	lw	s0, 0x0(sp)
800018d8: 13 01 c1 01  	addi	sp, sp, 0x1c
800018dc: 67 80 00 00  	ret

800018e0 <_out_null>:
800018e0: 67 80 00 00  	ret

800018e4 <_out_rev>:
800018e4: 13 01 01 fd  	addi	sp, sp, -0x30
800018e8: 23 22 91 02  	sw	s1, 0x24(sp)
800018ec: 23 20 21 03  	sw	s2, 0x20(sp)
800018f0: 23 2e 31 01  	sw	s3, 0x1c(sp)
800018f4: 23 2c 41 01  	sw	s4, 0x18(sp)
800018f8: 23 2a 51 01  	sw	s5, 0x14(sp)
800018fc: 23 28 61 01  	sw	s6, 0x10(sp)
80001900: 93 0a 06 00  	mv	s5, a2
80001904: 23 24 81 01  	sw	s8, 0x8(sp)
80001908: 23 22 91 01  	sw	s9, 0x4(sp)
8000190c: 23 20 a1 01  	sw	s10, 0x0(sp)
80001910: 23 26 11 02  	sw	ra, 0x2c(sp)
80001914: 23 24 81 02  	sw	s0, 0x28(sp)
80001918: 23 26 71 01  	sw	s7, 0xc(sp)
8000191c: 13 f6 38 00  	andi	a2, a7, 0x3
80001920: 93 8c 08 00  	mv	s9, a7
80001924: 13 09 05 00  	mv	s2, a0
80001928: 93 89 05 00  	mv	s3, a1
8000192c: 13 8a 06 00  	mv	s4, a3
80001930: 13 0b 07 00  	mv	s6, a4
80001934: 13 8d 07 00  	mv	s10, a5
80001938: 13 0c 08 00  	mv	s8, a6
8000193c: 93 84 0a 00  	mv	s1, s5
80001940: 63 18 06 02  	bnez	a2, 0x80001970 <_out_rev+0x8c>
80001944: b3 04 f8 40  	sub	s1, a6, a5
80001948: b3 84 54 01  	add	s1, s1, s5
8000194c: 13 84 0a 00  	mv	s0, s5
80001950: 63 fc 07 0b  	bgeu	a5, a6, 0x80001a08 <_out_rev+0x124>
80001954: 13 06 04 00  	mv	a2, s0
80001958: 93 06 0a 00  	mv	a3, s4
8000195c: 13 04 14 00  	addi	s0, s0, 0x1
80001960: 93 85 09 00  	mv	a1, s3
80001964: 13 05 00 02  	li	a0, 0x20
80001968: e7 00 09 00  	jalr	s2
8000196c: e3 14 94 fe  	bne	s0, s1, 0x80001954 <_out_rev+0x70>
80001970: 33 04 ab 01  	add	s0, s6, s10
80001974: b3 0b 94 00  	add	s7, s0, s1
80001978: 63 02 0d 02  	beqz	s10, 0x8000199c <_out_rev+0xb8>
8000197c: 03 45 f4 ff  	lbu	a0, -0x1(s0)
80001980: 33 86 8b 40  	sub	a2, s7, s0
80001984: 93 06 0a 00  	mv	a3, s4
80001988: 13 04 f4 ff  	addi	s0, s0, -0x1
8000198c: 93 85 09 00  	mv	a1, s3
80001990: e7 00 09 00  	jalr	s2
80001994: e3 14 8b fe  	bne	s6, s0, 0x8000197c <_out_rev+0x98>
80001998: b3 84 a4 01  	add	s1, s1, s10
8000199c: 93 fc 2c 00  	andi	s9, s9, 0x2
800019a0: 63 86 0c 02  	beqz	s9, 0x800019cc <_out_rev+0xe8>
800019a4: b3 8a 54 41  	sub	s5, s1, s5
800019a8: 63 f2 8a 03  	bgeu	s5, s8, 0x800019cc <_out_rev+0xe8>
800019ac: 13 86 04 00  	mv	a2, s1
800019b0: 93 8a 1a 00  	addi	s5, s5, 0x1
800019b4: 93 06 0a 00  	mv	a3, s4
800019b8: 93 85 09 00  	mv	a1, s3
800019bc: 13 05 00 02  	li	a0, 0x20
800019c0: 93 84 14 00  	addi	s1, s1, 0x1
800019c4: e7 00 09 00  	jalr	s2
800019c8: e3 e2 8a ff  	bltu	s5, s8, 0x800019ac <_out_rev+0xc8>
800019cc: 83 20 c1 02  	lw	ra, 0x2c(sp)
800019d0: 03 24 81 02  	lw	s0, 0x28(sp)
800019d4: 03 29 01 02  	lw	s2, 0x20(sp)
800019d8: 83 29 c1 01  	lw	s3, 0x1c(sp)
800019dc: 03 2a 81 01  	lw	s4, 0x18(sp)
800019e0: 83 2a 41 01  	lw	s5, 0x14(sp)
800019e4: 03 2b 01 01  	lw	s6, 0x10(sp)
800019e8: 83 2b c1 00  	lw	s7, 0xc(sp)
800019ec: 03 2c 81 00  	lw	s8, 0x8(sp)
800019f0: 83 2c 41 00  	lw	s9, 0x4(sp)
800019f4: 03 2d 01 00  	lw	s10, 0x0(sp)
800019f8: 13 85 04 00  	mv	a0, s1
800019fc: 83 24 41 02  	lw	s1, 0x24(sp)
80001a00: 13 01 01 03  	addi	sp, sp, 0x30
80001a04: 67 80 00 00  	ret
80001a08: 93 84 0a 00  	mv	s1, s5
80001a0c: 6f f0 5f f6  	j	0x80001970 <_out_rev+0x8c>

80001a10 <_ntoa_format>:
80001a10: 83 23 81 00  	lw	t2, 0x8(sp)
80001a14: 83 22 01 00  	lw	t0, 0x0(sp)
80001a18: 83 2f 41 00  	lw	t6, 0x4(sp)
80001a1c: 13 f3 23 00  	andi	t1, t2, 0x2
80001a20: 13 0f 08 00  	mv	t5, a6
80001a24: 63 14 03 06  	bnez	t1, 0x80001a8c <_ntoa_format+0x7c>
80001a28: 63 94 0f 10  	bnez	t6, 0x80001b30 <_ntoa_format+0x120>
80001a2c: 63 f0 57 06  	bgeu	a5, t0, 0x80001a8c <_ntoa_format+0x7c>
80001a30: 13 03 00 02  	li	t1, 0x20
80001a34: 13 f8 13 00  	andi	a6, t2, 0x1
80001a38: 63 82 67 2c  	beq	a5, t1, 0x80001cfc <_ntoa_format+0x2ec>
80001a3c: 13 0e 00 03  	li	t3, 0x30
80001a40: 93 0e 00 02  	li	t4, 0x20
80001a44: 6f 00 80 00  	j	0x80001a4c <_ntoa_format+0x3c>
80001a48: 63 8a d7 15  	beq	a5, t4, 0x80001b9c <_ntoa_format+0x18c>
80001a4c: 93 87 17 00  	addi	a5, a5, 0x1
80001a50: 33 03 f7 00  	add	t1, a4, a5
80001a54: a3 0f c3 ff  	sb	t3, -0x1(t1)
80001a58: e3 e8 57 fe  	bltu	a5, t0, 0x80001a48 <_ntoa_format+0x38>
80001a5c: 63 08 08 02  	beqz	a6, 0x80001a8c <_ntoa_format+0x7c>
80001a60: 63 f6 f7 03  	bgeu	a5, t6, 0x80001a8c <_ntoa_format+0x7c>
80001a64: 13 08 00 02  	li	a6, 0x20
80001a68: 13 0e 00 03  	li	t3, 0x30
80001a6c: 93 0e 00 02  	li	t4, 0x20
80001a70: 63 96 07 01  	bne	a5, a6, 0x80001a7c <_ntoa_format+0x6c>
80001a74: 6f 00 00 13  	j	0x80001ba4 <_ntoa_format+0x194>
80001a78: 63 82 d7 07  	beq	a5, t4, 0x80001adc <_ntoa_format+0xcc>
80001a7c: 93 87 17 00  	addi	a5, a5, 0x1
80001a80: 33 03 f7 00  	add	t1, a4, a5
80001a84: a3 0f c3 ff  	sb	t3, -0x1(t1)
80001a88: e3 98 f7 ff  	bne	a5, t6, 0x80001a78 <_ntoa_format+0x68>
80001a8c: 13 f8 03 01  	andi	a6, t2, 0x10
80001a90: 63 06 08 08  	beqz	a6, 0x80001b1c <_ntoa_format+0x10c>
80001a94: 13 f8 03 40  	andi	a6, t2, 0x400
80001a98: 63 10 08 0e  	bnez	a6, 0x80001b78 <_ntoa_format+0x168>
80001a9c: 63 9a 07 04  	bnez	a5, 0x80001af0 <_ntoa_format+0xe0>
80001aa0: 93 07 00 01  	li	a5, 0x10
80001aa4: 63 88 f8 20  	beq	a7, a5, 0x80001cb4 <_ntoa_format+0x2a4>
80001aa8: 93 07 20 00  	li	a5, 0x2
80001aac: 63 86 f8 22  	beq	a7, a5, 0x80001cd8 <_ntoa_format+0x2c8>
80001ab0: 93 07 00 03  	li	a5, 0x30
80001ab4: 23 00 f7 00  	sb	a5, 0x0(a4)
80001ab8: 93 07 10 00  	li	a5, 0x1
80001abc: 63 1a 0f 10  	bnez	t5, 0x80001bd0 <_ntoa_format+0x1c0>
80001ac0: 13 f8 43 00  	andi	a6, t2, 0x4
80001ac4: 63 06 08 18  	beqz	a6, 0x80001c50 <_ntoa_format+0x240>
80001ac8: 33 08 f7 00  	add	a6, a4, a5
80001acc: 93 08 b0 02  	li	a7, 0x2b
80001ad0: 23 00 18 01  	sb	a7, 0x0(a6)
80001ad4: 93 87 17 00  	addi	a5, a5, 0x1
80001ad8: 6f 00 c0 04  	j	0x80001b24 <_ntoa_format+0x114>
80001adc: 13 f8 03 01  	andi	a6, t2, 0x10
80001ae0: 93 07 00 02  	li	a5, 0x20
80001ae4: 63 00 08 04  	beqz	a6, 0x80001b24 <_ntoa_format+0x114>
80001ae8: 13 f8 03 40  	andi	a6, t2, 0x400
80001aec: 63 16 08 08  	bnez	a6, 0x80001b78 <_ntoa_format+0x168>
80001af0: 63 84 f2 00  	beq	t0, a5, 0x80001af8 <_ntoa_format+0xe8>
80001af4: 63 92 f7 09  	bne	a5, t6, 0x80001b78 <_ntoa_format+0x168>
80001af8: 13 88 f7 ff  	addi	a6, a5, -0x1
80001afc: 63 06 08 18  	beqz	a6, 0x80001c88 <_ntoa_format+0x278>
80001b00: 13 03 00 01  	li	t1, 0x10
80001b04: 63 84 68 20  	beq	a7, t1, 0x80001d0c <_ntoa_format+0x2fc>
80001b08: 13 03 20 00  	li	t1, 0x2
80001b0c: 63 84 68 10  	beq	a7, t1, 0x80001c14 <_ntoa_format+0x204>
80001b10: 33 08 07 01  	add	a6, a4, a6
80001b14: 93 08 00 03  	li	a7, 0x30
80001b18: 23 00 18 01  	sb	a7, 0x0(a6)
80001b1c: 13 08 00 02  	li	a6, 0x20
80001b20: e3 9e 07 f9  	bne	a5, a6, 0x80001abc <_ntoa_format+0xac>
80001b24: 93 88 03 00  	mv	a7, t2
80001b28: 13 88 0f 00  	mv	a6, t6
80001b2c: 6f f0 9f db  	j	0x800018e4 <_out_rev>
80001b30: 13 f8 13 00  	andi	a6, t2, 0x1
80001b34: 63 0c 08 0a  	beqz	a6, 0x80001bec <_ntoa_format+0x1dc>
80001b38: 63 16 0f 0e  	bnez	t5, 0x80001c24 <_ntoa_format+0x214>
80001b3c: 13 f3 c3 00  	andi	t1, t2, 0xc
80001b40: 63 12 03 0e  	bnez	t1, 0x80001c24 <_ntoa_format+0x214>
80001b44: e3 fe 57 f0  	bgeu	a5, t0, 0x80001a60 <_ntoa_format+0x50>
80001b48: 13 03 00 02  	li	t1, 0x20
80001b4c: e3 98 67 ee  	bne	a5, t1, 0x80001a3c <_ntoa_format+0x2c>
80001b50: 13 f3 03 01  	andi	t1, t2, 0x10
80001b54: 63 e8 f7 05  	bltu	a5, t6, 0x80001ba4 <_ntoa_format+0x194>
80001b58: e3 1e 03 f2  	bnez	t1, 0x80001a94 <_ntoa_format+0x84>
80001b5c: 6f f0 9f fc  	j	0x80001b24 <_ntoa_format+0x114>
80001b60: 13 f8 03 01  	andi	a6, t2, 0x10
80001b64: e3 00 08 fc  	beqz	a6, 0x80001b24 <_ntoa_format+0x114>
80001b68: 13 f8 03 40  	andi	a6, t2, 0x400
80001b6c: e3 1c 08 fa  	bnez	a6, 0x80001b24 <_ntoa_format+0x114>
80001b70: 13 08 00 02  	li	a6, 0x20
80001b74: 63 86 0f 05  	beq	t6, a6, 0x80001bc0 <_ntoa_format+0x1b0>
80001b78: 13 08 00 01  	li	a6, 0x10
80001b7c: 63 88 08 0b  	beq	a7, a6, 0x80001c2c <_ntoa_format+0x21c>
80001b80: 13 08 20 00  	li	a6, 0x2
80001b84: 63 80 08 09  	beq	a7, a6, 0x80001c04 <_ntoa_format+0x1f4>
80001b88: 13 08 00 02  	li	a6, 0x20
80001b8c: e3 8c 07 f9  	beq	a5, a6, 0x80001b24 <_ntoa_format+0x114>
80001b90: 13 88 07 00  	mv	a6, a5
80001b94: 93 87 17 00  	addi	a5, a5, 0x1
80001b98: 6f f0 9f f7  	j	0x80001b10 <_ntoa_format+0x100>
80001b9c: e3 02 08 fc  	beqz	a6, 0x80001b60 <_ntoa_format+0x150>
80001ba0: e3 fe f7 f3  	bgeu	a5, t6, 0x80001adc <_ntoa_format+0xcc>
80001ba4: 13 f8 03 01  	andi	a6, t2, 0x10
80001ba8: 93 07 00 02  	li	a5, 0x20
80001bac: e3 0c 08 f6  	beqz	a6, 0x80001b24 <_ntoa_format+0x114>
80001bb0: 13 f8 03 40  	andi	a6, t2, 0x400
80001bb4: e3 18 08 f6  	bnez	a6, 0x80001b24 <_ntoa_format+0x114>
80001bb8: 63 82 f2 18  	beq	t0, a5, 0x80001d3c <_ntoa_format+0x32c>
80001bbc: e3 9e ff fa  	bne	t6, a5, 0x80001b78 <_ntoa_format+0x168>
80001bc0: 93 0f 00 02  	li	t6, 0x20
80001bc4: 93 07 00 02  	li	a5, 0x20
80001bc8: 13 08 f0 01  	li	a6, 0x1f
80001bcc: 6f f0 5f f3  	j	0x80001b00 <_ntoa_format+0xf0>
80001bd0: 33 08 f7 00  	add	a6, a4, a5
80001bd4: 93 08 d0 02  	li	a7, 0x2d
80001bd8: 23 00 18 01  	sb	a7, 0x0(a6)
80001bdc: 93 87 17 00  	addi	a5, a5, 0x1
80001be0: 93 88 03 00  	mv	a7, t2
80001be4: 13 88 0f 00  	mv	a6, t6
80001be8: 6f f0 df cf  	j	0x800018e4 <_out_rev>
80001bec: e3 f0 57 ea  	bgeu	a5, t0, 0x80001a8c <_ntoa_format+0x7c>
80001bf0: 13 03 00 02  	li	t1, 0x20
80001bf4: e3 94 67 e4  	bne	a5, t1, 0x80001a3c <_ntoa_format+0x2c>
80001bf8: 13 f3 03 01  	andi	t1, t2, 0x10
80001bfc: e3 16 03 ee  	bnez	t1, 0x80001ae8 <_ntoa_format+0xd8>
80001c00: 6f f0 5f f2  	j	0x80001b24 <_ntoa_format+0x114>
80001c04: 13 08 00 02  	li	a6, 0x20
80001c08: e3 8e 07 f1  	beq	a5, a6, 0x80001b24 <_ntoa_format+0x114>
80001c0c: 13 88 07 00  	mv	a6, a5
80001c10: 93 87 17 00  	addi	a5, a5, 0x1
80001c14: 33 08 07 01  	add	a6, a4, a6
80001c18: 93 08 20 06  	li	a7, 0x62
80001c1c: 23 00 18 01  	sb	a7, 0x0(a6)
80001c20: 6f f0 9f f6  	j	0x80001b88 <_ntoa_format+0x178>
80001c24: 93 8f ff ff  	addi	t6, t6, -0x1
80001c28: 6f f0 df f1  	j	0x80001b44 <_ntoa_format+0x134>
80001c2c: 13 f8 03 02  	andi	a6, t2, 0x20
80001c30: 63 1e 08 02  	bnez	a6, 0x80001c6c <_ntoa_format+0x25c>
80001c34: 13 08 00 02  	li	a6, 0x20
80001c38: e3 86 07 ef  	beq	a5, a6, 0x80001b24 <_ntoa_format+0x114>
80001c3c: 33 08 f7 00  	add	a6, a4, a5
80001c40: 93 08 80 07  	li	a7, 0x78
80001c44: 23 00 18 01  	sb	a7, 0x0(a6)
80001c48: 93 87 17 00  	addi	a5, a5, 0x1
80001c4c: 6f f0 df f3  	j	0x80001b88 <_ntoa_format+0x178>
80001c50: 13 f8 83 00  	andi	a6, t2, 0x8
80001c54: e3 08 08 ec  	beqz	a6, 0x80001b24 <_ntoa_format+0x114>
80001c58: 33 08 f7 00  	add	a6, a4, a5
80001c5c: 93 08 00 02  	li	a7, 0x20
80001c60: 23 00 18 01  	sb	a7, 0x0(a6)
80001c64: 93 87 17 00  	addi	a5, a5, 0x1
80001c68: 6f f0 df eb  	j	0x80001b24 <_ntoa_format+0x114>
80001c6c: 13 08 00 02  	li	a6, 0x20
80001c70: e3 8a 07 eb  	beq	a5, a6, 0x80001b24 <_ntoa_format+0x114>
80001c74: 33 08 f7 00  	add	a6, a4, a5
80001c78: 93 08 80 05  	li	a7, 0x58
80001c7c: 23 00 18 01  	sb	a7, 0x0(a6)
80001c80: 93 87 17 00  	addi	a5, a5, 0x1
80001c84: 6f f0 5f f0  	j	0x80001b88 <_ntoa_format+0x178>
80001c88: 93 07 00 01  	li	a5, 0x10
80001c8c: e3 9e f8 e0  	bne	a7, a5, 0x80001aa8 <_ntoa_format+0x98>
80001c90: 93 f7 03 02  	andi	a5, t2, 0x20
80001c94: 63 94 07 02  	bnez	a5, 0x80001cbc <_ntoa_format+0x2ac>
80001c98: 93 07 80 07  	li	a5, 0x78
80001c9c: 23 00 f7 00  	sb	a5, 0x0(a4)
80001ca0: 93 07 00 03  	li	a5, 0x30
80001ca4: a3 00 f7 00  	sb	a5, 0x1(a4)
80001ca8: 93 07 20 00  	li	a5, 0x2
80001cac: e3 0a 0f e0  	beqz	t5, 0x80001ac0 <_ntoa_format+0xb0>
80001cb0: 6f f0 1f f2  	j	0x80001bd0 <_ntoa_format+0x1c0>
80001cb4: 93 f7 03 02  	andi	a5, t2, 0x20
80001cb8: 63 84 07 02  	beqz	a5, 0x80001ce0 <_ntoa_format+0x2d0>
80001cbc: 93 07 80 05  	li	a5, 0x58
80001cc0: 23 00 f7 00  	sb	a5, 0x0(a4)
80001cc4: 93 07 00 03  	li	a5, 0x30
80001cc8: a3 00 f7 00  	sb	a5, 0x1(a4)
80001ccc: 93 07 20 00  	li	a5, 0x2
80001cd0: e3 08 0f de  	beqz	t5, 0x80001ac0 <_ntoa_format+0xb0>
80001cd4: 6f f0 df ef  	j	0x80001bd0 <_ntoa_format+0x1c0>
80001cd8: 93 07 20 06  	li	a5, 0x62
80001cdc: 6f f0 1f fc  	j	0x80001c9c <_ntoa_format+0x28c>
80001ce0: 93 07 80 07  	li	a5, 0x78
80001ce4: 23 00 f7 00  	sb	a5, 0x0(a4)
80001ce8: 93 07 00 03  	li	a5, 0x30
80001cec: a3 00 f7 00  	sb	a5, 0x1(a4)
80001cf0: 93 07 20 00  	li	a5, 0x2
80001cf4: e3 06 0f dc  	beqz	t5, 0x80001ac0 <_ntoa_format+0xb0>
80001cf8: 6f f0 9f ed  	j	0x80001bd0 <_ntoa_format+0x1c0>
80001cfc: 13 f3 03 01  	andi	t1, t2, 0x10
80001d00: e3 0e 08 ee  	beqz	a6, 0x80001bfc <_ntoa_format+0x1ec>
80001d04: e3 18 03 d8  	bnez	t1, 0x80001a94 <_ntoa_format+0x84>
80001d08: 6f f0 df e1  	j	0x80001b24 <_ntoa_format+0x114>
80001d0c: 93 87 e7 ff  	addi	a5, a5, -0x2
80001d10: 93 f8 03 02  	andi	a7, t2, 0x20
80001d14: b3 07 f7 00  	add	a5, a4, a5
80001d18: 63 9a 08 00  	bnez	a7, 0x80001d2c <_ntoa_format+0x31c>
80001d1c: 93 08 80 07  	li	a7, 0x78
80001d20: 23 80 17 01  	sb	a7, 0x0(a5)
80001d24: 93 07 08 00  	mv	a5, a6
80001d28: 6f f0 9f e6  	j	0x80001b90 <_ntoa_format+0x180>
80001d2c: 93 08 80 05  	li	a7, 0x58
80001d30: 23 80 17 01  	sb	a7, 0x0(a5)
80001d34: 93 07 08 00  	mv	a5, a6
80001d38: 6f f0 9f e5  	j	0x80001b90 <_ntoa_format+0x180>
80001d3c: 13 08 f0 01  	li	a6, 0x1f
80001d40: 6f f0 1f dc  	j	0x80001b00 <_ntoa_format+0xf0>

80001d44 <_out_char>:
80001d44: 63 14 05 00  	bnez	a0, 0x80001d4c <_out_char+0x8>
80001d48: 67 80 00 00  	ret
80001d4c: 6f f0 0f 9b  	j	0x80000efc <vx_putchar>

80001d50 <_etoa>:
80001d50: 13 01 01 f7  	addi	sp, sp, -0x90
80001d54: 23 20 21 09  	sw	s2, 0x80(sp)
80001d58: 23 2e 31 07  	sw	s3, 0x7c(sp)
80001d5c: 23 2c 41 07  	sw	s4, 0x78(sp)
80001d60: 23 2a 51 07  	sw	s5, 0x74(sp)
80001d64: 93 09 05 00  	mv	s3, a0
80001d68: 13 8a 05 00  	mv	s4, a1
80001d6c: 13 09 06 00  	mv	s2, a2
80001d70: 93 8a 06 00  	mv	s5, a3
80001d74: 13 06 07 00  	mv	a2, a4
80001d78: 93 86 07 00  	mv	a3, a5
80001d7c: 13 05 07 00  	mv	a0, a4
80001d80: 93 85 07 00  	mv	a1, a5
80001d84: 23 24 81 08  	sw	s0, 0x88(sp)
80001d88: 23 22 91 08  	sw	s1, 0x84(sp)
80001d8c: 23 28 61 07  	sw	s6, 0x70(sp)
80001d90: 23 24 81 07  	sw	s8, 0x68(sp)
80001d94: 23 22 91 07  	sw	s9, 0x64(sp)
80001d98: 23 26 11 08  	sw	ra, 0x8c(sp)
80001d9c: 23 26 71 07  	sw	s7, 0x6c(sp)
80001da0: 23 20 a1 07  	sw	s10, 0x60(sp)
80001da4: 23 2e b1 05  	sw	s11, 0x5c(sp)
80001da8: 13 04 07 00  	mv	s0, a4
80001dac: 93 84 07 00  	mv	s1, a5
80001db0: 13 0c 08 00  	mv	s8, a6
80001db4: 13 8b 08 00  	mv	s6, a7
80001db8: ef 40 d0 22  	jal	0x800067e4 <__nedf2>
80001dbc: 83 2c 01 09  	lw	s9, 0x90(sp)
80001dc0: 63 12 05 58  	bnez	a0, 0x80002344 <_etoa+0x5f4>
80001dc4: 97 97 00 00  	auipc	a5, 0x9
80001dc8: 93 87 47 e8  	addi	a5, a5, -0x17c
80001dcc: 03 a6 07 00  	lw	a2, 0x0(a5)
80001dd0: 83 a6 47 00  	lw	a3, 0x4(a5)
80001dd4: 13 05 04 00  	mv	a0, s0
80001dd8: 93 85 04 00  	mv	a1, s1
80001ddc: ef 40 10 30  	jal	0x800068dc <__gtdf2>
80001de0: 63 42 a0 56  	bgtz	a0, 0x80002344 <_etoa+0x5f4>
80001de4: 97 97 00 00  	auipc	a5, 0x9
80001de8: 93 87 c7 e6  	addi	a5, a5, -0x194
80001dec: 03 a6 07 00  	lw	a2, 0x0(a5)
80001df0: 83 a6 47 00  	lw	a3, 0x4(a5)
80001df4: 13 05 04 00  	mv	a0, s0
80001df8: 93 85 04 00  	mv	a1, s1
80001dfc: ef 40 90 1e  	jal	0x800067e4 <__nedf2>
80001e00: 63 42 05 54  	bltz	a0, 0x80002344 <_etoa+0x5f4>
80001e04: 13 05 04 00  	mv	a0, s0
80001e08: 93 85 04 00  	mv	a1, s1
80001e0c: 13 06 00 00  	li	a2, 0x0
80001e10: 93 06 00 00  	li	a3, 0x0
80001e14: ef 40 10 1d  	jal	0x800067e4 <__nedf2>
80001e18: b7 0b 00 80  	lui	s7, 0x80000
80001e1c: 23 2a 81 00  	sw	s0, 0x14(sp)
80001e20: b3 cb 9b 00  	xor	s7, s7, s1
80001e24: 63 44 05 00  	bltz	a0, 0x80001e2c <_etoa+0xdc>
80001e28: 93 8b 04 00  	mv	s7, s1
80001e2c: 93 f7 0c 40  	andi	a5, s9, 0x400
80001e30: 23 26 f1 02  	sw	a5, 0x2c(sp)
80001e34: 63 94 07 00  	bnez	a5, 0x80001e3c <_etoa+0xec>
80001e38: 13 0c 60 00  	li	s8, 0x6
80001e3c: 13 d5 4b 01  	srli	a0, s7, 0x14
80001e40: 13 75 f5 7f  	andi	a0, a0, 0x7ff
80001e44: 13 05 15 c0  	addi	a0, a0, -0x3ff
80001e48: ef 50 d0 06  	jal	0x800076b4 <__floatsidf>
80001e4c: 97 97 00 00  	auipc	a5, 0x9
80001e50: 93 87 c7 e0  	addi	a5, a5, -0x1f4
80001e54: 03 a6 07 00  	lw	a2, 0x0(a5)
80001e58: 83 a6 47 00  	lw	a3, 0x4(a5)
80001e5c: ef 50 90 24  	jal	0x800078a4 <__muldf3>
80001e60: 97 97 00 00  	auipc	a5, 0x9
80001e64: 93 87 07 e0  	addi	a5, a5, -0x200
80001e68: 03 a6 07 00  	lw	a2, 0x0(a5)
80001e6c: 83 a6 47 00  	lw	a3, 0x4(a5)
80001e70: ef 30 50 63  	jal	0x80005ca4 <__adddf3>
80001e74: 97 97 00 00  	auipc	a5, 0x9
80001e78: 93 87 47 df  	addi	a5, a5, -0x20c
80001e7c: 13 97 cb 00  	slli	a4, s7, 0xc
80001e80: 13 57 c7 00  	srli	a4, a4, 0xc
80001e84: 03 a6 07 00  	lw	a2, 0x0(a5)
80001e88: 83 a6 47 00  	lw	a3, 0x4(a5)
80001e8c: b7 07 f0 3f  	lui	a5, 0x3ff00
80001e90: b3 e7 e7 00  	or	a5, a5, a4
80001e94: 93 0d 05 00  	mv	s11, a0
80001e98: 13 8d 05 00  	mv	s10, a1
80001e9c: 13 05 04 00  	mv	a0, s0
80001ea0: 93 85 07 00  	mv	a1, a5
80001ea4: ef 60 c0 2e  	jal	0x80008190 <__subdf3>
80001ea8: 97 97 00 00  	auipc	a5, 0x9
80001eac: 93 87 87 dc  	addi	a5, a5, -0x238
80001eb0: 03 a6 07 00  	lw	a2, 0x0(a5)
80001eb4: 83 a6 47 00  	lw	a3, 0x4(a5)
80001eb8: ef 50 d0 1e  	jal	0x800078a4 <__muldf3>
80001ebc: 13 06 05 00  	mv	a2, a0
80001ec0: 93 86 05 00  	mv	a3, a1
80001ec4: 13 85 0d 00  	mv	a0, s11
80001ec8: 93 05 0d 00  	mv	a1, s10
80001ecc: ef 30 90 5d  	jal	0x80005ca4 <__adddf3>
80001ed0: ef 50 00 67  	jal	0x80007540 <__fixdfsi>
80001ed4: 13 0d 05 00  	mv	s10, a0
80001ed8: ef 50 c0 7d  	jal	0x800076b4 <__floatsidf>
80001edc: 97 97 00 00  	auipc	a5, 0x9
80001ee0: 93 87 c7 d9  	addi	a5, a5, -0x264
80001ee4: 03 a6 07 00  	lw	a2, 0x0(a5)
80001ee8: 83 a6 47 00  	lw	a3, 0x4(a5)
80001eec: 93 8d 05 00  	mv	s11, a1
80001ef0: 23 28 a1 00  	sw	a0, 0x10(sp)
80001ef4: ef 50 10 1b  	jal	0x800078a4 <__muldf3>
80001ef8: 17 97 00 00  	auipc	a4, 0x9
80001efc: 13 07 87 d8  	addi	a4, a4, -0x278
80001f00: 03 26 07 00  	lw	a2, 0x0(a4)
80001f04: 83 26 47 00  	lw	a3, 0x4(a4)
80001f08: ef 30 d0 59  	jal	0x80005ca4 <__adddf3>
80001f0c: ef 50 40 63  	jal	0x80007540 <__fixdfsi>
80001f10: 83 27 01 01  	lw	a5, 0x10(sp)
80001f14: 97 96 00 00  	auipc	a3, 0x9
80001f18: 93 86 46 d7  	addi	a3, a3, -0x28c
80001f1c: 03 a6 06 00  	lw	a2, 0x0(a3)
80001f20: 83 a6 46 00  	lw	a3, 0x4(a3)
80001f24: 13 07 05 00  	mv	a4, a0
80001f28: 93 85 0d 00  	mv	a1, s11
80001f2c: 13 85 07 00  	mv	a0, a5
80001f30: 93 0d 07 00  	mv	s11, a4
80001f34: ef 50 10 17  	jal	0x800078a4 <__muldf3>
80001f38: 93 07 05 00  	mv	a5, a0
80001f3c: 13 85 0d 00  	mv	a0, s11
80001f40: 23 28 f1 00  	sw	a5, 0x10(sp)
80001f44: 23 2c b1 01  	sw	s11, 0x18(sp)
80001f48: 93 8d 05 00  	mv	s11, a1
80001f4c: ef 50 80 76  	jal	0x800076b4 <__floatsidf>
80001f50: 17 97 00 00  	auipc	a4, 0x9
80001f54: 13 07 07 d4  	addi	a4, a4, -0x2c0
80001f58: 03 26 07 00  	lw	a2, 0x0(a4)
80001f5c: 83 26 47 00  	lw	a3, 0x4(a4)
80001f60: ef 50 50 14  	jal	0x800078a4 <__muldf3>
80001f64: 83 27 01 01  	lw	a5, 0x10(sp)
80001f68: 13 06 05 00  	mv	a2, a0
80001f6c: 93 86 05 00  	mv	a3, a1
80001f70: 13 85 07 00  	mv	a0, a5
80001f74: 93 85 0d 00  	mv	a1, s11
80001f78: ef 60 80 21  	jal	0x80008190 <__subdf3>
80001f7c: 13 06 05 00  	mv	a2, a0
80001f80: 93 86 05 00  	mv	a3, a1
80001f84: 23 2e a1 00  	sw	a0, 0x1c(sp)
80001f88: 23 28 b1 00  	sw	a1, 0x10(sp)
80001f8c: ef 50 90 11  	jal	0x800078a4 <__muldf3>
80001f90: 83 27 01 01  	lw	a5, 0x10(sp)
80001f94: 03 27 c1 01  	lw	a4, 0x1c(sp)
80001f98: 93 0d 05 00  	mv	s11, a0
80001f9c: 93 86 07 00  	mv	a3, a5
80001fa0: 13 88 05 00  	mv	a6, a1
80001fa4: 13 06 07 00  	mv	a2, a4
80001fa8: 93 85 07 00  	mv	a1, a5
80001fac: 13 05 07 00  	mv	a0, a4
80001fb0: 23 22 f1 02  	sw	a5, 0x24(sp)
80001fb4: 23 24 e1 02  	sw	a4, 0x28(sp)
80001fb8: 23 28 01 01  	sw	a6, 0x10(sp)
80001fbc: ef 30 90 4e  	jal	0x80005ca4 <__adddf3>
80001fc0: 97 96 00 00  	auipc	a3, 0x9
80001fc4: 93 86 86 cd  	addi	a3, a3, -0x328
80001fc8: 13 88 05 00  	mv	a6, a1
80001fcc: 03 a6 06 00  	lw	a2, 0x0(a3)
80001fd0: 83 25 01 01  	lw	a1, 0x10(sp)
80001fd4: 83 a6 46 00  	lw	a3, 0x4(a3)
80001fd8: 93 08 05 00  	mv	a7, a0
80001fdc: 13 85 0d 00  	mv	a0, s11
80001fe0: 23 20 11 03  	sw	a7, 0x20(sp)
80001fe4: 23 2e 01 01  	sw	a6, 0x1c(sp)
80001fe8: ef 40 d0 1e  	jal	0x800069d4 <__divdf3>
80001fec: 17 97 00 00  	auipc	a4, 0x9
80001ff0: 13 07 47 cb  	addi	a4, a4, -0x34c
80001ff4: 03 26 07 00  	lw	a2, 0x0(a4)
80001ff8: 83 26 47 00  	lw	a3, 0x4(a4)
80001ffc: ef 30 90 4a  	jal	0x80005ca4 <__adddf3>
80002000: 93 86 05 00  	mv	a3, a1
80002004: 83 25 01 01  	lw	a1, 0x10(sp)
80002008: 13 06 05 00  	mv	a2, a0
8000200c: 13 85 0d 00  	mv	a0, s11
80002010: ef 40 50 1c  	jal	0x800069d4 <__divdf3>
80002014: 97 96 00 00  	auipc	a3, 0x9
80002018: 93 86 46 c9  	addi	a3, a3, -0x36c
8000201c: 03 a6 06 00  	lw	a2, 0x0(a3)
80002020: 83 a6 46 00  	lw	a3, 0x4(a3)
80002024: ef 30 10 48  	jal	0x80005ca4 <__adddf3>
80002028: 93 86 05 00  	mv	a3, a1
8000202c: 83 25 01 01  	lw	a1, 0x10(sp)
80002030: 13 06 05 00  	mv	a2, a0
80002034: 13 85 0d 00  	mv	a0, s11
80002038: ef 40 d0 19  	jal	0x800069d4 <__divdf3>
8000203c: 03 27 81 02  	lw	a4, 0x28(sp)
80002040: 83 27 41 02  	lw	a5, 0x24(sp)
80002044: 97 96 00 00  	auipc	a3, 0x9
80002048: 93 86 c6 c6  	addi	a3, a3, -0x394
8000204c: 13 03 05 00  	mv	t1, a0
80002050: 93 8d 05 00  	mv	s11, a1
80002054: 03 a5 06 00  	lw	a0, 0x0(a3)
80002058: 83 a5 46 00  	lw	a1, 0x4(a3)
8000205c: 13 06 07 00  	mv	a2, a4
80002060: 93 86 07 00  	mv	a3, a5
80002064: 23 28 61 00  	sw	t1, 0x10(sp)
80002068: ef 60 80 12  	jal	0x80008190 <__subdf3>
8000206c: 03 23 01 01  	lw	t1, 0x10(sp)
80002070: 13 06 05 00  	mv	a2, a0
80002074: 93 86 05 00  	mv	a3, a1
80002078: 13 05 03 00  	mv	a0, t1
8000207c: 93 85 0d 00  	mv	a1, s11
80002080: ef 30 50 42  	jal	0x80005ca4 <__adddf3>
80002084: 83 28 01 02  	lw	a7, 0x20(sp)
80002088: 03 28 c1 01  	lw	a6, 0x1c(sp)
8000208c: 13 06 05 00  	mv	a2, a0
80002090: 93 86 05 00  	mv	a3, a1
80002094: 13 85 08 00  	mv	a0, a7
80002098: 93 05 08 00  	mv	a1, a6
8000209c: ef 40 90 13  	jal	0x800069d4 <__divdf3>
800020a0: 97 97 00 00  	auipc	a5, 0x9
800020a4: 93 87 87 c1  	addi	a5, a5, -0x3e8
800020a8: 03 a6 07 00  	lw	a2, 0x0(a5)
800020ac: 83 a6 47 00  	lw	a3, 0x4(a5)
800020b0: ef 30 50 3f  	jal	0x80005ca4 <__adddf3>
800020b4: 83 27 81 01  	lw	a5, 0x18(sp)
800020b8: 13 06 00 00  	li	a2, 0x0
800020bc: 93 87 f7 3f  	addi	a5, a5, 0x3ff
800020c0: 93 97 47 01  	slli	a5, a5, 0x14
800020c4: 93 86 07 00  	mv	a3, a5
800020c8: ef 50 c0 7d  	jal	0x800078a4 <__muldf3>
800020cc: 13 06 05 00  	mv	a2, a0
800020d0: 23 2c a1 00  	sw	a0, 0x18(sp)
800020d4: 93 86 05 00  	mv	a3, a1
800020d8: 23 28 b1 00  	sw	a1, 0x10(sp)
800020dc: 13 05 04 00  	mv	a0, s0
800020e0: 93 85 0b 00  	mv	a1, s7
800020e4: ef 40 00 70  	jal	0x800067e4 <__nedf2>
800020e8: 83 27 01 01  	lw	a5, 0x10(sp)
800020ec: 03 27 81 01  	lw	a4, 0x18(sp)
800020f0: 63 56 05 02  	bgez	a0, 0x8000211c <_etoa+0x3cc>
800020f4: 97 96 00 00  	auipc	a3, 0x9
800020f8: 93 86 c6 ba  	addi	a3, a3, -0x454
800020fc: 03 a6 06 00  	lw	a2, 0x0(a3)
80002100: 83 a6 46 00  	lw	a3, 0x4(a3)
80002104: 13 05 07 00  	mv	a0, a4
80002108: 93 85 07 00  	mv	a1, a5
8000210c: ef 40 90 0c  	jal	0x800069d4 <__divdf3>
80002110: 13 0d fd ff  	addi	s10, s10, -0x1
80002114: 13 07 05 00  	mv	a4, a0
80002118: 93 87 05 00  	mv	a5, a1
8000211c: 93 0d 3d 06  	addi	s11, s10, 0x63
80002120: 93 d6 bc 00  	srli	a3, s9, 0xb
80002124: 13 06 60 0c  	li	a2, 0xc6
80002128: b3 3d b6 01  	sltu	s11, a2, s11
8000212c: 93 f6 16 00  	andi	a3, a3, 0x1
80002130: 93 8d 4d 00  	addi	s11, s11, 0x4
80002134: 63 8a 06 06  	beqz	a3, 0x800021a8 <_etoa+0x458>
80002138: 97 96 00 00  	auipc	a3, 0x9
8000213c: 93 86 86 b8  	addi	a3, a3, -0x478
80002140: 03 a6 06 00  	lw	a2, 0x0(a3)
80002144: 83 a6 46 00  	lw	a3, 0x4(a3)
80002148: 13 05 04 00  	mv	a0, s0
8000214c: 93 85 0b 00  	mv	a1, s7
80002150: 23 2c f1 00  	sw	a5, 0x18(sp)
80002154: 23 28 e1 00  	sw	a4, 0x10(sp)
80002158: ef 40 40 78  	jal	0x800068dc <__gtdf2>
8000215c: 03 27 01 01  	lw	a4, 0x10(sp)
80002160: 83 27 81 01  	lw	a5, 0x18(sp)
80002164: 63 44 05 26  	bltz	a0, 0x800023cc <_etoa+0x67c>
80002168: 97 96 00 00  	auipc	a3, 0x9
8000216c: 93 86 06 b6  	addi	a3, a3, -0x4a0
80002170: 03 a6 06 00  	lw	a2, 0x0(a3)
80002174: 83 a6 46 00  	lw	a3, 0x4(a3)
80002178: 13 05 04 00  	mv	a0, s0
8000217c: 93 85 0b 00  	mv	a1, s7
80002180: ef 40 40 66  	jal	0x800067e4 <__nedf2>
80002184: 03 27 01 01  	lw	a4, 0x10(sp)
80002188: 83 27 81 01  	lw	a5, 0x18(sp)
8000218c: 63 50 05 24  	bgez	a0, 0x800023cc <_etoa+0x67c>
80002190: 63 58 8d 25  	bge	s10, s8, 0x800023e0 <_etoa+0x690>
80002194: 33 0d ac 41  	sub	s10, s8, s10
80002198: 13 0c fd ff  	addi	s8, s10, -0x1
8000219c: 93 ec 0c 40  	ori	s9, s9, 0x400
800021a0: 93 0d 00 00  	li	s11, 0x0
800021a4: 13 0d 00 00  	li	s10, 0x0
800021a8: 93 08 00 00  	li	a7, 0x0
800021ac: 63 f4 6d 01  	bgeu	s11, s6, 0x800021b4 <_etoa+0x464>
800021b0: b3 08 bb 41  	sub	a7, s6, s11
800021b4: 93 f6 2c 00  	andi	a3, s9, 0x2
800021b8: 23 2c d1 00  	sw	a3, 0x18(sp)
800021bc: 63 88 06 00  	beqz	a3, 0x800021cc <_etoa+0x47c>
800021c0: 93 b6 1d 00  	seqz	a3, s11
800021c4: b3 06 d0 40  	neg	a3, a3
800021c8: b3 f8 d8 00  	and	a7, a7, a3
800021cc: 63 1c 0d 1c  	bnez	s10, 0x800023a4 <_etoa+0x654>
800021d0: 13 05 04 00  	mv	a0, s0
800021d4: 93 85 04 00  	mv	a1, s1
800021d8: 13 06 00 00  	li	a2, 0x0
800021dc: 93 06 00 00  	li	a3, 0x0
800021e0: 23 28 11 01  	sw	a7, 0x10(sp)
800021e4: ef 40 00 60  	jal	0x800067e4 <__nedf2>
800021e8: 83 28 01 01  	lw	a7, 0x10(sp)
800021ec: 63 56 05 00  	bgez	a0, 0x800021f8 <_etoa+0x4a8>
800021f0: b7 07 00 80  	lui	a5, 0x80000
800021f4: b3 cb 77 01  	xor	s7, a5, s7
800021f8: 83 27 41 01  	lw	a5, 0x14(sp)
800021fc: 13 08 0c 00  	mv	a6, s8
80002200: 93 86 0a 00  	mv	a3, s5
80002204: 13 86 07 00  	mv	a2, a5
80002208: b7 f7 ff ff  	lui	a5, 0xfffff
8000220c: 93 87 f7 7f  	addi	a5, a5, 0x7ff
80002210: b3 f7 fc 00  	and	a5, s9, a5
80002214: 23 20 f1 00  	sw	a5, 0x0(sp)
80002218: 13 07 06 00  	mv	a4, a2
8000221c: 93 87 0b 00  	mv	a5, s7
80002220: 13 06 09 00  	mv	a2, s2
80002224: 93 05 0a 00  	mv	a1, s4
80002228: 13 85 09 00  	mv	a0, s3
8000222c: ef 00 c0 1b  	jal	0x800023e8 <_ftoa>
80002230: 13 04 05 00  	mv	s0, a0
80002234: 63 88 0d 0c  	beqz	s11, 0x80002304 <_etoa+0x5b4>
80002238: 13 c5 fc ff  	not	a0, s9
8000223c: 13 75 05 02  	andi	a0, a0, 0x20
80002240: 13 06 04 00  	mv	a2, s0
80002244: 93 05 0a 00  	mv	a1, s4
80002248: 93 86 0a 00  	mv	a3, s5
8000224c: 13 05 55 04  	addi	a0, a0, 0x45
80002250: e7 80 09 00  	jalr	s3
80002254: 93 57 fd 41  	srai	a5, s10, 0x1f
80002258: 33 c7 a7 01  	xor	a4, a5, s10
8000225c: 33 07 f7 40  	sub	a4, a4, a5
80002260: 13 06 14 00  	addi	a2, s0, 0x1
80002264: 13 58 fd 01  	srli	a6, s10, 0x1f
80002268: 93 8d fd ff  	addi	s11, s11, -0x1
8000226c: 93 07 00 00  	li	a5, 0x0
80002270: 93 05 a0 00  	li	a1, 0xa
80002274: 13 03 90 00  	li	t1, 0x9
80002278: 13 0e 00 02  	li	t3, 0x20
8000227c: 6f 00 80 00  	j	0x80002284 <_etoa+0x534>
80002280: 63 84 c7 03  	beq	a5, t3, 0x800022a8 <_etoa+0x558>
80002284: b3 76 b7 02  	remu	a3, a4, a1
80002288: 13 05 01 03  	addi	a0, sp, 0x30
8000228c: 93 87 17 00  	addi	a5, a5, 0x1
80002290: b3 08 f5 00  	add	a7, a0, a5
80002294: 13 05 07 00  	mv	a0, a4
80002298: 93 86 06 03  	addi	a3, a3, 0x30
8000229c: a3 8f d8 fe  	sb	a3, -0x1(a7)
800022a0: 33 57 b7 02  	divu	a4, a4, a1
800022a4: e3 6e a3 fc  	bltu	t1, a0, 0x80002280 <_etoa+0x530>
800022a8: 13 07 50 00  	li	a4, 0x5
800022ac: 23 24 e1 00  	sw	a4, 0x8(sp)
800022b0: 23 22 b1 01  	sw	s11, 0x4(sp)
800022b4: 23 20 01 00  	sw	zero, 0x0(sp)
800022b8: 93 08 a0 00  	li	a7, 0xa
800022bc: 13 07 01 03  	addi	a4, sp, 0x30
800022c0: 93 86 0a 00  	mv	a3, s5
800022c4: 93 05 0a 00  	mv	a1, s4
800022c8: 13 85 09 00  	mv	a0, s3
800022cc: ef f0 4f f4  	jal	0x80001a10 <_ntoa_format>
800022d0: 83 27 81 01  	lw	a5, 0x18(sp)
800022d4: 13 04 05 00  	mv	s0, a0
800022d8: 63 86 07 02  	beqz	a5, 0x80002304 <_etoa+0x5b4>
800022dc: 33 09 25 41  	sub	s2, a0, s2
800022e0: 63 72 69 03  	bgeu	s2, s6, 0x80002304 <_etoa+0x5b4>
800022e4: 13 06 04 00  	mv	a2, s0
800022e8: 13 09 19 00  	addi	s2, s2, 0x1
800022ec: 93 86 0a 00  	mv	a3, s5
800022f0: 93 05 0a 00  	mv	a1, s4
800022f4: 13 05 00 02  	li	a0, 0x20
800022f8: 13 04 14 00  	addi	s0, s0, 0x1
800022fc: e7 80 09 00  	jalr	s3
80002300: e3 62 69 ff  	bltu	s2, s6, 0x800022e4 <_etoa+0x594>
80002304: 83 20 c1 08  	lw	ra, 0x8c(sp)
80002308: 13 05 04 00  	mv	a0, s0
8000230c: 03 24 81 08  	lw	s0, 0x88(sp)
80002310: 83 24 41 08  	lw	s1, 0x84(sp)
80002314: 03 29 01 08  	lw	s2, 0x80(sp)
80002318: 83 29 c1 07  	lw	s3, 0x7c(sp)
8000231c: 03 2a 81 07  	lw	s4, 0x78(sp)
80002320: 83 2a 41 07  	lw	s5, 0x74(sp)
80002324: 03 2b 01 07  	lw	s6, 0x70(sp)
80002328: 83 2b c1 06  	lw	s7, 0x6c(sp)
8000232c: 03 2c 81 06  	lw	s8, 0x68(sp)
80002330: 83 2c 41 06  	lw	s9, 0x64(sp)
80002334: 03 2d 01 06  	lw	s10, 0x60(sp)
80002338: 83 2d c1 05  	lw	s11, 0x5c(sp)
8000233c: 13 01 01 09  	addi	sp, sp, 0x90
80002340: 67 80 00 00  	ret
80002344: 13 07 04 00  	mv	a4, s0
80002348: 03 24 81 08  	lw	s0, 0x88(sp)
8000234c: 23 28 91 09  	sw	s9, 0x90(sp)
80002350: 83 20 c1 08  	lw	ra, 0x8c(sp)
80002354: 83 2b c1 06  	lw	s7, 0x6c(sp)
80002358: 83 2c 41 06  	lw	s9, 0x64(sp)
8000235c: 03 2d 01 06  	lw	s10, 0x60(sp)
80002360: 83 2d c1 05  	lw	s11, 0x5c(sp)
80002364: 93 87 04 00  	mv	a5, s1
80002368: 93 08 0b 00  	mv	a7, s6
8000236c: 83 24 41 08  	lw	s1, 0x84(sp)
80002370: 03 2b 01 07  	lw	s6, 0x70(sp)
80002374: 13 08 0c 00  	mv	a6, s8
80002378: 93 86 0a 00  	mv	a3, s5
8000237c: 03 2c 81 06  	lw	s8, 0x68(sp)
80002380: 83 2a 41 07  	lw	s5, 0x74(sp)
80002384: 13 06 09 00  	mv	a2, s2
80002388: 93 05 0a 00  	mv	a1, s4
8000238c: 03 29 01 08  	lw	s2, 0x80(sp)
80002390: 03 2a 81 07  	lw	s4, 0x78(sp)
80002394: 13 85 09 00  	mv	a0, s3
80002398: 83 29 c1 07  	lw	s3, 0x7c(sp)
8000239c: 13 01 01 09  	addi	sp, sp, 0x90
800023a0: 6f 00 80 04  	j	0x800023e8 <_ftoa>
800023a4: 93 85 0b 00  	mv	a1, s7
800023a8: 13 06 07 00  	mv	a2, a4
800023ac: 13 05 04 00  	mv	a0, s0
800023b0: 93 86 07 00  	mv	a3, a5
800023b4: 23 28 11 01  	sw	a7, 0x10(sp)
800023b8: ef 40 c0 61  	jal	0x800069d4 <__divdf3>
800023bc: 83 28 01 01  	lw	a7, 0x10(sp)
800023c0: 23 2a a1 00  	sw	a0, 0x14(sp)
800023c4: 93 8b 05 00  	mv	s7, a1
800023c8: 6f f0 9f e0  	j	0x800021d0 <_etoa+0x480>
800023cc: e3 0e 0c dc  	beqz	s8, 0x800021a8 <_etoa+0x458>
800023d0: 83 26 c1 02  	lw	a3, 0x2c(sp)
800023d4: b3 36 d0 00  	snez	a3, a3
800023d8: 33 0c dc 40  	sub	s8, s8, a3
800023dc: 6f f0 df dc  	j	0x800021a8 <_etoa+0x458>
800023e0: 13 0c 00 00  	li	s8, 0x0
800023e4: 6f f0 9f db  	j	0x8000219c <_etoa+0x44c>

800023e8 <_ftoa>:
800023e8: 13 01 01 f8  	addi	sp, sp, -0x80
800023ec: 23 26 31 07  	sw	s3, 0x6c(sp)
800023f0: 23 2c 81 05  	sw	s8, 0x58(sp)
800023f4: 23 2a 91 05  	sw	s9, 0x54(sp)
800023f8: 23 28 a1 05  	sw	s10, 0x50(sp)
800023fc: 93 09 05 00  	mv	s3, a0
80002400: 13 8c 05 00  	mv	s8, a1
80002404: 93 0c 06 00  	mv	s9, a2
80002408: 13 8d 06 00  	mv	s10, a3
8000240c: 13 06 07 00  	mv	a2, a4
80002410: 93 86 07 00  	mv	a3, a5
80002414: 13 05 07 00  	mv	a0, a4
80002418: 93 85 07 00  	mv	a1, a5
8000241c: 23 2c 81 06  	sw	s0, 0x78(sp)
80002420: 23 2a 91 06  	sw	s1, 0x74(sp)
80002424: 23 28 21 07  	sw	s2, 0x70(sp)
80002428: 23 20 61 07  	sw	s6, 0x60(sp)
8000242c: 23 26 b1 05  	sw	s11, 0x4c(sp)
80002430: 23 2e 11 06  	sw	ra, 0x7c(sp)
80002434: 23 24 41 07  	sw	s4, 0x68(sp)
80002438: 23 22 51 07  	sw	s5, 0x64(sp)
8000243c: 23 2e 71 05  	sw	s7, 0x5c(sp)
80002440: 93 04 07 00  	mv	s1, a4
80002444: 13 84 07 00  	mv	s0, a5
80002448: 13 0b 08 00  	mv	s6, a6
8000244c: 13 89 08 00  	mv	s2, a7
80002450: ef 40 40 39  	jal	0x800067e4 <__nedf2>
80002454: 83 2d 01 08  	lw	s11, 0x80(sp)
80002458: 63 14 05 20  	bnez	a0, 0x80002660 <_ftoa+0x278>
8000245c: 97 87 00 00  	auipc	a5, 0x8
80002460: 93 87 47 7f  	addi	a5, a5, 0x7f4
80002464: 03 a6 07 00  	lw	a2, 0x0(a5)
80002468: 83 a6 47 00  	lw	a3, 0x4(a5)
8000246c: 13 85 04 00  	mv	a0, s1
80002470: 93 05 04 00  	mv	a1, s0
80002474: ef 40 00 37  	jal	0x800067e4 <__nedf2>
80002478: 63 40 05 2e  	bltz	a0, 0x80002758 <_ftoa+0x370>
8000247c: 97 87 00 00  	auipc	a5, 0x8
80002480: 93 87 c7 7c  	addi	a5, a5, 0x7cc
80002484: 03 a6 07 00  	lw	a2, 0x0(a5)
80002488: 83 a6 47 00  	lw	a3, 0x4(a5)
8000248c: 13 85 04 00  	mv	a0, s1
80002490: 93 05 04 00  	mv	a1, s0
80002494: ef 40 80 44  	jal	0x800068dc <__gtdf2>
80002498: 63 44 a0 1a  	bgtz	a0, 0x80002640 <_ftoa+0x258>
8000249c: 17 9a 00 00  	auipc	s4, 0x9
800024a0: 13 0a 4a 83  	addi	s4, s4, -0x7cc
800024a4: 03 26 0a 00  	lw	a2, 0x0(s4)
800024a8: 83 26 4a 00  	lw	a3, 0x4(s4)
800024ac: 13 85 04 00  	mv	a0, s1
800024b0: 93 05 04 00  	mv	a1, s0
800024b4: ef 40 80 42  	jal	0x800068dc <__gtdf2>
800024b8: 63 40 a0 24  	bgtz	a0, 0x800026f8 <_ftoa+0x310>
800024bc: 97 97 00 00  	auipc	a5, 0x9
800024c0: 93 87 c7 81  	addi	a5, a5, -0x7e4
800024c4: 03 a6 07 00  	lw	a2, 0x0(a5)
800024c8: 83 a6 47 00  	lw	a3, 0x4(a5)
800024cc: 13 85 04 00  	mv	a0, s1
800024d0: 93 05 04 00  	mv	a1, s0
800024d4: ef 40 00 31  	jal	0x800067e4 <__nedf2>
800024d8: 63 40 05 22  	bltz	a0, 0x800026f8 <_ftoa+0x310>
800024dc: 13 85 04 00  	mv	a0, s1
800024e0: 93 05 04 00  	mv	a1, s0
800024e4: 13 06 00 00  	li	a2, 0x0
800024e8: 93 06 00 00  	li	a3, 0x0
800024ec: ef 40 80 2f  	jal	0x800067e4 <__nedf2>
800024f0: 63 40 05 1e  	bltz	a0, 0x800026d0 <_ftoa+0x2e8>
800024f4: 23 2c 01 00  	sw	zero, 0x18(sp)
800024f8: 93 fa 0d 40  	andi	s5, s11, 0x400
800024fc: 63 8c 0a 40  	beqz	s5, 0x80002914 <_ftoa+0x52c>
80002500: 93 07 90 00  	li	a5, 0x9
80002504: 63 f6 67 51  	bgeu	a5, s6, 0x80002a10 <_ftoa+0x628>
80002508: 93 0a 7b ff  	addi	s5, s6, -0x9
8000250c: 93 06 00 00  	li	a3, 0x0
80002510: 93 0b 01 02  	addi	s7, sp, 0x20
80002514: 13 05 00 03  	li	a0, 0x30
80002518: 93 05 00 02  	li	a1, 0x20
8000251c: 93 86 16 00  	addi	a3, a3, 0x1
80002520: 33 86 db 00  	add	a2, s7, a3
80002524: a3 0f a6 fe  	sb	a0, -0x1(a2)
80002528: 33 03 db 40  	sub	t1, s6, a3
8000252c: 63 80 b6 44  	beq	a3, a1, 0x8000296c <_ftoa+0x584>
80002530: e3 96 56 ff  	bne	a3, s5, 0x8000251c <_ftoa+0x134>
80002534: 83 27 0a 00  	lw	a5, 0x0(s4)
80002538: 03 28 4a 00  	lw	a6, 0x4(s4)
8000253c: 23 20 f1 00  	sw	a5, 0x0(sp)
80002540: 23 22 01 01  	sw	a6, 0x4(sp)
80002544: 93 05 04 00  	mv	a1, s0
80002548: 13 85 04 00  	mv	a0, s1
8000254c: 23 2a 61 00  	sw	t1, 0x14(sp)
80002550: ef 40 10 7f  	jal	0x80007540 <__fixdfsi>
80002554: 13 0a 05 00  	mv	s4, a0
80002558: ef 50 c0 15  	jal	0x800076b4 <__floatsidf>
8000255c: 13 06 05 00  	mv	a2, a0
80002560: 93 86 05 00  	mv	a3, a1
80002564: 13 85 04 00  	mv	a0, s1
80002568: 93 05 04 00  	mv	a1, s0
8000256c: ef 50 50 42  	jal	0x80008190 <__subdf3>
80002570: 03 26 01 00  	lw	a2, 0x0(sp)
80002574: 83 26 41 00  	lw	a3, 0x4(sp)
80002578: ef 50 c0 32  	jal	0x800078a4 <__muldf3>
8000257c: 13 8b 05 00  	mv	s6, a1
80002580: 23 28 a1 00  	sw	a0, 0x10(sp)
80002584: ef 50 00 09  	jal	0x80007614 <__fixunsdfsi>
80002588: 23 26 a1 00  	sw	a0, 0xc(sp)
8000258c: ef 50 c0 22  	jal	0x800077b8 <__floatunsidf>
80002590: 83 27 01 01  	lw	a5, 0x10(sp)
80002594: 13 06 05 00  	mv	a2, a0
80002598: 93 86 05 00  	mv	a3, a1
8000259c: 13 85 07 00  	mv	a0, a5
800025a0: 93 05 0b 00  	mv	a1, s6
800025a4: ef 50 d0 3e  	jal	0x80008190 <__subdf3>
800025a8: 17 8b 00 00  	auipc	s6, 0x8
800025ac: 13 0b 8b 6d  	addi	s6, s6, 0x6d8
800025b0: 03 26 0b 00  	lw	a2, 0x0(s6)
800025b4: 83 26 4b 00  	lw	a3, 0x4(s6)
800025b8: 23 28 a1 00  	sw	a0, 0x10(sp)
800025bc: 23 2e b1 00  	sw	a1, 0x1c(sp)
800025c0: ef 40 c0 31  	jal	0x800068dc <__gtdf2>
800025c4: 83 28 c1 00  	lw	a7, 0xc(sp)
800025c8: 03 23 41 01  	lw	t1, 0x14(sp)
800025cc: 63 56 a0 30  	blez	a0, 0x800028d8 <_ftoa+0x4f0>
800025d0: 93 88 18 00  	addi	a7, a7, 0x1
800025d4: 13 85 08 00  	mv	a0, a7
800025d8: 23 28 61 00  	sw	t1, 0x10(sp)
800025dc: 23 26 11 01  	sw	a7, 0xc(sp)
800025e0: ef 50 80 1d  	jal	0x800077b8 <__floatunsidf>
800025e4: 03 26 01 00  	lw	a2, 0x0(sp)
800025e8: 83 26 41 00  	lw	a3, 0x4(sp)
800025ec: ef 40 00 2f  	jal	0x800068dc <__gtdf2>
800025f0: 83 28 c1 00  	lw	a7, 0xc(sp)
800025f4: 03 23 01 01  	lw	t1, 0x10(sp)
800025f8: 63 46 05 00  	bltz	a0, 0x80002604 <_ftoa+0x21c>
800025fc: 13 0a 1a 00  	addi	s4, s4, 0x1
80002600: 93 08 00 00  	li	a7, 0x0
80002604: 63 06 03 16  	beqz	t1, 0x80002770 <_ftoa+0x388>
80002608: 13 05 00 02  	li	a0, 0x20
8000260c: 13 06 a0 00  	li	a2, 0xa
80002610: 13 0e 90 00  	li	t3, 0x9
80002614: 63 88 aa 34  	beq	s5, a0, 0x80002964 <_ftoa+0x57c>
80002618: b3 f6 c8 02  	remu	a3, a7, a2
8000261c: 93 8a 1a 00  	addi	s5, s5, 0x1
80002620: b3 85 5b 01  	add	a1, s7, s5
80002624: 13 03 f3 ff  	addi	t1, t1, -0x1
80002628: 93 86 06 03  	addi	a3, a3, 0x30
8000262c: a3 8f d5 fe  	sb	a3, -0x1(a1)
80002630: b3 d6 c8 02  	divu	a3, a7, a2
80002634: 63 72 1e 31  	bgeu	t3, a7, 0x80002938 <_ftoa+0x550>
80002638: 93 88 06 00  	mv	a7, a3
8000263c: 6f f0 9f fd  	j	0x80002614 <_ftoa+0x22c>
80002640: 93 f7 4d 00  	andi	a5, s11, 0x4
80002644: 63 9e 07 06  	bnez	a5, 0x800026c0 <_ftoa+0x2d8>
80002648: 17 67 00 00  	auipc	a4, 0x6
8000264c: 13 07 87 4f  	addi	a4, a4, 0x4f8
80002650: 93 07 30 00  	li	a5, 0x3
80002654: 93 88 0d 00  	mv	a7, s11
80002658: 13 08 09 00  	mv	a6, s2
8000265c: 6f 00 80 01  	j	0x80002674 <_ftoa+0x28c>
80002660: 93 88 0d 00  	mv	a7, s11
80002664: 13 08 09 00  	mv	a6, s2
80002668: 93 07 30 00  	li	a5, 0x3
8000266c: 17 67 00 00  	auipc	a4, 0x6
80002670: 13 07 87 4d  	addi	a4, a4, 0x4d8
80002674: 03 24 81 07  	lw	s0, 0x78(sp)
80002678: 83 20 c1 07  	lw	ra, 0x7c(sp)
8000267c: 83 24 41 07  	lw	s1, 0x74(sp)
80002680: 03 29 01 07  	lw	s2, 0x70(sp)
80002684: 03 2a 81 06  	lw	s4, 0x68(sp)
80002688: 83 2a 41 06  	lw	s5, 0x64(sp)
8000268c: 03 2b 01 06  	lw	s6, 0x60(sp)
80002690: 83 2b c1 05  	lw	s7, 0x5c(sp)
80002694: 83 2d c1 04  	lw	s11, 0x4c(sp)
80002698: 93 06 0d 00  	mv	a3, s10
8000269c: 13 86 0c 00  	mv	a2, s9
800026a0: 03 2d 01 05  	lw	s10, 0x50(sp)
800026a4: 83 2c 41 05  	lw	s9, 0x54(sp)
800026a8: 93 05 0c 00  	mv	a1, s8
800026ac: 13 85 09 00  	mv	a0, s3
800026b0: 03 2c 81 05  	lw	s8, 0x58(sp)
800026b4: 83 29 c1 06  	lw	s3, 0x6c(sp)
800026b8: 13 01 01 08  	addi	sp, sp, 0x80
800026bc: 6f f0 8f a2  	j	0x800018e4 <_out_rev>
800026c0: 17 67 00 00  	auipc	a4, 0x6
800026c4: 13 07 87 47  	addi	a4, a4, 0x478
800026c8: 93 07 40 00  	li	a5, 0x4
800026cc: 6f f0 9f f8  	j	0x80002654 <_ftoa+0x26c>
800026d0: 13 86 04 00  	mv	a2, s1
800026d4: 93 06 04 00  	mv	a3, s0
800026d8: 13 05 00 00  	li	a0, 0x0
800026dc: 93 05 00 00  	li	a1, 0x0
800026e0: ef 50 10 2b  	jal	0x80008190 <__subdf3>
800026e4: 93 07 10 00  	li	a5, 0x1
800026e8: 93 04 05 00  	mv	s1, a0
800026ec: 13 84 05 00  	mv	s0, a1
800026f0: 23 2c f1 00  	sw	a5, 0x18(sp)
800026f4: 6f f0 5f e0  	j	0x800024f8 <_ftoa+0x110>
800026f8: 93 07 04 00  	mv	a5, s0
800026fc: 03 24 81 07  	lw	s0, 0x78(sp)
80002700: 23 20 b1 09  	sw	s11, 0x80(sp)
80002704: 83 20 c1 07  	lw	ra, 0x7c(sp)
80002708: 03 2a 81 06  	lw	s4, 0x68(sp)
8000270c: 83 2a 41 06  	lw	s5, 0x64(sp)
80002710: 83 2b c1 05  	lw	s7, 0x5c(sp)
80002714: 83 2d c1 04  	lw	s11, 0x4c(sp)
80002718: 13 87 04 00  	mv	a4, s1
8000271c: 93 08 09 00  	mv	a7, s2
80002720: 83 24 41 07  	lw	s1, 0x74(sp)
80002724: 03 29 01 07  	lw	s2, 0x70(sp)
80002728: 13 08 0b 00  	mv	a6, s6
8000272c: 93 06 0d 00  	mv	a3, s10
80002730: 03 2b 01 06  	lw	s6, 0x60(sp)
80002734: 03 2d 01 05  	lw	s10, 0x50(sp)
80002738: 13 86 0c 00  	mv	a2, s9
8000273c: 93 05 0c 00  	mv	a1, s8
80002740: 83 2c 41 05  	lw	s9, 0x54(sp)
80002744: 03 2c 81 05  	lw	s8, 0x58(sp)
80002748: 13 85 09 00  	mv	a0, s3
8000274c: 83 29 c1 06  	lw	s3, 0x6c(sp)
80002750: 13 01 01 08  	addi	sp, sp, 0x80
80002754: 6f f0 cf df  	j	0x80001d50 <_etoa>
80002758: 93 88 0d 00  	mv	a7, s11
8000275c: 13 08 09 00  	mv	a6, s2
80002760: 93 07 40 00  	li	a5, 0x4
80002764: 17 67 00 00  	auipc	a4, 0x6
80002768: 13 07 47 3e  	addi	a4, a4, 0x3e4
8000276c: 6f f0 9f f0  	j	0x80002674 <_ftoa+0x28c>
80002770: 13 05 0a 00  	mv	a0, s4
80002774: ef 40 10 74  	jal	0x800076b4 <__floatsidf>
80002778: 13 06 05 00  	mv	a2, a0
8000277c: 93 86 05 00  	mv	a3, a1
80002780: 13 85 04 00  	mv	a0, s1
80002784: 93 05 04 00  	mv	a1, s0
80002788: ef 50 90 20  	jal	0x80008190 <__subdf3>
8000278c: 03 24 0b 00  	lw	s0, 0x0(s6)
80002790: 83 24 4b 00  	lw	s1, 0x4(s6)
80002794: 23 20 a1 00  	sw	a0, 0x0(sp)
80002798: 13 06 04 00  	mv	a2, s0
8000279c: 93 86 04 00  	mv	a3, s1
800027a0: 13 8b 05 00  	mv	s6, a1
800027a4: ef 40 00 04  	jal	0x800067e4 <__nedf2>
800027a8: 63 5e 05 00  	bgez	a0, 0x800027c4 <_ftoa+0x3dc>
800027ac: 03 25 01 00  	lw	a0, 0x0(sp)
800027b0: 93 05 0b 00  	mv	a1, s6
800027b4: 13 06 04 00  	mv	a2, s0
800027b8: 93 86 04 00  	mv	a3, s1
800027bc: ef 40 00 12  	jal	0x800068dc <__gtdf2>
800027c0: 63 56 a0 00  	blez	a0, 0x800027cc <_ftoa+0x3e4>
800027c4: 93 76 1a 00  	andi	a3, s4, 0x1
800027c8: 33 0a da 00  	add	s4, s4, a3
800027cc: 13 05 00 02  	li	a0, 0x20
800027d0: 13 06 a0 00  	li	a2, 0xa
800027d4: 63 8a aa 0a  	beq	s5, a0, 0x80002888 <_ftoa+0x4a0>
800027d8: b3 66 ca 02  	rem	a3, s4, a2
800027dc: 93 8a 1a 00  	addi	s5, s5, 0x1
800027e0: b3 85 5b 01  	add	a1, s7, s5
800027e4: 33 4a ca 02  	div	s4, s4, a2
800027e8: 93 86 06 03  	addi	a3, a3, 0x30
800027ec: a3 8f d5 fe  	sb	a3, -0x1(a1)
800027f0: e3 12 0a fe  	bnez	s4, 0x800027d4 <_ftoa+0x3ec>
800027f4: 93 f6 3d 00  	andi	a3, s11, 0x3
800027f8: 13 06 10 00  	li	a2, 0x1
800027fc: 63 82 c6 24  	beq	a3, a2, 0x80002a40 <_ftoa+0x658>
80002800: 93 06 00 02  	li	a3, 0x20
80002804: 63 82 da 02  	beq	s5, a3, 0x80002828 <_ftoa+0x440>
80002808: 83 27 81 01  	lw	a5, 0x18(sp)
8000280c: 63 80 07 18  	beqz	a5, 0x8000298c <_ftoa+0x5a4>
80002810: 93 87 0a 02  	addi	a5, s5, 0x20
80002814: 13 07 01 02  	addi	a4, sp, 0x20
80002818: b3 86 e7 00  	add	a3, a5, a4
8000281c: 13 06 d0 02  	li	a2, 0x2d
80002820: 23 80 c6 fe  	sb	a2, -0x20(a3)
80002824: 93 8a 1a 00  	addi	s5, s5, 0x1
80002828: 93 88 0d 00  	mv	a7, s11
8000282c: 13 08 09 00  	mv	a6, s2
80002830: 93 87 0a 00  	mv	a5, s5
80002834: 13 87 0b 00  	mv	a4, s7
80002838: 93 06 0d 00  	mv	a3, s10
8000283c: 13 86 0c 00  	mv	a2, s9
80002840: 93 05 0c 00  	mv	a1, s8
80002844: 13 85 09 00  	mv	a0, s3
80002848: ef f0 cf 89  	jal	0x800018e4 <_out_rev>
8000284c: 83 20 c1 07  	lw	ra, 0x7c(sp)
80002850: 03 24 81 07  	lw	s0, 0x78(sp)
80002854: 83 24 41 07  	lw	s1, 0x74(sp)
80002858: 03 29 01 07  	lw	s2, 0x70(sp)
8000285c: 83 29 c1 06  	lw	s3, 0x6c(sp)
80002860: 03 2a 81 06  	lw	s4, 0x68(sp)
80002864: 83 2a 41 06  	lw	s5, 0x64(sp)
80002868: 03 2b 01 06  	lw	s6, 0x60(sp)
8000286c: 83 2b c1 05  	lw	s7, 0x5c(sp)
80002870: 03 2c 81 05  	lw	s8, 0x58(sp)
80002874: 83 2c 41 05  	lw	s9, 0x54(sp)
80002878: 03 2d 01 05  	lw	s10, 0x50(sp)
8000287c: 83 2d c1 04  	lw	s11, 0x4c(sp)
80002880: 13 01 01 08  	addi	sp, sp, 0x80
80002884: 67 80 00 00  	ret
80002888: 93 f6 3d 00  	andi	a3, s11, 0x3
8000288c: 13 06 10 00  	li	a2, 0x1
80002890: e3 9c c6 f8  	bne	a3, a2, 0x80002828 <_ftoa+0x440>
80002894: e3 0a 09 f8  	beqz	s2, 0x80002828 <_ftoa+0x440>
80002898: 83 27 81 01  	lw	a5, 0x18(sp)
8000289c: 63 94 07 16  	bnez	a5, 0x80002a04 <_ftoa+0x61c>
800028a0: 93 f6 cd 00  	andi	a3, s11, 0xc
800028a4: 63 90 06 16  	bnez	a3, 0x80002a04 <_ftoa+0x61c>
800028a8: 63 fe 2a 0d  	bgeu	s5, s2, 0x80002984 <_ftoa+0x59c>
800028ac: 93 06 00 02  	li	a3, 0x20
800028b0: 13 06 00 03  	li	a2, 0x30
800028b4: 93 05 00 02  	li	a1, 0x20
800028b8: 63 8c da 00  	beq	s5, a3, 0x800028d0 <_ftoa+0x4e8>
800028bc: 93 8a 1a 00  	addi	s5, s5, 0x1
800028c0: b3 86 5b 01  	add	a3, s7, s5
800028c4: a3 8f c6 fe  	sb	a2, -0x1(a3)
800028c8: e3 8c 2a f3  	beq	s5, s2, 0x80002800 <_ftoa+0x418>
800028cc: e3 98 ba fe  	bne	s5, a1, 0x800028bc <_ftoa+0x4d4>
800028d0: 93 0a 00 02  	li	s5, 0x20
800028d4: 6f f0 5f f5  	j	0x80002828 <_ftoa+0x440>
800028d8: 97 87 00 00  	auipc	a5, 0x8
800028dc: 93 87 87 3a  	addi	a5, a5, 0x3a8
800028e0: 03 25 01 01  	lw	a0, 0x10(sp)
800028e4: 83 25 c1 01  	lw	a1, 0x1c(sp)
800028e8: 03 a6 07 00  	lw	a2, 0x0(a5)
800028ec: 83 a6 47 00  	lw	a3, 0x4(a5)
800028f0: 23 26 11 01  	sw	a7, 0xc(sp)
800028f4: 23 20 61 00  	sw	t1, 0x0(sp)
800028f8: ef 30 d0 6e  	jal	0x800067e4 <__nedf2>
800028fc: 03 23 01 00  	lw	t1, 0x0(sp)
80002900: 83 28 c1 00  	lw	a7, 0xc(sp)
80002904: e3 40 05 d0  	bltz	a0, 0x80002604 <_ftoa+0x21c>
80002908: 63 96 08 0e  	bnez	a7, 0x800029f4 <_ftoa+0x60c>
8000290c: 93 88 18 00  	addi	a7, a7, 0x1
80002910: 6f f0 5f cf  	j	0x80002604 <_ftoa+0x21c>
80002914: 17 87 00 00  	auipc	a4, 0x8
80002918: 13 07 47 3b  	addi	a4, a4, 0x3b4
8000291c: 83 27 07 00  	lw	a5, 0x0(a4)
80002920: 03 28 47 00  	lw	a6, 0x4(a4)
80002924: 13 03 60 00  	li	t1, 0x6
80002928: 23 20 f1 00  	sw	a5, 0x0(sp)
8000292c: 23 22 01 01  	sw	a6, 0x4(sp)
80002930: 93 0b 01 02  	addi	s7, sp, 0x20
80002934: 6f f0 1f c1  	j	0x80002544 <_ftoa+0x15c>
80002938: 63 86 aa 02  	beq	s5, a0, 0x80002964 <_ftoa+0x57c>
8000293c: 33 06 53 01  	add	a2, t1, s5
80002940: 13 05 00 03  	li	a0, 0x30
80002944: 93 05 00 02  	li	a1, 0x20
80002948: 63 16 03 00  	bnez	t1, 0x80002954 <_ftoa+0x56c>
8000294c: 6f 00 c0 06  	j	0x800029b8 <_ftoa+0x5d0>
80002950: 63 86 ca 06  	beq	s5, a2, 0x800029bc <_ftoa+0x5d4>
80002954: 93 8a 1a 00  	addi	s5, s5, 0x1
80002958: b3 86 5b 01  	add	a3, s7, s5
8000295c: a3 8f a6 fe  	sb	a0, -0x1(a3)
80002960: e3 98 ba fe  	bne	s5, a1, 0x80002950 <_ftoa+0x568>
80002964: 93 0a 00 02  	li	s5, 0x20
80002968: 6f f0 5f e6  	j	0x800027cc <_ftoa+0x3e4>
8000296c: 83 27 0a 00  	lw	a5, 0x0(s4)
80002970: 03 28 4a 00  	lw	a6, 0x4(s4)
80002974: 93 0a 00 02  	li	s5, 0x20
80002978: 23 20 f1 00  	sw	a5, 0x0(sp)
8000297c: 23 22 01 01  	sw	a6, 0x4(sp)
80002980: 6f f0 5f bc  	j	0x80002544 <_ftoa+0x15c>
80002984: 93 06 00 02  	li	a3, 0x20
80002988: e3 80 da ea  	beq	s5, a3, 0x80002828 <_ftoa+0x440>
8000298c: 93 f6 4d 00  	andi	a3, s11, 0x4
80002990: 63 94 06 04  	bnez	a3, 0x800029d8 <_ftoa+0x5f0>
80002994: 93 f6 8d 00  	andi	a3, s11, 0x8
80002998: e3 88 06 e8  	beqz	a3, 0x80002828 <_ftoa+0x440>
8000299c: 93 87 0a 02  	addi	a5, s5, 0x20
800029a0: 13 07 01 02  	addi	a4, sp, 0x20
800029a4: b3 86 e7 00  	add	a3, a5, a4
800029a8: 13 06 00 02  	li	a2, 0x20
800029ac: 23 80 c6 fe  	sb	a2, -0x20(a3)
800029b0: 93 8a 1a 00  	addi	s5, s5, 0x1
800029b4: 6f f0 5f e7  	j	0x80002828 <_ftoa+0x440>
800029b8: 13 86 0a 00  	mv	a2, s5
800029bc: 93 07 06 02  	addi	a5, a2, 0x20
800029c0: 13 07 01 02  	addi	a4, sp, 0x20
800029c4: b3 86 e7 00  	add	a3, a5, a4
800029c8: 93 0a 16 00  	addi	s5, a2, 0x1
800029cc: 13 06 e0 02  	li	a2, 0x2e
800029d0: 23 80 c6 fe  	sb	a2, -0x20(a3)
800029d4: 6f f0 9f df  	j	0x800027cc <_ftoa+0x3e4>
800029d8: 93 87 0a 02  	addi	a5, s5, 0x20
800029dc: 13 07 01 02  	addi	a4, sp, 0x20
800029e0: b3 86 e7 00  	add	a3, a5, a4
800029e4: 13 06 b0 02  	li	a2, 0x2b
800029e8: 23 80 c6 fe  	sb	a2, -0x20(a3)
800029ec: 93 8a 1a 00  	addi	s5, s5, 0x1
800029f0: 6f f0 9f e3  	j	0x80002828 <_ftoa+0x440>
800029f4: 93 f6 18 00  	andi	a3, a7, 0x1
800029f8: e3 86 06 c0  	beqz	a3, 0x80002604 <_ftoa+0x21c>
800029fc: 93 88 18 00  	addi	a7, a7, 0x1
80002a00: 6f f0 5f c0  	j	0x80002604 <_ftoa+0x21c>
80002a04: 13 09 f9 ff  	addi	s2, s2, -0x1
80002a08: e3 e2 2a eb  	bltu	s5, s2, 0x800028ac <_ftoa+0x4c4>
80002a0c: 6f f0 5f df  	j	0x80002800 <_ftoa+0x418>
80002a10: 13 17 3b 00  	slli	a4, s6, 0x3
80002a14: 97 67 00 00  	auipc	a5, 0x6
80002a18: 93 87 c7 2d  	addi	a5, a5, 0x2dc
80002a1c: b3 87 e7 00  	add	a5, a5, a4
80002a20: 03 a8 47 00  	lw	a6, 0x4(a5)
80002a24: 83 a7 07 00  	lw	a5, 0x0(a5)
80002a28: 13 03 0b 00  	mv	t1, s6
80002a2c: 23 22 01 01  	sw	a6, 0x4(sp)
80002a30: 23 20 f1 00  	sw	a5, 0x0(sp)
80002a34: 93 0a 00 00  	li	s5, 0x0
80002a38: 93 0b 01 02  	addi	s7, sp, 0x20
80002a3c: 6f f0 9f b0  	j	0x80002544 <_ftoa+0x15c>
80002a40: e3 00 09 dc  	beqz	s2, 0x80002800 <_ftoa+0x418>
80002a44: 6f f0 5f e5  	j	0x80002898 <_ftoa+0x4b0>

80002a48 <_vsnprintf>:
80002a48: 13 01 01 f7  	addi	sp, sp, -0x90
80002a4c: 23 20 21 09  	sw	s2, 0x80(sp)
80002a50: 23 28 61 07  	sw	s6, 0x70(sp)
80002a54: 23 26 71 07  	sw	s7, 0x6c(sp)
80002a58: 23 22 91 07  	sw	s9, 0x64(sp)
80002a5c: 23 2e b1 05  	sw	s11, 0x5c(sp)
80002a60: 23 26 11 08  	sw	ra, 0x8c(sp)
80002a64: 23 24 81 08  	sw	s0, 0x88(sp)
80002a68: 23 22 91 08  	sw	s1, 0x84(sp)
80002a6c: 23 2e 31 07  	sw	s3, 0x7c(sp)
80002a70: 23 2c 41 07  	sw	s4, 0x78(sp)
80002a74: 23 2a 51 07  	sw	s5, 0x74(sp)
80002a78: 23 24 81 07  	sw	s8, 0x68(sp)
80002a7c: 23 20 a1 07  	sw	s10, 0x60(sp)
80002a80: 13 8b 05 00  	mv	s6, a1
80002a84: 93 0d 06 00  	mv	s11, a2
80002a88: 13 89 06 00  	mv	s2, a3
80002a8c: 93 0c 07 00  	mv	s9, a4
80002a90: 97 fb ff ff  	auipc	s7, 0xfffff
80002a94: 93 8b 0b e5  	addi	s7, s7, -0x1b0
80002a98: 63 84 05 00  	beqz	a1, 0x80002aa0 <_vsnprintf+0x58>
80002a9c: 93 0b 05 00  	mv	s7, a0
80002aa0: 03 45 09 00  	lbu	a0, 0x0(s2)
80002aa4: 13 04 00 00  	li	s0, 0x0
80002aa8: 63 04 05 78  	beqz	a0, 0x80003230 <_vsnprintf+0x7e8>
80002aac: b7 97 00 00  	lui	a5, 0x9
80002ab0: 93 87 17 04  	addi	a5, a5, 0x41
80002ab4: 93 0a 50 02  	li	s5, 0x25
80002ab8: 13 0a 00 01  	li	s4, 0x10
80002abc: 97 69 00 00  	auipc	s3, 0x6
80002ac0: 93 89 49 09  	addi	s3, s3, 0x94
80002ac4: 23 2a f1 00  	sw	a5, 0x14(sp)
80002ac8: 6f 00 00 02  	j	0x80002ae8 <_vsnprintf+0xa0>
80002acc: 13 06 04 00  	mv	a2, s0
80002ad0: 93 86 0d 00  	mv	a3, s11
80002ad4: 93 05 0b 00  	mv	a1, s6
80002ad8: 13 04 14 00  	addi	s0, s0, 0x1
80002adc: e7 80 0b 00  	jalr	s7
80002ae0: 03 45 09 00  	lbu	a0, 0x0(s2)
80002ae4: 63 0a 05 1c  	beqz	a0, 0x80002cb8 <_vsnprintf+0x270>
80002ae8: 13 09 19 00  	addi	s2, s2, 0x1
80002aec: e3 10 55 ff  	bne	a0, s5, 0x80002acc <_vsnprintf+0x84>
80002af0: 93 06 00 00  	li	a3, 0x0
80002af4: 03 45 09 00  	lbu	a0, 0x0(s2)
80002af8: 13 07 19 00  	addi	a4, s2, 0x1
80002afc: 93 07 05 fe  	addi	a5, a0, -0x20
80002b00: 93 f7 f7 0f  	andi	a5, a5, 0xff
80002b04: 63 6c fa 00  	bltu	s4, a5, 0x80002b1c <_vsnprintf+0xd4>
80002b08: 93 97 27 00  	slli	a5, a5, 0x2
80002b0c: b3 87 37 01  	add	a5, a5, s3
80002b10: 83 a7 07 00  	lw	a5, 0x0(a5)
80002b14: b3 87 37 01  	add	a5, a5, s3
80002b18: 67 80 07 00  	jr	a5
80002b1c: 93 07 05 fd  	addi	a5, a0, -0x30
80002b20: 93 f7 f7 0f  	andi	a5, a5, 0xff
80002b24: 13 06 90 00  	li	a2, 0x9
80002b28: 63 78 f6 1e  	bgeu	a2, a5, 0x80002d18 <_vsnprintf+0x2d0>
80002b2c: 93 07 a0 02  	li	a5, 0x2a
80002b30: 93 08 00 00  	li	a7, 0x0
80002b34: 63 02 f5 26  	beq	a0, a5, 0x80002d98 <_vsnprintf+0x350>
80002b38: 93 07 e0 02  	li	a5, 0x2e
80002b3c: 13 08 00 00  	li	a6, 0x0
80002b40: 63 04 f5 22  	beq	a0, a5, 0x80002d68 <_vsnprintf+0x320>
80002b44: 93 07 85 f9  	addi	a5, a0, -0x68
80002b48: 93 f7 f7 0f  	andi	a5, a5, 0xff
80002b4c: 13 06 20 01  	li	a2, 0x12
80002b50: 63 64 f6 06  	bltu	a2, a5, 0x80002bb8 <_vsnprintf+0x170>
80002b54: 17 66 00 00  	auipc	a2, 0x6
80002b58: 13 06 06 04  	addi	a2, a2, 0x40
80002b5c: 93 97 27 00  	slli	a5, a5, 0x2
80002b60: b3 87 c7 00  	add	a5, a5, a2
80002b64: 83 a7 07 00  	lw	a5, 0x0(a5)
80002b68: b3 87 c7 00  	add	a5, a5, a2
80002b6c: 67 80 07 00  	jr	a5
80002b70: 93 e6 16 00  	ori	a3, a3, 0x1
80002b74: 13 09 07 00  	mv	s2, a4
80002b78: 6f f0 df f7  	j	0x80002af4 <_vsnprintf+0xac>
80002b7c: 93 e6 26 00  	ori	a3, a3, 0x2
80002b80: 13 09 07 00  	mv	s2, a4
80002b84: 6f f0 1f f7  	j	0x80002af4 <_vsnprintf+0xac>
80002b88: 93 e6 46 00  	ori	a3, a3, 0x4
80002b8c: 13 09 07 00  	mv	s2, a4
80002b90: 6f f0 5f f6  	j	0x80002af4 <_vsnprintf+0xac>
80002b94: 93 e6 06 01  	ori	a3, a3, 0x10
80002b98: 13 09 07 00  	mv	s2, a4
80002b9c: 6f f0 9f f5  	j	0x80002af4 <_vsnprintf+0xac>
80002ba0: 93 e6 86 00  	ori	a3, a3, 0x8
80002ba4: 13 09 07 00  	mv	s2, a4
80002ba8: 6f f0 df f4  	j	0x80002af4 <_vsnprintf+0xac>
80002bac: 03 45 19 00  	lbu	a0, 0x1(s2)
80002bb0: 93 e6 06 10  	ori	a3, a3, 0x100
80002bb4: 13 07 17 00  	addi	a4, a4, 0x1
80002bb8: 93 07 70 06  	li	a5, 0x67
80002bbc: 13 09 07 00  	mv	s2, a4
80002bc0: 63 ec a7 02  	bltu	a5, a0, 0x80002bf8 <_vsnprintf+0x1b0>
80002bc4: 93 07 40 02  	li	a5, 0x24
80002bc8: e3 f2 a7 f0  	bgeu	a5, a0, 0x80002acc <_vsnprintf+0x84>
80002bcc: 93 07 b5 fd  	addi	a5, a0, -0x25
80002bd0: 93 f7 f7 0f  	andi	a5, a5, 0xff
80002bd4: 13 07 20 04  	li	a4, 0x42
80002bd8: e3 6a f7 ee  	bltu	a4, a5, 0x80002acc <_vsnprintf+0x84>
80002bdc: 17 67 00 00  	auipc	a4, 0x6
80002be0: 13 07 47 00  	addi	a4, a4, 0x4
80002be4: 93 97 27 00  	slli	a5, a5, 0x2
80002be8: b3 87 e7 00  	add	a5, a5, a4
80002bec: 83 a7 07 00  	lw	a5, 0x0(a5)
80002bf0: b3 87 e7 00  	add	a5, a5, a4
80002bf4: 67 80 07 00  	jr	a5
80002bf8: 93 07 75 f9  	addi	a5, a0, -0x69
80002bfc: 93 f7 f7 0f  	andi	a5, a5, 0xff
80002c00: 13 07 f0 00  	li	a4, 0xf
80002c04: e3 64 f7 ec  	bltu	a4, a5, 0x80002acc <_vsnprintf+0x84>
80002c08: 03 27 41 01  	lw	a4, 0x14(sp)
80002c0c: 93 04 10 00  	li	s1, 0x1
80002c10: b3 94 f4 00  	sll	s1, s1, a5
80002c14: b3 f4 e4 00  	and	s1, s1, a4
80002c18: 63 96 04 58  	bnez	s1, 0x800031a4 <_vsnprintf+0x75c>
80002c1c: 13 07 a0 00  	li	a4, 0xa
80002c20: 63 88 e7 2e  	beq	a5, a4, 0x80002f10 <_vsnprintf+0x4c8>
80002c24: 13 07 70 00  	li	a4, 0x7
80002c28: e3 92 e7 ea  	bne	a5, a4, 0x80002acc <_vsnprintf+0x84>
80002c2c: 83 a7 0c 00  	lw	a5, 0x0(s9)
80002c30: 93 e5 16 02  	ori	a1, a3, 0x21
80002c34: 93 8c 4c 00  	addi	s9, s9, 0x4
80002c38: 63 82 07 3e  	beqz	a5, 0x8000301c <_vsnprintf+0x5d4>
80002c3c: 13 07 01 03  	addi	a4, sp, 0x30
80002c40: 93 08 90 00  	li	a7, 0x9
80002c44: 13 05 f0 00  	li	a0, 0xf
80002c48: 13 03 00 02  	li	t1, 0x20
80002c4c: 6f 00 c0 00  	j	0x80002c58 <_vsnprintf+0x210>
80002c50: 63 86 64 02  	beq	s1, t1, 0x80002c7c <_vsnprintf+0x234>
80002c54: 93 87 06 00  	mv	a5, a3
80002c58: 13 fe f7 00  	andi	t3, a5, 0xf
80002c5c: 13 06 7e 03  	addi	a2, t3, 0x37
80002c60: 63 e4 c8 01  	bltu	a7, t3, 0x80002c68 <_vsnprintf+0x220>
80002c64: 13 06 0e 03  	addi	a2, t3, 0x30
80002c68: 93 84 14 00  	addi	s1, s1, 0x1
80002c6c: b3 06 97 00  	add	a3, a4, s1
80002c70: a3 8f c6 fe  	sb	a2, -0x1(a3)
80002c74: 93 d6 47 00  	srli	a3, a5, 0x4
80002c78: e3 6c f5 fc  	bltu	a0, a5, 0x80002c50 <_vsnprintf+0x208>
80002c7c: 93 07 80 00  	li	a5, 0x8
80002c80: 23 22 f1 00  	sw	a5, 0x4(sp)
80002c84: 23 20 01 01  	sw	a6, 0x0(sp)
80002c88: 13 06 04 00  	mv	a2, s0
80002c8c: 23 24 b1 00  	sw	a1, 0x8(sp)
80002c90: 93 08 00 01  	li	a7, 0x10
80002c94: 13 08 00 00  	li	a6, 0x0
80002c98: 93 87 04 00  	mv	a5, s1
80002c9c: 93 86 0d 00  	mv	a3, s11
80002ca0: 93 05 0b 00  	mv	a1, s6
80002ca4: 13 85 0b 00  	mv	a0, s7
80002ca8: ef e0 9f d6  	jal	0x80001a10 <_ntoa_format>
80002cac: 13 04 05 00  	mv	s0, a0
80002cb0: 03 45 09 00  	lbu	a0, 0x0(s2)
80002cb4: e3 1a 05 e2  	bnez	a0, 0x80002ae8 <_vsnprintf+0xa0>
80002cb8: 93 04 04 00  	mv	s1, s0
80002cbc: 63 64 b4 01  	bltu	s0, s11, 0x80002cc4 <_vsnprintf+0x27c>
80002cc0: 13 84 fd ff  	addi	s0, s11, -0x1
80002cc4: 93 86 0d 00  	mv	a3, s11
80002cc8: 13 06 04 00  	mv	a2, s0
80002ccc: 93 05 0b 00  	mv	a1, s6
80002cd0: 13 05 00 00  	li	a0, 0x0
80002cd4: e7 80 0b 00  	jalr	s7
80002cd8: 83 20 c1 08  	lw	ra, 0x8c(sp)
80002cdc: 03 24 81 08  	lw	s0, 0x88(sp)
80002ce0: 03 29 01 08  	lw	s2, 0x80(sp)
80002ce4: 83 29 c1 07  	lw	s3, 0x7c(sp)
80002ce8: 03 2a 81 07  	lw	s4, 0x78(sp)
80002cec: 83 2a 41 07  	lw	s5, 0x74(sp)
80002cf0: 03 2b 01 07  	lw	s6, 0x70(sp)
80002cf4: 83 2b c1 06  	lw	s7, 0x6c(sp)
80002cf8: 03 2c 81 06  	lw	s8, 0x68(sp)
80002cfc: 83 2c 41 06  	lw	s9, 0x64(sp)
80002d00: 03 2d 01 06  	lw	s10, 0x60(sp)
80002d04: 83 2d c1 05  	lw	s11, 0x5c(sp)
80002d08: 13 85 04 00  	mv	a0, s1
80002d0c: 83 24 41 08  	lw	s1, 0x84(sp)
80002d10: 13 01 01 09  	addi	sp, sp, 0x90
80002d14: 67 80 00 00  	ret
80002d18: 93 08 00 00  	li	a7, 0x0
80002d1c: 13 06 90 00  	li	a2, 0x9
80002d20: 93 85 08 00  	mv	a1, a7
80002d24: 6f 00 80 00  	j	0x80002d2c <_vsnprintf+0x2e4>
80002d28: 13 07 17 00  	addi	a4, a4, 0x1
80002d2c: 93 98 25 00  	slli	a7, a1, 0x2
80002d30: b3 88 b8 00  	add	a7, a7, a1
80002d34: 93 98 18 00  	slli	a7, a7, 0x1
80002d38: b3 88 a8 00  	add	a7, a7, a0
80002d3c: 03 45 07 00  	lbu	a0, 0x0(a4)
80002d40: 13 09 07 00  	mv	s2, a4
80002d44: 93 85 08 fd  	addi	a1, a7, -0x30
80002d48: 93 07 05 fd  	addi	a5, a0, -0x30
80002d4c: 93 f7 f7 0f  	andi	a5, a5, 0xff
80002d50: e3 7c f6 fc  	bgeu	a2, a5, 0x80002d28 <_vsnprintf+0x2e0>
80002d54: 93 07 e0 02  	li	a5, 0x2e
80002d58: 93 88 05 00  	mv	a7, a1
80002d5c: 13 07 17 00  	addi	a4, a4, 0x1
80002d60: 13 08 00 00  	li	a6, 0x0
80002d64: e3 10 f5 de  	bne	a0, a5, 0x80002b44 <_vsnprintf+0xfc>
80002d68: 03 45 19 00  	lbu	a0, 0x1(s2)
80002d6c: 93 05 90 00  	li	a1, 0x9
80002d70: 13 06 07 00  	mv	a2, a4
80002d74: 93 07 05 fd  	addi	a5, a0, -0x30
80002d78: 93 f7 f7 0f  	andi	a5, a5, 0xff
80002d7c: 93 e6 06 40  	ori	a3, a3, 0x400
80002d80: 63 fa f5 22  	bgeu	a1, a5, 0x80002fb4 <_vsnprintf+0x56c>
80002d84: 93 07 a0 02  	li	a5, 0x2a
80002d88: 63 02 f5 26  	beq	a0, a5, 0x80002fec <_vsnprintf+0x5a4>
80002d8c: 13 09 07 00  	mv	s2, a4
80002d90: 13 07 17 00  	addi	a4, a4, 0x1
80002d94: 6f f0 1f db  	j	0x80002b44 <_vsnprintf+0xfc>
80002d98: 83 a8 0c 00  	lw	a7, 0x0(s9)
80002d9c: 93 8c 4c 00  	addi	s9, s9, 0x4
80002da0: 63 ca 08 00  	bltz	a7, 0x80002db4 <_vsnprintf+0x36c>
80002da4: 03 45 19 00  	lbu	a0, 0x1(s2)
80002da8: 13 09 07 00  	mv	s2, a4
80002dac: 13 07 17 00  	addi	a4, a4, 0x1
80002db0: 6f f0 9f d8  	j	0x80002b38 <_vsnprintf+0xf0>
80002db4: 03 45 19 00  	lbu	a0, 0x1(s2)
80002db8: 93 e6 26 00  	ori	a3, a3, 0x2
80002dbc: 13 09 07 00  	mv	s2, a4
80002dc0: b3 08 10 41  	neg	a7, a7
80002dc4: 13 07 17 00  	addi	a4, a4, 0x1
80002dc8: 6f f0 1f d7  	j	0x80002b38 <_vsnprintf+0xf0>
80002dcc: 93 07 70 06  	li	a5, 0x67
80002dd0: 63 0a f5 32  	beq	a0, a5, 0x80003104 <_vsnprintf+0x6bc>
80002dd4: 93 07 70 04  	li	a5, 0x47
80002dd8: 63 0a f5 42  	beq	a0, a5, 0x8000320c <_vsnprintf+0x7c4>
80002ddc: 93 07 50 04  	li	a5, 0x45
80002de0: 63 0c f5 42  	beq	a0, a5, 0x80003218 <_vsnprintf+0x7d0>
80002de4: 93 8c 7c 00  	addi	s9, s9, 0x7
80002de8: 93 fc 8c ff  	andi	s9, s9, -0x8
80002dec: 03 a7 0c 00  	lw	a4, 0x0(s9)
80002df0: 83 a7 4c 00  	lw	a5, 0x4(s9)
80002df4: 13 06 04 00  	mv	a2, s0
80002df8: 23 20 d1 00  	sw	a3, 0x0(sp)
80002dfc: 93 05 0b 00  	mv	a1, s6
80002e00: 93 86 0d 00  	mv	a3, s11
80002e04: 13 85 0b 00  	mv	a0, s7
80002e08: ef e0 9f f4  	jal	0x80001d50 <_etoa>
80002e0c: 93 8c 8c 00  	addi	s9, s9, 0x8
80002e10: 13 04 05 00  	mv	s0, a0
80002e14: 6f f0 df cc  	j	0x80002ae0 <_vsnprintf+0x98>
80002e18: 03 45 19 00  	lbu	a0, 0x1(s2)
80002e1c: 93 07 c0 06  	li	a5, 0x6c
80002e20: e3 18 f5 d8  	bne	a0, a5, 0x80002bb0 <_vsnprintf+0x168>
80002e24: 03 45 29 00  	lbu	a0, 0x2(s2)
80002e28: 93 e6 06 30  	ori	a3, a3, 0x300
80002e2c: 13 07 39 00  	addi	a4, s2, 0x3
80002e30: 6f f0 9f d8  	j	0x80002bb8 <_vsnprintf+0x170>
80002e34: 03 45 19 00  	lbu	a0, 0x1(s2)
80002e38: 93 e6 06 20  	ori	a3, a3, 0x200
80002e3c: 13 07 17 00  	addi	a4, a4, 0x1
80002e40: 6f f0 9f d7  	j	0x80002bb8 <_vsnprintf+0x170>
80002e44: 03 45 19 00  	lbu	a0, 0x1(s2)
80002e48: 93 07 80 06  	li	a5, 0x68
80002e4c: 63 0a f5 3c  	beq	a0, a5, 0x80003220 <_vsnprintf+0x7d8>
80002e50: 93 e6 06 08  	ori	a3, a3, 0x80
80002e54: 13 07 17 00  	addi	a4, a4, 0x1
80002e58: 6f f0 1f d6  	j	0x80002bb8 <_vsnprintf+0x170>
80002e5c: 93 07 60 04  	li	a5, 0x46
80002e60: 63 0a f5 2a  	beq	a0, a5, 0x80003114 <_vsnprintf+0x6cc>
80002e64: 93 8c 7c 00  	addi	s9, s9, 0x7
80002e68: 93 fc 8c ff  	andi	s9, s9, -0x8
80002e6c: 03 a7 0c 00  	lw	a4, 0x0(s9)
80002e70: 83 a7 4c 00  	lw	a5, 0x4(s9)
80002e74: 13 06 04 00  	mv	a2, s0
80002e78: 23 20 d1 00  	sw	a3, 0x0(sp)
80002e7c: 93 05 0b 00  	mv	a1, s6
80002e80: 93 86 0d 00  	mv	a3, s11
80002e84: 13 85 0b 00  	mv	a0, s7
80002e88: ef f0 0f d6  	jal	0x800023e8 <_ftoa>
80002e8c: 93 8c 8c 00  	addi	s9, s9, 0x8
80002e90: 13 04 05 00  	mv	s0, a0
80002e94: 6f f0 df c4  	j	0x80002ae0 <_vsnprintf+0x98>
80002e98: 13 06 04 00  	mv	a2, s0
80002e9c: 93 86 0d 00  	mv	a3, s11
80002ea0: 93 05 0b 00  	mv	a1, s6
80002ea4: 13 05 50 02  	li	a0, 0x25
80002ea8: 13 04 14 00  	addi	s0, s0, 0x1
80002eac: e7 80 0b 00  	jalr	s7
80002eb0: 6f f0 1f c3  	j	0x80002ae0 <_vsnprintf+0x98>
80002eb4: 93 f6 26 00  	andi	a3, a3, 0x2
80002eb8: 13 8c 4c 00  	addi	s8, s9, 0x4
80002ebc: 93 04 14 00  	addi	s1, s0, 0x1
80002ec0: 63 86 06 3a  	beqz	a3, 0x8000326c <_vsnprintf+0x824>
80002ec4: 03 c5 0c 00  	lbu	a0, 0x0(s9)
80002ec8: 23 2c 11 01  	sw	a7, 0x18(sp)
80002ecc: 13 06 04 00  	mv	a2, s0
80002ed0: 93 86 0d 00  	mv	a3, s11
80002ed4: 93 05 0b 00  	mv	a1, s6
80002ed8: e7 80 0b 00  	jalr	s7
80002edc: 83 28 81 01  	lw	a7, 0x18(sp)
80002ee0: 93 07 10 00  	li	a5, 0x1
80002ee4: 33 04 14 01  	add	s0, s0, a7
80002ee8: 63 f4 17 59  	bgeu	a5, a7, 0x80003470 <_vsnprintf+0xa28>
80002eec: 13 86 04 00  	mv	a2, s1
80002ef0: 93 86 0d 00  	mv	a3, s11
80002ef4: 93 84 14 00  	addi	s1, s1, 0x1
80002ef8: 93 05 0b 00  	mv	a1, s6
80002efc: 13 05 00 02  	li	a0, 0x20
80002f00: e7 80 0b 00  	jalr	s7
80002f04: e3 94 84 fe  	bne	s1, s0, 0x80002eec <_vsnprintf+0x4a4>
80002f08: 93 0c 0c 00  	mv	s9, s8
80002f0c: 6f f0 5f bd  	j	0x80002ae0 <_vsnprintf+0x98>
80002f10: 03 ad 0c 00  	lw	s10, 0x0(s9)
80002f14: 93 87 4c 00  	addi	a5, s9, 0x4
80002f18: 23 2c f1 00  	sw	a5, 0x18(sp)
80002f1c: 03 46 0d 00  	lbu	a2, 0x0(s10)
80002f20: 13 05 06 00  	mv	a0, a2
80002f24: 63 16 08 0e  	bnez	a6, 0x80003010 <_vsnprintf+0x5c8>
80002f28: 93 07 e0 ff  	li	a5, -0x2
80002f2c: 63 04 06 02  	beqz	a2, 0x80002f54 <_vsnprintf+0x50c>
80002f30: 93 87 17 00  	addi	a5, a5, 0x1
80002f34: 33 07 fd 00  	add	a4, s10, a5
80002f38: 93 04 0d 00  	mv	s1, s10
80002f3c: 6f 00 80 00  	j	0x80002f44 <_vsnprintf+0x4fc>
80002f40: 63 88 e4 00  	beq	s1, a4, 0x80002f50 <_vsnprintf+0x508>
80002f44: 83 c7 14 00  	lbu	a5, 0x1(s1)
80002f48: 93 84 14 00  	addi	s1, s1, 0x1
80002f4c: e3 9a 07 fe  	bnez	a5, 0x80002f40 <_vsnprintf+0x4f8>
80002f50: b3 84 a4 41  	sub	s1, s1, s10
80002f54: 13 fc 06 40  	andi	s8, a3, 0x400
80002f58: 63 06 0c 00  	beqz	s8, 0x80002f64 <_vsnprintf+0x51c>
80002f5c: 63 74 98 00  	bgeu	a6, s1, 0x80002f64 <_vsnprintf+0x51c>
80002f60: 93 04 08 00  	mv	s1, a6
80002f64: 93 f6 26 00  	andi	a3, a3, 0x2
80002f68: 63 8c 06 36  	beqz	a3, 0x800032e0 <_vsnprintf+0x898>
80002f6c: 63 02 06 20  	beqz	a2, 0x80003170 <_vsnprintf+0x728>
80002f70: 63 06 0c 1a  	beqz	s8, 0x8000311c <_vsnprintf+0x6d4>
80002f74: b3 0c 88 00  	add	s9, a6, s0
80002f78: 13 06 04 00  	mv	a2, s0
80002f7c: 13 8c 06 00  	mv	s8, a3
80002f80: 23 2e 91 00  	sw	s1, 0x1c(sp)
80002f84: 23 20 11 03  	sw	a7, 0x20(sp)
80002f88: 63 8a cc 2a  	beq	s9, a2, 0x8000323c <_vsnprintf+0x7f4>
80002f8c: 93 86 0d 00  	mv	a3, s11
80002f90: 93 05 0b 00  	mv	a1, s6
80002f94: 93 04 16 00  	addi	s1, a2, 0x1
80002f98: e7 80 0b 00  	jalr	s7
80002f9c: b3 87 84 40  	sub	a5, s1, s0
80002fa0: b3 07 fd 00  	add	a5, s10, a5
80002fa4: 03 c5 07 00  	lbu	a0, 0x0(a5)
80002fa8: 63 06 05 2a  	beqz	a0, 0x80003254 <_vsnprintf+0x80c>
80002fac: 13 86 04 00  	mv	a2, s1
80002fb0: 6f f0 9f fd  	j	0x80002f88 <_vsnprintf+0x540>
80002fb4: 13 07 90 00  	li	a4, 0x9
80002fb8: 93 17 28 00  	slli	a5, a6, 0x2
80002fbc: b3 87 07 01  	add	a5, a5, a6
80002fc0: 13 06 16 00  	addi	a2, a2, 0x1
80002fc4: 93 97 17 00  	slli	a5, a5, 0x1
80002fc8: b3 87 a7 00  	add	a5, a5, a0
80002fcc: 03 45 06 00  	lbu	a0, 0x0(a2)
80002fd0: 13 88 07 fd  	addi	a6, a5, -0x30
80002fd4: 93 07 05 fd  	addi	a5, a0, -0x30
80002fd8: 93 f7 f7 0f  	andi	a5, a5, 0xff
80002fdc: e3 7e f7 fc  	bgeu	a4, a5, 0x80002fb8 <_vsnprintf+0x570>
80002fe0: 13 09 06 00  	mv	s2, a2
80002fe4: 13 07 16 00  	addi	a4, a2, 0x1
80002fe8: 6f f0 df b5  	j	0x80002b44 <_vsnprintf+0xfc>
80002fec: 03 a8 0c 00  	lw	a6, 0x0(s9)
80002ff0: 03 45 29 00  	lbu	a0, 0x2(s2)
80002ff4: 13 09 29 00  	addi	s2, s2, 0x2
80002ff8: 93 47 f8 ff  	not	a5, a6
80002ffc: 93 d7 f7 41  	srai	a5, a5, 0x1f
80003000: 33 78 f8 00  	and	a6, a6, a5
80003004: 93 8c 4c 00  	addi	s9, s9, 0x4
80003008: 13 07 19 00  	addi	a4, s2, 0x1
8000300c: 6f f0 9f b3  	j	0x80002b44 <_vsnprintf+0xfc>
80003010: e3 02 06 f4  	beqz	a2, 0x80002f54 <_vsnprintf+0x50c>
80003014: 93 07 f8 ff  	addi	a5, a6, -0x1
80003018: 6f f0 9f f1  	j	0x80002f30 <_vsnprintf+0x4e8>
8000301c: 93 f5 f6 fe  	andi	a1, a3, -0x11
80003020: 93 f7 06 40  	andi	a5, a3, 0x400
80003024: 93 e5 15 02  	ori	a1, a1, 0x21
80003028: 13 07 01 03  	addi	a4, sp, 0x30
8000302c: e3 98 07 c4  	bnez	a5, 0x80002c7c <_vsnprintf+0x234>
80003030: 6f f0 df c0  	j	0x80002c3c <_vsnprintf+0x1f4>
80003034: 93 07 20 06  	li	a5, 0x62
80003038: 63 02 f5 44  	beq	a0, a5, 0x8000347c <_vsnprintf+0xa34>
8000303c: 93 07 80 05  	li	a5, 0x58
80003040: 63 08 f5 44  	beq	a0, a5, 0x80003490 <_vsnprintf+0xa48>
80003044: 13 f5 06 40  	andi	a0, a3, 0x400
80003048: 13 fe e6 fe  	andi	t3, a3, -0x12
8000304c: 63 06 05 3e  	beqz	a0, 0x80003438 <_vsnprintf+0x9f0>
80003050: 93 76 0e 20  	andi	a3, t3, 0x200
80003054: 63 92 06 2e  	bnez	a3, 0x80003338 <_vsnprintf+0x8f0>
80003058: 93 77 0e 10  	andi	a5, t3, 0x100
8000305c: 93 84 4c 00  	addi	s1, s9, 0x4
80003060: 63 96 07 52  	bnez	a5, 0x8000358c <_vsnprintf+0xb44>
80003064: 13 77 0e 04  	andi	a4, t3, 0x40
80003068: 63 12 07 3c  	bnez	a4, 0x8000342c <_vsnprintf+0x9e4>
8000306c: 13 77 0e 08  	andi	a4, t3, 0x80
80003070: 63 0a 07 72  	beqz	a4, 0x800037a4 <_vsnprintf+0xd5c>
80003074: 03 97 0c 00  	lh	a4, 0x0(s9)
80003078: 13 56 f7 40  	srai	a2, a4, 0xf
8000307c: b3 46 c7 00  	xor	a3, a4, a2
80003080: b3 86 c6 40  	sub	a3, a3, a2
80003084: 93 96 06 01  	slli	a3, a3, 0x10
80003088: 93 d6 06 01  	srli	a3, a3, 0x10
8000308c: 93 55 f7 01  	srli	a1, a4, 0x1f
80003090: 63 08 07 4e  	beqz	a4, 0x80003580 <_vsnprintf+0xb38>
80003094: 13 85 06 00  	mv	a0, a3
80003098: 13 07 01 03  	addi	a4, sp, 0x30
8000309c: 13 06 a0 00  	li	a2, 0xa
800030a0: 93 0e 90 00  	li	t4, 0x9
800030a4: 13 0f 00 02  	li	t5, 0x20
800030a8: 6f 00 80 00  	j	0x800030b0 <_vsnprintf+0x668>
800030ac: 63 82 e7 03  	beq	a5, t5, 0x800030d0 <_vsnprintf+0x688>
800030b0: b3 76 c5 02  	remu	a3, a0, a2
800030b4: 93 87 17 00  	addi	a5, a5, 0x1
800030b8: b3 0f f7 00  	add	t6, a4, a5
800030bc: 13 03 05 00  	mv	t1, a0
800030c0: 93 86 06 03  	addi	a3, a3, 0x30
800030c4: a3 8f df fe  	sb	a3, -0x1(t6)
800030c8: 33 55 c5 02  	divu	a0, a0, a2
800030cc: e3 e0 6e fe  	bltu	t4, t1, 0x800030ac <_vsnprintf+0x664>
800030d0: 23 22 11 01  	sw	a7, 0x4(sp)
800030d4: 23 20 01 01  	sw	a6, 0x0(sp)
800030d8: 13 06 04 00  	mv	a2, s0
800030dc: 23 24 c1 01  	sw	t3, 0x8(sp)
800030e0: 93 08 a0 00  	li	a7, 0xa
800030e4: 13 88 05 00  	mv	a6, a1
800030e8: 93 86 0d 00  	mv	a3, s11
800030ec: 93 05 0b 00  	mv	a1, s6
800030f0: 13 85 0b 00  	mv	a0, s7
800030f4: ef e0 df 91  	jal	0x80001a10 <_ntoa_format>
800030f8: 13 04 05 00  	mv	s0, a0
800030fc: 93 8c 04 00  	mv	s9, s1
80003100: 6f f0 1f 9e  	j	0x80002ae0 <_vsnprintf+0x98>
80003104: b7 17 00 00  	lui	a5, 0x1
80003108: 93 87 07 80  	addi	a5, a5, -0x800
8000310c: b3 e6 f6 00  	or	a3, a3, a5
80003110: 6f f0 5f cd  	j	0x80002de4 <_vsnprintf+0x39c>
80003114: 93 e6 06 02  	ori	a3, a3, 0x20
80003118: 6f f0 df d4  	j	0x80002e64 <_vsnprintf+0x41c>
8000311c: 23 2e 91 00  	sw	s1, 0x1c(sp)
80003120: 13 0c 09 00  	mv	s8, s2
80003124: 93 8c 06 00  	mv	s9, a3
80003128: 93 04 04 00  	mv	s1, s0
8000312c: 13 89 08 00  	mv	s2, a7
80003130: 13 86 04 00  	mv	a2, s1
80003134: 93 86 0d 00  	mv	a3, s11
80003138: 93 05 0b 00  	mv	a1, s6
8000313c: e7 80 0b 00  	jalr	s7
80003140: 93 84 14 00  	addi	s1, s1, 0x1
80003144: 33 87 84 40  	sub	a4, s1, s0
80003148: 33 07 ed 00  	add	a4, s10, a4
8000314c: 03 45 07 00  	lbu	a0, 0x0(a4)
80003150: e3 10 05 fe  	bnez	a0, 0x80003130 <_vsnprintf+0x6e8>
80003154: 93 08 09 00  	mv	a7, s2
80003158: 13 09 0c 00  	mv	s2, s8
8000315c: 13 8c 04 00  	mv	s8, s1
80003160: 83 24 c1 01  	lw	s1, 0x1c(sp)
80003164: 93 86 0c 00  	mv	a3, s9
80003168: 13 04 0c 00  	mv	s0, s8
8000316c: 63 88 06 02  	beqz	a3, 0x8000319c <_vsnprintf+0x754>
80003170: 13 0c 04 00  	mv	s8, s0
80003174: 63 f4 14 03  	bgeu	s1, a7, 0x8000319c <_vsnprintf+0x754>
80003178: b3 88 88 00  	add	a7, a7, s0
8000317c: 33 84 98 40  	sub	s0, a7, s1
80003180: 13 06 0c 00  	mv	a2, s8
80003184: 93 86 0d 00  	mv	a3, s11
80003188: 13 0c 1c 00  	addi	s8, s8, 0x1
8000318c: 93 05 0b 00  	mv	a1, s6
80003190: 13 05 00 02  	li	a0, 0x20
80003194: e7 80 0b 00  	jalr	s7
80003198: e3 14 8c fe  	bne	s8, s0, 0x80003180 <_vsnprintf+0x738>
8000319c: 83 2c 81 01  	lw	s9, 0x18(sp)
800031a0: 6f f0 1f 94  	j	0x80002ae0 <_vsnprintf+0x98>
800031a4: 93 07 80 07  	li	a5, 0x78
800031a8: 63 16 f5 34  	bne	a0, a5, 0x800034f4 <_vsnprintf+0xaac>
800031ac: 13 f6 06 40  	andi	a2, a3, 0x400
800031b0: 63 04 06 62  	beqz	a2, 0x800037d8 <_vsnprintf+0xd90>
800031b4: 93 fe 26 ff  	andi	t4, a3, -0xe
800031b8: 13 0d 00 01  	li	s10, 0x10
800031bc: 93 f5 0e 20  	andi	a1, t4, 0x200
800031c0: 63 94 05 2e  	bnez	a1, 0x800034a8 <_vsnprintf+0xa60>
800031c4: 93 f7 0e 10  	andi	a5, t4, 0x100
800031c8: 93 84 4c 00  	addi	s1, s9, 0x4
800031cc: 63 9e 07 4e  	bnez	a5, 0x800036c8 <_vsnprintf+0xc80>
800031d0: 13 f7 0e 04  	andi	a4, t4, 0x40
800031d4: 63 02 07 4e  	beqz	a4, 0x800036b8 <_vsnprintf+0xc70>
800031d8: 83 c5 0c 00  	lbu	a1, 0x0(s9)
800031dc: 63 90 05 34  	bnez	a1, 0x8000351c <_vsnprintf+0xad4>
800031e0: 93 fe fe fe  	andi	t4, t4, -0x11
800031e4: 63 0c 06 32  	beqz	a2, 0x8000351c <_vsnprintf+0xad4>
800031e8: 93 07 00 00  	li	a5, 0x0
800031ec: 13 07 01 03  	addi	a4, sp, 0x30
800031f0: 23 22 11 01  	sw	a7, 0x4(sp)
800031f4: 23 20 01 01  	sw	a6, 0x0(sp)
800031f8: 13 06 04 00  	mv	a2, s0
800031fc: 23 24 d1 01  	sw	t4, 0x8(sp)
80003200: 93 08 0d 00  	mv	a7, s10
80003204: 13 08 00 00  	li	a6, 0x0
80003208: 6f f0 1f ee  	j	0x800030e8 <_vsnprintf+0x6a0>
8000320c: b7 17 00 00  	lui	a5, 0x1
80003210: 93 87 07 80  	addi	a5, a5, -0x800
80003214: b3 e6 f6 00  	or	a3, a3, a5
80003218: 93 e6 06 02  	ori	a3, a3, 0x20
8000321c: 6f f0 9f bc  	j	0x80002de4 <_vsnprintf+0x39c>
80003220: 03 45 29 00  	lbu	a0, 0x2(s2)
80003224: 93 e6 06 0c  	ori	a3, a3, 0xc0
80003228: 13 07 39 00  	addi	a4, s2, 0x3
8000322c: 6f f0 df 98  	j	0x80002bb8 <_vsnprintf+0x170>
80003230: 93 04 00 00  	li	s1, 0x0
80003234: e3 68 b4 a9  	bltu	s0, s11, 0x80002cc4 <_vsnprintf+0x27c>
80003238: 6f f0 9f a8  	j	0x80002cc0 <_vsnprintf+0x278>
8000323c: 93 06 0c 00  	mv	a3, s8
80003240: 83 24 c1 01  	lw	s1, 0x1c(sp)
80003244: 83 28 01 02  	lw	a7, 0x20(sp)
80003248: 13 84 0c 00  	mv	s0, s9
8000324c: e3 88 06 f4  	beqz	a3, 0x8000319c <_vsnprintf+0x754>
80003250: 6f f0 1f f2  	j	0x80003170 <_vsnprintf+0x728>
80003254: 93 06 0c 00  	mv	a3, s8
80003258: 13 8c 04 00  	mv	s8, s1
8000325c: 83 28 01 02  	lw	a7, 0x20(sp)
80003260: 83 24 c1 01  	lw	s1, 0x1c(sp)
80003264: 13 04 0c 00  	mv	s0, s8
80003268: 6f f0 5f f0  	j	0x8000316c <_vsnprintf+0x724>
8000326c: 93 07 10 00  	li	a5, 0x1
80003270: 63 f6 17 1f  	bgeu	a5, a7, 0x8000345c <_vsnprintf+0xa14>
80003274: 93 87 0c 00  	mv	a5, s9
80003278: 93 04 f4 ff  	addi	s1, s0, -0x1
8000327c: 93 0c 09 00  	mv	s9, s2
80003280: b3 84 14 01  	add	s1, s1, a7
80003284: 23 2c 11 01  	sw	a7, 0x18(sp)
80003288: 13 09 04 00  	mv	s2, s0
8000328c: 13 8d 07 00  	mv	s10, a5
80003290: 13 06 04 00  	mv	a2, s0
80003294: 93 86 0d 00  	mv	a3, s11
80003298: 13 04 14 00  	addi	s0, s0, 0x1
8000329c: 93 05 0b 00  	mv	a1, s6
800032a0: 13 05 00 02  	li	a0, 0x20
800032a4: e7 80 0b 00  	jalr	s7
800032a8: e3 14 94 fe  	bne	s0, s1, 0x80003290 <_vsnprintf+0x848>
800032ac: 93 07 0d 00  	mv	a5, s10
800032b0: 83 28 81 01  	lw	a7, 0x18(sp)
800032b4: 03 c5 07 00  	lbu	a0, 0x0(a5)
800032b8: 13 0d 04 00  	mv	s10, s0
800032bc: 93 86 0d 00  	mv	a3, s11
800032c0: 13 04 09 00  	mv	s0, s2
800032c4: 13 06 0d 00  	mv	a2, s10
800032c8: 93 05 0b 00  	mv	a1, s6
800032cc: 13 89 0c 00  	mv	s2, s9
800032d0: 33 04 14 01  	add	s0, s0, a7
800032d4: 93 0c 0c 00  	mv	s9, s8
800032d8: e7 80 0b 00  	jalr	s7
800032dc: 6f f0 5f 80  	j	0x80002ae0 <_vsnprintf+0x98>
800032e0: 63 f6 14 4f  	bgeu	s1, a7, 0x800037cc <_vsnprintf+0xd84>
800032e4: b3 87 88 00  	add	a5, a7, s0
800032e8: b3 84 97 40  	sub	s1, a5, s1
800032ec: 93 8c 06 00  	mv	s9, a3
800032f0: 23 2e 11 01  	sw	a7, 0x1c(sp)
800032f4: 23 20 01 03  	sw	a6, 0x20(sp)
800032f8: 13 06 04 00  	mv	a2, s0
800032fc: 93 86 0d 00  	mv	a3, s11
80003300: 13 04 14 00  	addi	s0, s0, 0x1
80003304: 93 05 0b 00  	mv	a1, s6
80003308: 13 05 00 02  	li	a0, 0x20
8000330c: e7 80 0b 00  	jalr	s7
80003310: e3 14 94 fe  	bne	s0, s1, 0x800032f8 <_vsnprintf+0x8b0>
80003314: 83 28 c1 01  	lw	a7, 0x1c(sp)
80003318: 03 28 01 02  	lw	a6, 0x20(sp)
8000331c: 03 46 0d 00  	lbu	a2, 0x0(s10)
80003320: 93 86 0c 00  	mv	a3, s9
80003324: 93 84 18 00  	addi	s1, a7, 0x1
80003328: 13 05 06 00  	mv	a0, a2
8000332c: e3 12 06 c4  	bnez	a2, 0x80002f70 <_vsnprintf+0x528>
80003330: 83 2c 81 01  	lw	s9, 0x18(sp)
80003334: 6f f0 cf fa  	j	0x80002ae0 <_vsnprintf+0x98>
80003338: 93 8c 7c 00  	addi	s9, s9, 0x7
8000333c: 93 fc 8c ff  	andi	s9, s9, -0x8
80003340: 83 a5 4c 00  	lw	a1, 0x4(s9)
80003344: 03 a6 0c 00  	lw	a2, 0x0(s9)
80003348: 93 8c 8c 00  	addi	s9, s9, 0x8
8000334c: 93 df f5 01  	srli	t6, a1, 0x1f
80003350: b3 67 b6 00  	or	a5, a2, a1
80003354: 63 86 07 0e  	beqz	a5, 0x80003440 <_vsnprintf+0x9f8>
80003358: 93 d7 f5 41  	srai	a5, a1, 0x1f
8000335c: 33 c6 c7 00  	xor	a2, a5, a2
80003360: 33 07 f6 40  	sub	a4, a2, a5
80003364: b3 c5 b7 00  	xor	a1, a5, a1
80003368: b3 36 e6 00  	sltu	a3, a2, a4
8000336c: b3 87 f5 40  	sub	a5, a1, a5
80003370: 13 06 07 00  	mv	a2, a4
80003374: b3 85 d7 40  	sub	a1, a5, a3
80003378: b7 de cc cc  	lui	t4, 0xccccd
8000337c: 13 85 de cc  	addi	a0, t4, -0x333
80003380: 93 07 00 00  	li	a5, 0x0
80003384: 13 07 01 03  	addi	a4, sp, 0x30
80003388: 13 0f 50 00  	li	t5, 0x5
8000338c: 93 8e ce cc  	addi	t4, t4, -0x334
80003390: 93 03 00 02  	li	t2, 0x20
80003394: 93 84 05 00  	mv	s1, a1
80003398: b3 06 96 00  	add	a3, a2, s1
8000339c: b3 b5 c6 00  	sltu	a1, a3, a2
800033a0: b3 86 b6 00  	add	a3, a3, a1
800033a4: b3 f6 e6 03  	remu	a3, a3, t5
800033a8: 13 83 04 00  	mv	t1, s1
800033ac: 93 87 17 00  	addi	a5, a5, 0x1
800033b0: 93 00 06 00  	mv	ra, a2
800033b4: b3 02 f7 00  	add	t0, a4, a5
800033b8: b3 06 d6 40  	sub	a3, a2, a3
800033bc: b3 35 d6 00  	sltu	a1, a2, a3
800033c0: b3 85 b4 40  	sub	a1, s1, a1
800033c4: 33 8c d6 03  	mul	s8, a3, t4
800033c8: b3 85 a5 02  	mul	a1, a1, a0
800033cc: b3 b4 a6 02  	mulhu	s1, a3, a0
800033d0: b3 85 85 01  	add	a1, a1, s8
800033d4: b3 86 a6 02  	mul	a3, a3, a0
800033d8: b3 85 95 00  	add	a1, a1, s1
800033dc: 13 9c f5 01  	slli	s8, a1, 0x1f
800033e0: 93 d4 15 00  	srli	s1, a1, 0x1
800033e4: 93 d6 16 00  	srli	a3, a3, 0x1
800033e8: b3 66 dc 00  	or	a3, s8, a3
800033ec: 93 95 26 00  	slli	a1, a3, 0x2
800033f0: b3 85 d5 00  	add	a1, a1, a3
800033f4: 93 95 15 00  	slli	a1, a1, 0x1
800033f8: 33 06 b6 40  	sub	a2, a2, a1
800033fc: 13 06 06 03  	addi	a2, a2, 0x30
80003400: a3 8f c2 fe  	sb	a2, -0x1(t0)
80003404: 13 86 06 00  	mv	a2, a3
80003408: 63 04 03 04  	beqz	t1, 0x80003450 <_vsnprintf+0xa08>
8000340c: e3 96 77 f8  	bne	a5, t2, 0x80003398 <_vsnprintf+0x950>
80003410: 23 22 11 01  	sw	a7, 0x4(sp)
80003414: 23 20 01 01  	sw	a6, 0x0(sp)
80003418: 13 06 04 00  	mv	a2, s0
8000341c: 23 24 c1 01  	sw	t3, 0x8(sp)
80003420: 93 08 a0 00  	li	a7, 0xa
80003424: 13 88 0f 00  	mv	a6, t6
80003428: 6f f0 5f 87  	j	0x80002c9c <_vsnprintf+0x254>
8000342c: 03 c7 0c 00  	lbu	a4, 0x0(s9)
80003430: 93 06 07 00  	mv	a3, a4
80003434: 6f f0 9f c5  	j	0x8000308c <_vsnprintf+0x644>
80003438: 13 fe f6 fe  	andi	t3, a3, -0x11
8000343c: 6f f0 5f c1  	j	0x80003050 <_vsnprintf+0x608>
80003440: 63 10 05 38  	bnez	a0, 0x800037c0 <_vsnprintf+0xd78>
80003444: 13 06 00 00  	li	a2, 0x0
80003448: 93 05 00 00  	li	a1, 0x0
8000344c: 6f f0 df f2  	j	0x80003378 <_vsnprintf+0x930>
80003450: 93 06 90 00  	li	a3, 0x9
80003454: e3 ec 16 fa  	bltu	a3, ra, 0x8000340c <_vsnprintf+0x9c4>
80003458: 6f f0 9f fb  	j	0x80003410 <_vsnprintf+0x9c8>
8000345c: 03 c5 0c 00  	lbu	a0, 0x0(s9)
80003460: 93 86 0d 00  	mv	a3, s11
80003464: 13 06 04 00  	mv	a2, s0
80003468: 93 05 0b 00  	mv	a1, s6
8000346c: e7 80 0b 00  	jalr	s7
80003470: 13 84 04 00  	mv	s0, s1
80003474: 93 0c 0c 00  	mv	s9, s8
80003478: 6f f0 8f e6  	j	0x80002ae0 <_vsnprintf+0x98>
8000347c: 13 f6 06 40  	andi	a2, a3, 0x400
80003480: 63 00 06 2e  	beqz	a2, 0x80003760 <_vsnprintf+0xd18>
80003484: 93 fe 26 ff  	andi	t4, a3, -0xe
80003488: 13 0d 20 00  	li	s10, 0x2
8000348c: 6f f0 1f d3  	j	0x800031bc <_vsnprintf+0x774>
80003490: 13 f6 06 40  	andi	a2, a3, 0x400
80003494: 63 00 06 34  	beqz	a2, 0x800037d4 <_vsnprintf+0xd8c>
80003498: 93 fe 26 ff  	andi	t4, a3, -0xe
8000349c: 93 ee 0e 02  	ori	t4, t4, 0x20
800034a0: 13 0d 00 01  	li	s10, 0x10
800034a4: 6f f0 9f d1  	j	0x800031bc <_vsnprintf+0x774>
800034a8: 93 8c 7c 00  	addi	s9, s9, 0x7
800034ac: 93 fc 8c ff  	andi	s9, s9, -0x8
800034b0: 83 a6 0c 00  	lw	a3, 0x0(s9)
800034b4: 83 a4 4c 00  	lw	s1, 0x4(s9)
800034b8: 93 8c 8c 00  	addi	s9, s9, 0x8
800034bc: b3 e7 96 00  	or	a5, a3, s1
800034c0: 63 9e 07 12  	bnez	a5, 0x800035fc <_vsnprintf+0xbb4>
800034c4: 93 fe fe fe  	andi	t4, t4, -0x11
800034c8: 63 0a 06 12  	beqz	a2, 0x800035fc <_vsnprintf+0xbb4>
800034cc: 13 0c 00 00  	li	s8, 0x0
800034d0: 13 07 01 03  	addi	a4, sp, 0x30
800034d4: 23 22 11 01  	sw	a7, 0x4(sp)
800034d8: 23 20 01 01  	sw	a6, 0x0(sp)
800034dc: 13 06 04 00  	mv	a2, s0
800034e0: 23 24 d1 01  	sw	t4, 0x8(sp)
800034e4: 93 08 0d 00  	mv	a7, s10
800034e8: 13 08 00 00  	li	a6, 0x0
800034ec: 93 07 0c 00  	mv	a5, s8
800034f0: 6f f0 cf fa  	j	0x80002c9c <_vsnprintf+0x254>
800034f4: 93 07 f0 06  	li	a5, 0x6f
800034f8: 63 18 f5 2e  	bne	a0, a5, 0x800037e8 <_vsnprintf+0xda0>
800034fc: 13 f6 06 40  	andi	a2, a3, 0x400
80003500: 93 fe 36 ff  	andi	t4, a3, -0xd
80003504: 13 0d 80 00  	li	s10, 0x8
80003508: e3 0a 06 ca  	beqz	a2, 0x800031bc <_vsnprintf+0x774>
8000350c: 13 8e 06 00  	mv	t3, a3
80003510: 13 0d 80 00  	li	s10, 0x8
80003514: 93 7e 2e ff  	andi	t4, t3, -0xe
80003518: 6f f0 5f ca  	j	0x800031bc <_vsnprintf+0x774>
8000351c: 13 f6 0e 02  	andi	a2, t4, 0x20
80003520: 13 07 10 06  	li	a4, 0x61
80003524: 63 04 06 00  	beqz	a2, 0x8000352c <_vsnprintf+0xae4>
80003528: 13 07 10 04  	li	a4, 0x41
8000352c: 13 7f f7 0f  	andi	t5, a4, 0xff
80003530: 13 03 90 00  	li	t1, 0x9
80003534: 13 07 01 03  	addi	a4, sp, 0x30
80003538: 13 0f 6f ff  	addi	t5, t5, -0xa
8000353c: 13 0e 00 02  	li	t3, 0x20
80003540: 6f 00 80 02  	j	0x80003568 <_vsnprintf+0xb20>
80003544: 93 86 06 03  	addi	a3, a3, 0x30
80003548: 93 f6 f6 0f  	andi	a3, a3, 0xff
8000354c: 93 87 17 00  	addi	a5, a5, 0x1
80003550: 33 06 f7 00  	add	a2, a4, a5
80003554: a3 0f d6 fe  	sb	a3, -0x1(a2)
80003558: b3 d6 a5 03  	divu	a3, a1, s10
8000355c: e3 ea a5 c9  	bltu	a1, s10, 0x800031f0 <_vsnprintf+0x7a8>
80003560: e3 88 c7 c9  	beq	a5, t3, 0x800031f0 <_vsnprintf+0x7a8>
80003564: 93 85 06 00  	mv	a1, a3
80003568: 33 f6 a5 03  	remu	a2, a1, s10
8000356c: 93 76 f6 0f  	andi	a3, a2, 0xff
80003570: e3 7a c3 fc  	bgeu	t1, a2, 0x80003544 <_vsnprintf+0xafc>
80003574: b3 86 e6 01  	add	a3, a3, t5
80003578: 93 f6 f6 0f  	andi	a3, a3, 0xff
8000357c: 6f f0 1f fd  	j	0x8000354c <_vsnprintf+0xb04>
80003580: 13 07 01 03  	addi	a4, sp, 0x30
80003584: e3 16 05 b4  	bnez	a0, 0x800030d0 <_vsnprintf+0x688>
80003588: 6f f0 1f b1  	j	0x80003098 <_vsnprintf+0x650>
8000358c: 83 a7 0c 00  	lw	a5, 0x0(s9)
80003590: 93 d5 f7 01  	srli	a1, a5, 0x1f
80003594: 63 8c 07 1c  	beqz	a5, 0x8000376c <_vsnprintf+0xd24>
80003598: 13 d7 f7 41  	srai	a4, a5, 0x1f
8000359c: 33 45 f7 00  	xor	a0, a4, a5
800035a0: 33 05 e5 40  	sub	a0, a0, a4
800035a4: 13 07 01 03  	addi	a4, sp, 0x30
800035a8: 13 06 a0 00  	li	a2, 0xa
800035ac: 93 0e 90 00  	li	t4, 0x9
800035b0: 13 0f 00 02  	li	t5, 0x20
800035b4: 6f 00 80 00  	j	0x800035bc <_vsnprintf+0xb74>
800035b8: 63 82 e6 03  	beq	a3, t5, 0x800035dc <_vsnprintf+0xb94>
800035bc: b3 77 c5 02  	remu	a5, a0, a2
800035c0: 93 86 16 00  	addi	a3, a3, 0x1
800035c4: b3 0f d7 00  	add	t6, a4, a3
800035c8: 13 03 05 00  	mv	t1, a0
800035cc: 93 87 07 03  	addi	a5, a5, 0x30
800035d0: a3 8f ff fe  	sb	a5, -0x1(t6)
800035d4: 33 55 c5 02  	divu	a0, a0, a2
800035d8: e3 e0 6e fe  	bltu	t4, t1, 0x800035b8 <_vsnprintf+0xb70>
800035dc: 23 22 11 01  	sw	a7, 0x4(sp)
800035e0: 23 20 01 01  	sw	a6, 0x0(sp)
800035e4: 13 06 04 00  	mv	a2, s0
800035e8: 23 24 c1 01  	sw	t3, 0x8(sp)
800035ec: 93 08 a0 00  	li	a7, 0xa
800035f0: 13 88 05 00  	mv	a6, a1
800035f4: 93 87 06 00  	mv	a5, a3
800035f8: 6f f0 1f af  	j	0x800030e8 <_vsnprintf+0x6a0>
800035fc: 13 f7 0e 02  	andi	a4, t4, 0x20
80003600: 93 07 10 06  	li	a5, 0x61
80003604: 63 04 07 00  	beqz	a4, 0x8000360c <_vsnprintf+0xbc4>
80003608: 93 07 10 04  	li	a5, 0x41
8000360c: 13 f6 f7 0f  	andi	a2, a5, 0xff
80003610: 13 0c 00 00  	li	s8, 0x0
80003614: 13 07 01 03  	addi	a4, sp, 0x30
80003618: 93 07 66 ff  	addi	a5, a2, -0xa
8000361c: 23 20 81 02  	sw	s0, 0x20(sp)
80003620: 23 24 71 03  	sw	s7, 0x28(sp)
80003624: 23 26 61 03  	sw	s6, 0x2c(sp)
80003628: 23 2c 11 01  	sw	a7, 0x18(sp)
8000362c: 13 0b 0c 00  	mv	s6, s8
80003630: 23 2e 01 01  	sw	a6, 0x1c(sp)
80003634: 13 0c 09 00  	mv	s8, s2
80003638: 23 22 d1 03  	sw	t4, 0x24(sp)
8000363c: 13 84 06 00  	mv	s0, a3
80003640: 93 0b 07 00  	mv	s7, a4
80003644: 13 89 07 00  	mv	s2, a5
80003648: 6f 00 40 04  	j	0x8000368c <_vsnprintf+0xc44>
8000364c: 93 07 05 03  	addi	a5, a0, 0x30
80003650: 93 f7 f7 0f  	andi	a5, a5, 0xff
80003654: 13 0b 1b 00  	addi	s6, s6, 0x1
80003658: 33 88 6b 01  	add	a6, s7, s6
8000365c: a3 0f f8 fe  	sb	a5, -0x1(a6)
80003660: 13 06 0d 00  	mv	a2, s10
80003664: 93 06 00 00  	li	a3, 0x0
80003668: 13 05 04 00  	mv	a0, s0
8000366c: 93 85 04 00  	mv	a1, s1
80003670: ef 40 90 5a  	jal	0x80008418 <__udivdi3>
80003674: 93 07 00 00  	li	a5, 0x0
80003678: 63 80 97 10  	beq	a5, s1, 0x80003778 <_vsnprintf+0xd30>
8000367c: 93 07 00 02  	li	a5, 0x20
80003680: 63 0e fb 0e  	beq	s6, a5, 0x8000377c <_vsnprintf+0xd34>
80003684: 13 04 05 00  	mv	s0, a0
80003688: 93 84 05 00  	mv	s1, a1
8000368c: 13 06 0d 00  	mv	a2, s10
80003690: 93 06 00 00  	li	a3, 0x0
80003694: 13 05 04 00  	mv	a0, s0
80003698: 93 85 04 00  	mv	a1, s1
8000369c: ef 50 00 0e  	jal	0x8000877c <__umoddi3>
800036a0: 13 75 f5 0f  	andi	a0, a0, 0xff
800036a4: 93 07 90 00  	li	a5, 0x9
800036a8: e3 f2 a7 fa  	bgeu	a5, a0, 0x8000364c <_vsnprintf+0xc04>
800036ac: b3 07 25 01  	add	a5, a0, s2
800036b0: 93 f7 f7 0f  	andi	a5, a5, 0xff
800036b4: 6f f0 1f fa  	j	0x80003654 <_vsnprintf+0xc0c>
800036b8: 13 f7 0e 08  	andi	a4, t4, 0x80
800036bc: 63 0e 07 0e  	beqz	a4, 0x800037b8 <_vsnprintf+0xd70>
800036c0: 83 d5 0c 00  	lhu	a1, 0x0(s9)
800036c4: 6f f0 9f b1  	j	0x800031dc <_vsnprintf+0x794>
800036c8: 83 a7 0c 00  	lw	a5, 0x0(s9)
800036cc: 63 98 07 00  	bnez	a5, 0x800036dc <_vsnprintf+0xc94>
800036d0: 93 fe fe fe  	andi	t4, t4, -0x11
800036d4: 13 07 01 03  	addi	a4, sp, 0x30
800036d8: 63 14 06 06  	bnez	a2, 0x80003740 <_vsnprintf+0xcf8>
800036dc: 13 f6 0e 02  	andi	a2, t4, 0x20
800036e0: 13 07 10 06  	li	a4, 0x61
800036e4: 63 04 06 00  	beqz	a2, 0x800036ec <_vsnprintf+0xca4>
800036e8: 13 07 10 04  	li	a4, 0x41
800036ec: 13 7f f7 0f  	andi	t5, a4, 0xff
800036f0: 13 0e 90 00  	li	t3, 0x9
800036f4: 13 07 01 03  	addi	a4, sp, 0x30
800036f8: 13 0f 6f ff  	addi	t5, t5, -0xa
800036fc: 13 03 00 02  	li	t1, 0x20
80003700: 6f 00 80 02  	j	0x80003728 <_vsnprintf+0xce0>
80003704: 93 86 06 03  	addi	a3, a3, 0x30
80003708: 93 f6 f6 0f  	andi	a3, a3, 0xff
8000370c: 93 85 15 00  	addi	a1, a1, 0x1
80003710: 33 06 b7 00  	add	a2, a4, a1
80003714: a3 0f d6 fe  	sb	a3, -0x1(a2)
80003718: b3 d6 a7 03  	divu	a3, a5, s10
8000371c: 63 e2 a7 03  	bltu	a5, s10, 0x80003740 <_vsnprintf+0xcf8>
80003720: 63 80 65 02  	beq	a1, t1, 0x80003740 <_vsnprintf+0xcf8>
80003724: 93 87 06 00  	mv	a5, a3
80003728: 33 f6 a7 03  	remu	a2, a5, s10
8000372c: 93 76 f6 0f  	andi	a3, a2, 0xff
80003730: e3 7a ce fc  	bgeu	t3, a2, 0x80003704 <_vsnprintf+0xcbc>
80003734: b3 86 e6 01  	add	a3, a3, t5
80003738: 93 f6 f6 0f  	andi	a3, a3, 0xff
8000373c: 6f f0 1f fd  	j	0x8000370c <_vsnprintf+0xcc4>
80003740: 23 22 11 01  	sw	a7, 0x4(sp)
80003744: 23 20 01 01  	sw	a6, 0x0(sp)
80003748: 13 06 04 00  	mv	a2, s0
8000374c: 23 24 d1 01  	sw	t4, 0x8(sp)
80003750: 93 08 0d 00  	mv	a7, s10
80003754: 13 08 00 00  	li	a6, 0x0
80003758: 93 87 05 00  	mv	a5, a1
8000375c: 6f f0 df 98  	j	0x800030e8 <_vsnprintf+0x6a0>
80003760: 93 fe 36 ff  	andi	t4, a3, -0xd
80003764: 13 0d 20 00  	li	s10, 0x2
80003768: 6f f0 5f a5  	j	0x800031bc <_vsnprintf+0x774>
8000376c: 13 07 01 03  	addi	a4, sp, 0x30
80003770: e3 16 05 e6  	bnez	a0, 0x800035dc <_vsnprintf+0xb94>
80003774: 6f f0 1f e3  	j	0x800035a4 <_vsnprintf+0xb5c>
80003778: e3 72 a4 f1  	bgeu	s0, s10, 0x8000367c <_vsnprintf+0xc34>
8000377c: 13 09 0c 00  	mv	s2, s8
80003780: 13 87 0b 00  	mv	a4, s7
80003784: 13 0c 0b 00  	mv	s8, s6
80003788: 83 28 81 01  	lw	a7, 0x18(sp)
8000378c: 03 28 c1 01  	lw	a6, 0x1c(sp)
80003790: 03 24 01 02  	lw	s0, 0x20(sp)
80003794: 83 2e 41 02  	lw	t4, 0x24(sp)
80003798: 03 2b c1 02  	lw	s6, 0x2c(sp)
8000379c: 83 2b 81 02  	lw	s7, 0x28(sp)
800037a0: 6f f0 5f d3  	j	0x800034d4 <_vsnprintf+0xa8c>
800037a4: 03 a7 0c 00  	lw	a4, 0x0(s9)
800037a8: 13 56 f7 41  	srai	a2, a4, 0x1f
800037ac: b3 46 e6 00  	xor	a3, a2, a4
800037b0: b3 86 c6 40  	sub	a3, a3, a2
800037b4: 6f f0 9f 8d  	j	0x8000308c <_vsnprintf+0x644>
800037b8: 83 a5 0c 00  	lw	a1, 0x0(s9)
800037bc: 6f f0 1f a2  	j	0x800031dc <_vsnprintf+0x794>
800037c0: 93 07 00 00  	li	a5, 0x0
800037c4: 13 07 01 03  	addi	a4, sp, 0x30
800037c8: 6f f0 9f c4  	j	0x80003410 <_vsnprintf+0x9c8>
800037cc: 93 84 14 00  	addi	s1, s1, 0x1
800037d0: 6f f0 9f b5  	j	0x80003328 <_vsnprintf+0x8e0>
800037d4: 93 e6 06 02  	ori	a3, a3, 0x20
800037d8: 93 fe 36 ff  	andi	t4, a3, -0xd
800037dc: 13 06 00 00  	li	a2, 0x0
800037e0: 13 0d 00 01  	li	s10, 0x10
800037e4: 6f f0 9f 9d  	j	0x800031bc <_vsnprintf+0x774>
800037e8: 93 07 90 06  	li	a5, 0x69
800037ec: 13 fe f6 fe  	andi	t3, a3, -0x11
800037f0: 63 1a f5 00  	bne	a0, a5, 0x80003804 <_vsnprintf+0xdbc>
800037f4: 13 f5 06 40  	andi	a0, a3, 0x400
800037f8: e3 0c 05 84  	beqz	a0, 0x80003050 <_vsnprintf+0x608>
800037fc: 13 fe e6 fe  	andi	t3, a3, -0x12
80003800: 6f f0 1f 85  	j	0x80003050 <_vsnprintf+0x608>
80003804: 13 f6 06 40  	andi	a2, a3, 0x400
80003808: 93 fe 36 fe  	andi	t4, a3, -0x1d
8000380c: 13 0d a0 00  	li	s10, 0xa
80003810: e3 06 06 9a  	beqz	a2, 0x800031bc <_vsnprintf+0x774>
80003814: 93 7e 2e ff  	andi	t4, t3, -0xe
80003818: 6f f0 5f 9a  	j	0x800031bc <_vsnprintf+0x774>

8000381c <tiny_vprintf>:
8000381c: 13 01 01 fe  	addi	sp, sp, -0x20
80003820: 93 06 05 00  	mv	a3, a0
80003824: 13 87 05 00  	mv	a4, a1
80003828: 13 06 f0 ff  	li	a2, -0x1
8000382c: 93 05 c1 00  	addi	a1, sp, 0xc
80003830: 17 e5 ff ff  	auipc	a0, 0xffffe
80003834: 13 05 45 51  	addi	a0, a0, 0x514
80003838: 23 2e 11 00  	sw	ra, 0x1c(sp)
8000383c: ef f0 cf a0  	jal	0x80002a48 <_vsnprintf>
80003840: 83 20 c1 01  	lw	ra, 0x1c(sp)
80003844: 13 01 01 02  	addi	sp, sp, 0x20
80003848: 67 80 00 00  	ret

8000384c <dummy>:
8000384c: 67 80 00 00  	ret

80003850 <libc_exit_fini>:
80003850: 13 01 01 ff  	addi	sp, sp, -0x10
80003854: 23 26 11 00  	sw	ra, 0xc(sp)
80003858: 23 24 81 00  	sw	s0, 0x8(sp)
8000385c: 23 22 91 00  	sw	s1, 0x4(sp)
80003860: 17 75 00 00  	auipc	a0, 0x7
80003864: 03 25 05 3e  	lw	a0, 0x3e0(a0)
80003868: 97 75 00 00  	auipc	a1, 0x7
8000386c: 03 a4 c5 3d  	lw	s0, 0x3dc(a1)
80003870: 63 7c a4 00  	bgeu	s0, a0, 0x80003888 <libc_exit_fini+0x38>
80003874: 83 25 c5 ff  	lw	a1, -0x4(a0)
80003878: 93 04 c5 ff  	addi	s1, a0, -0x4
8000387c: e7 80 05 00  	jalr	a1
80003880: 13 85 04 00  	mv	a0, s1
80003884: e3 68 94 fe  	bltu	s0, s1, 0x80003874 <libc_exit_fini+0x24>
80003888: 83 20 c1 00  	lw	ra, 0xc(sp)
8000388c: 03 24 81 00  	lw	s0, 0x8(sp)
80003890: 83 24 41 00  	lw	s1, 0x4(sp)
80003894: 13 01 01 01  	addi	sp, sp, 0x10
80003898: 6f f0 5f fb  	j	0x8000384c <dummy>

8000389c <sinf>:
8000389c: 13 01 01 fc  	addi	sp, sp, -0x40
800038a0: 23 2e 11 02  	sw	ra, 0x3c(sp)
800038a4: 23 2c 81 02  	sw	s0, 0x38(sp)
800038a8: 23 2a 91 02  	sw	s1, 0x34(sp)
800038ac: 23 28 21 03  	sw	s2, 0x30(sp)
800038b0: 23 26 31 03  	sw	s3, 0x2c(sp)
800038b4: 23 24 41 03  	sw	s4, 0x28(sp)
800038b8: 23 22 51 03  	sw	s5, 0x24(sp)
800038bc: 23 20 61 03  	sw	s6, 0x20(sp)
800038c0: 23 2e 71 01  	sw	s7, 0x1c(sp)
800038c4: 23 2c 81 01  	sw	s8, 0x18(sp)
800038c8: 23 2a 91 01  	sw	s9, 0x14(sp)
800038cc: 23 28 a1 01  	sw	s10, 0x10(sp)
800038d0: 27 26 81 00  	fsw	fs0, 0xc(sp)
800038d4: 53 04 a5 20  	fmv.s	fs0, fa0
800038d8: 13 0a 00 00  	li	s4, 0x0
800038dc: d3 0a 05 e0  	fmv.x.w	s5, fa0
800038e0: 13 95 1a 00  	slli	a0, s5, 0x1
800038e4: 13 59 15 00  	srli	s2, a0, 0x1
800038e8: 37 15 49 3f  	lui	a0, 0x3f491
800038ec: 13 05 a5 fd  	addi	a0, a0, -0x26
800038f0: b3 35 25 01  	sltu	a1, a0, s2
800038f4: 8b a9 15 00  	vx_split_n	s3, a1
800038f8: 13 05 10 00  	li	a0, 0x1
800038fc: 63 82 05 38  	beqz	a1, 0x80003c80 <sinf+0x3e4>
80003900: 13 0a 00 00  	li	s4, 0x0
80003904: 37 55 7b 40  	lui	a0, 0x407b5
80003908: 13 05 15 3d  	addi	a0, a0, 0x3d1
8000390c: b3 35 25 01  	sltu	a1, a0, s2
80003910: 0b ab 15 00  	vx_split_n	s6, a1
80003914: 13 05 10 00  	li	a0, 0x1
80003918: 63 80 05 24  	beqz	a1, 0x80003b58 <sinf+0x2bc>
8000391c: 13 0a 00 00  	li	s4, 0x0
80003920: 37 35 e2 40  	lui	a0, 0x40e23
80003924: 13 05 55 1d  	addi	a0, a0, 0x1d5
80003928: b3 35 25 01  	sltu	a1, a0, s2
8000392c: 8b ab 15 00  	vx_split_n	s7, a1
80003930: 13 05 10 00  	li	a0, 0x1
80003934: 63 80 05 10  	beqz	a1, 0x80003a34 <sinf+0x198>
80003938: 13 0a 00 00  	li	s4, 0x0
8000393c: 13 55 79 01  	srli	a0, s2, 0x17
80003940: 93 35 f5 0f  	sltiu	a1, a0, 0xff
80003944: 0b ac 15 00  	vx_split_n	s8, a1
80003948: 13 05 10 00  	li	a0, 0x1
8000394c: 63 88 05 0c  	beqz	a1, 0x80003a1c <sinf+0x180>
80003950: 13 05 01 00  	mv	a0, sp
80003954: 53 05 84 20  	fmv.s	fa0, fs0
80003958: ef 00 10 40  	jal	0x80004558 <__rem_pio2f>
8000395c: 13 75 35 00  	andi	a0, a0, 0x3
80003960: 03 24 41 00  	lw	s0, 0x4(sp)
80003964: 83 24 01 00  	lw	s1, 0x0(sp)
80003968: 33 26 a0 00  	sgtz	a2, a0
8000396c: 0b 2a 16 00  	vx_split_n	s4, a2
80003970: 93 05 10 00  	li	a1, 0x1
80003974: 63 02 06 08  	beqz	a2, 0x800039f8 <sinf+0x15c>
80003978: 93 25 25 00  	slti	a1, a0, 0x2
8000397c: 13 c6 15 00  	xori	a2, a1, 0x1
80003980: 8b 2c 16 00  	vx_split_n	s9, a2
80003984: 93 05 10 00  	li	a1, 0x1
80003988: 63 08 06 04  	beqz	a2, 0x800039d8 <sinf+0x13c>
8000398c: 13 05 e5 ff  	addi	a0, a0, -0x2
80003990: b3 35 a0 00  	snez	a1, a0
80003994: 0b ad 15 00  	vx_split_n	s10, a1
80003998: 13 05 10 00  	li	a0, 0x1
8000399c: 63 8c 05 00  	beqz	a1, 0x800039b4 <sinf+0x118>
800039a0: 13 85 04 00  	mv	a0, s1
800039a4: 93 05 04 00  	mv	a1, s0
800039a8: ef 00 d0 26  	jal	0x80004414 <__cosdf>
800039ac: 13 05 00 00  	li	a0, 0x0
800039b0: 53 15 a5 20  	fneg.s	fa0, fa0
800039b4: 0b 30 0d 00  	vx_join	s10
800039b8: 0b 2d 15 00  	vx_split_n	s10, a0
800039bc: 63 0a 05 00  	beqz	a0, 0x800039d0 <sinf+0x134>
800039c0: b7 05 00 80  	lui	a1, 0x80000
800039c4: b3 45 b4 00  	xor	a1, s0, a1
800039c8: 13 85 04 00  	mv	a0, s1
800039cc: ef 00 50 75  	jal	0x80004920 <__sindf>
800039d0: 0b 30 0d 00  	vx_join	s10
800039d4: 93 05 00 00  	li	a1, 0x0
800039d8: 0b b0 0c 00  	vx_join	s9
800039dc: 8b ac 15 00  	vx_split_n	s9, a1
800039e0: 63 88 05 00  	beqz	a1, 0x800039f0 <sinf+0x154>
800039e4: 13 85 04 00  	mv	a0, s1
800039e8: 93 05 04 00  	mv	a1, s0
800039ec: ef 00 90 22  	jal	0x80004414 <__cosdf>
800039f0: 0b b0 0c 00  	vx_join	s9
800039f4: 93 05 00 00  	li	a1, 0x0
800039f8: 0b 30 0a 00  	vx_join	s4
800039fc: 0b aa 15 00  	vx_split_n	s4, a1
80003a00: 63 88 05 00  	beqz	a1, 0x80003a10 <sinf+0x174>
80003a04: 13 85 04 00  	mv	a0, s1
80003a08: 93 05 04 00  	mv	a1, s0
80003a0c: ef 00 50 71  	jal	0x80004920 <__sindf>
80003a10: 0b 30 0a 00  	vx_join	s4
80003a14: 13 05 00 00  	li	a0, 0x0
80003a18: 13 0a 10 00  	li	s4, 0x1
80003a1c: 0b 30 0c 00  	vx_join	s8
80003a20: 8b 25 15 00  	vx_split_n	a1, a0
80003a24: 63 04 05 00  	beqz	a0, 0x80003a2c <sinf+0x190>
80003a28: d3 77 84 08  	fsub.s	fa5, fs0, fs0
80003a2c: 0b b0 05 00  	vx_join	a1
80003a30: 13 05 00 00  	li	a0, 0x0
80003a34: 0b b0 0b 00  	vx_join	s7
80003a38: 8b 2b 15 00  	vx_split_n	s7, a0
80003a3c: 63 0a 05 10  	beqz	a0, 0x80003b50 <sinf+0x2b4>
80003a40: 37 f5 af 40  	lui	a0, 0x40aff
80003a44: 13 05 f5 dd  	addi	a0, a0, -0x221
80003a48: b3 3c 25 01  	sltu	s9, a0, s2
80003a4c: 53 05 84 20  	fmv.s	fa0, fs0
80003a50: ef 30 10 18  	jal	0x800073d0 <__extendsfdf2>
80003a54: 13 04 05 00  	mv	s0, a0
80003a58: 93 84 05 00  	mv	s1, a1
80003a5c: 0b ac 1c 00  	vx_split_n	s8, s9
80003a60: 13 05 10 00  	li	a0, 0x1
80003a64: 63 86 0c 06  	beqz	s9, 0x80003ad0 <sinf+0x234>
80003a68: 93 d6 fa 01  	srli	a3, s5, 0x1f
80003a6c: 8b ac 16 00  	vx_split_n	s9, a3
80003a70: 13 06 10 00  	li	a2, 0x1
80003a74: 63 82 06 02  	beqz	a3, 0x80003a98 <sinf+0x1fc>
80003a78: 37 35 44 54  	lui	a0, 0x54443
80003a7c: 13 06 85 d1  	addi	a2, a0, -0x2e8
80003a80: 37 25 19 40  	lui	a0, 0x40192
80003a84: 93 06 b5 1f  	addi	a3, a0, 0x1fb
80003a88: 13 05 04 00  	mv	a0, s0
80003a8c: 93 85 04 00  	mv	a1, s1
80003a90: ef 20 40 21  	jal	0x80005ca4 <__adddf3>
80003a94: 13 06 00 00  	li	a2, 0x0
80003a98: 0b b0 0c 00  	vx_join	s9
80003a9c: 8b 2c 16 00  	vx_split_n	s9, a2
80003aa0: 63 00 06 02  	beqz	a2, 0x80003ac0 <sinf+0x224>
80003aa4: 37 35 44 54  	lui	a0, 0x54443
80003aa8: 13 06 85 d1  	addi	a2, a0, -0x2e8
80003aac: 37 25 19 40  	lui	a0, 0x40192
80003ab0: 93 06 b5 1f  	addi	a3, a0, 0x1fb
80003ab4: 13 05 04 00  	mv	a0, s0
80003ab8: 93 85 04 00  	mv	a1, s1
80003abc: ef 40 40 6d  	jal	0x80008190 <__subdf3>
80003ac0: 0b b0 0c 00  	vx_join	s9
80003ac4: ef 00 d0 65  	jal	0x80004920 <__sindf>
80003ac8: d3 07 a5 20  	fmv.s	fa5, fa0
80003acc: 13 05 00 00  	li	a0, 0x0
80003ad0: 0b 30 0c 00  	vx_join	s8
80003ad4: 0b 2c 15 00  	vx_split_n	s8, a0
80003ad8: 63 0a 05 06  	beqz	a0, 0x80003b4c <sinf+0x2b0>
80003adc: 93 d5 fa 01  	srli	a1, s5, 0x1f
80003ae0: 8b ac 15 00  	vx_split_n	s9, a1
80003ae4: 13 05 10 00  	li	a0, 0x1
80003ae8: 63 86 05 02  	beqz	a1, 0x80003b14 <sinf+0x278>
80003aec: 37 25 33 7f  	lui	a0, 0x7f332
80003af0: 13 06 25 1d  	addi	a2, a0, 0x1d2
80003af4: 37 e5 12 40  	lui	a0, 0x4012e
80003af8: 93 06 c5 97  	addi	a3, a0, -0x684
80003afc: 13 05 04 00  	mv	a0, s0
80003b00: 93 85 04 00  	mv	a1, s1
80003b04: ef 20 00 1a  	jal	0x80005ca4 <__adddf3>
80003b08: ef 00 d0 10  	jal	0x80004414 <__cosdf>
80003b0c: d3 07 a5 20  	fmv.s	fa5, fa0
80003b10: 13 05 00 00  	li	a0, 0x0
80003b14: 0b b0 0c 00  	vx_join	s9
80003b18: 8b 2c 15 00  	vx_split_n	s9, a0
80003b1c: 63 06 05 02  	beqz	a0, 0x80003b48 <sinf+0x2ac>
80003b20: 37 25 33 7f  	lui	a0, 0x7f332
80003b24: 13 06 25 1d  	addi	a2, a0, 0x1d2
80003b28: 37 e5 12 40  	lui	a0, 0x4012e
80003b2c: 93 06 c5 97  	addi	a3, a0, -0x684
80003b30: 13 05 04 00  	mv	a0, s0
80003b34: 93 85 04 00  	mv	a1, s1
80003b38: ef 40 80 65  	jal	0x80008190 <__subdf3>
80003b3c: ef 00 90 0d  	jal	0x80004414 <__cosdf>
80003b40: 53 15 a5 20  	fneg.s	fa0, fa0
80003b44: 13 0a 10 00  	li	s4, 0x1
80003b48: 0b b0 0c 00  	vx_join	s9
80003b4c: 0b 30 0c 00  	vx_join	s8
80003b50: 0b b0 0b 00  	vx_join	s7
80003b54: 13 05 00 00  	li	a0, 0x0
80003b58: 0b 30 0b 00  	vx_join	s6
80003b5c: 0b 2b 15 00  	vx_split_n	s6, a0
80003b60: 63 0c 05 10  	beqz	a0, 0x80003c78 <sinf+0x3dc>
80003b64: 37 d5 16 40  	lui	a0, 0x4016d
80003b68: 13 05 35 be  	addi	a0, a0, -0x41d
80003b6c: 33 3c 25 01  	sltu	s8, a0, s2
80003b70: 53 05 84 20  	fmv.s	fa0, fs0
80003b74: ef 30 d0 05  	jal	0x800073d0 <__extendsfdf2>
80003b78: 13 04 05 00  	mv	s0, a0
80003b7c: 93 84 05 00  	mv	s1, a1
80003b80: 8b 2b 1c 00  	vx_split_n	s7, s8
80003b84: 13 05 10 00  	li	a0, 0x1
80003b88: 93 da fa 01  	srli	s5, s5, 0x1f
80003b8c: 63 08 0c 06  	beqz	s8, 0x80003bfc <sinf+0x360>
80003b90: 0b ac 1a 00  	vx_split_n	s8, s5
80003b94: 13 06 10 00  	li	a2, 0x1
80003b98: 63 82 0a 02  	beqz	s5, 0x80003bbc <sinf+0x320>
80003b9c: 37 35 44 54  	lui	a0, 0x54443
80003ba0: 13 06 85 d1  	addi	a2, a0, -0x2e8
80003ba4: 37 25 09 40  	lui	a0, 0x40092
80003ba8: 93 06 b5 1f  	addi	a3, a0, 0x1fb
80003bac: 13 05 04 00  	mv	a0, s0
80003bb0: 93 85 04 00  	mv	a1, s1
80003bb4: ef 20 00 0f  	jal	0x80005ca4 <__adddf3>
80003bb8: 13 06 00 00  	li	a2, 0x0
80003bbc: 0b 30 0c 00  	vx_join	s8
80003bc0: 0b 2c 16 00  	vx_split_n	s8, a2
80003bc4: 63 00 06 02  	beqz	a2, 0x80003be4 <sinf+0x348>
80003bc8: 37 35 44 54  	lui	a0, 0x54443
80003bcc: 13 06 85 d1  	addi	a2, a0, -0x2e8
80003bd0: 37 25 09 40  	lui	a0, 0x40092
80003bd4: 93 06 b5 1f  	addi	a3, a0, 0x1fb
80003bd8: 13 05 04 00  	mv	a0, s0
80003bdc: 93 85 04 00  	mv	a1, s1
80003be0: ef 40 00 5b  	jal	0x80008190 <__subdf3>
80003be4: 0b 30 0c 00  	vx_join	s8
80003be8: 37 06 00 80  	lui	a2, 0x80000
80003bec: b3 c5 c5 00  	xor	a1, a1, a2
80003bf0: ef 00 10 53  	jal	0x80004920 <__sindf>
80003bf4: d3 07 a5 20  	fmv.s	fa5, fa0
80003bf8: 13 05 00 00  	li	a0, 0x0
80003bfc: 0b b0 0b 00  	vx_join	s7
80003c00: 8b 2b 15 00  	vx_split_n	s7, a0
80003c04: 63 08 05 06  	beqz	a0, 0x80003c74 <sinf+0x3d8>
80003c08: 0b ac 1a 00  	vx_split_n	s8, s5
80003c0c: 13 05 10 00  	li	a0, 0x1
80003c10: 63 88 0a 02  	beqz	s5, 0x80003c40 <sinf+0x3a4>
80003c14: 37 35 44 54  	lui	a0, 0x54443
80003c18: 13 06 85 d1  	addi	a2, a0, -0x2e8
80003c1c: 37 25 f9 3f  	lui	a0, 0x3ff92
80003c20: 93 06 b5 1f  	addi	a3, a0, 0x1fb
80003c24: 13 05 04 00  	mv	a0, s0
80003c28: 93 85 04 00  	mv	a1, s1
80003c2c: ef 20 80 07  	jal	0x80005ca4 <__adddf3>
80003c30: ef 00 40 7e  	jal	0x80004414 <__cosdf>
80003c34: 13 05 00 00  	li	a0, 0x0
80003c38: 53 15 a5 20  	fneg.s	fa0, fa0
80003c3c: 13 0a 10 00  	li	s4, 0x1
80003c40: 0b 30 0c 00  	vx_join	s8
80003c44: 8b 2a 15 00  	vx_split_n	s5, a0
80003c48: 63 04 05 02  	beqz	a0, 0x80003c70 <sinf+0x3d4>
80003c4c: 37 35 44 54  	lui	a0, 0x54443
80003c50: 13 06 85 d1  	addi	a2, a0, -0x2e8
80003c54: 37 25 f9 3f  	lui	a0, 0x3ff92
80003c58: 93 06 b5 1f  	addi	a3, a0, 0x1fb
80003c5c: 13 05 04 00  	mv	a0, s0
80003c60: 93 85 04 00  	mv	a1, s1
80003c64: ef 40 c0 52  	jal	0x80008190 <__subdf3>
80003c68: ef 00 c0 7a  	jal	0x80004414 <__cosdf>
80003c6c: d3 07 a5 20  	fmv.s	fa5, fa0
80003c70: 0b b0 0a 00  	vx_join	s5
80003c74: 0b b0 0b 00  	vx_join	s7
80003c78: 0b 30 0b 00  	vx_join	s6
80003c7c: 13 05 00 00  	li	a0, 0x0
80003c80: 0b b0 09 00  	vx_join	s3
80003c84: 0b 24 15 00  	vx_split_n	s0, a0
80003c88: 63 04 05 08  	beqz	a0, 0x80003d10 <sinf+0x474>
80003c8c: 93 54 79 01  	srli	s1, s2, 0x17
80003c90: 13 b5 34 07  	sltiu	a0, s1, 0x73
80003c94: 13 45 15 00  	xori	a0, a0, 0x1
80003c98: 0b 29 15 00  	vx_split_n	s2, a0
80003c9c: 93 05 10 00  	li	a1, 0x1
80003ca0: 63 0c 05 00  	beqz	a0, 0x80003cb8 <sinf+0x41c>
80003ca4: 53 05 84 20  	fmv.s	fa0, fs0
80003ca8: ef 30 80 72  	jal	0x800073d0 <__extendsfdf2>
80003cac: ef 00 50 47  	jal	0x80004920 <__sindf>
80003cb0: d3 07 a5 20  	fmv.s	fa5, fa0
80003cb4: 93 05 00 00  	li	a1, 0x0
80003cb8: 0b 30 09 00  	vx_join	s2
80003cbc: 0b a5 15 00  	vx_split_n	a0, a1
80003cc0: 63 84 05 04  	beqz	a1, 0x80003d08 <sinf+0x46c>
80003cc4: b3 36 90 00  	snez	a3, s1
80003cc8: 8b a5 16 00  	vx_split_n	a1, a3
80003ccc: 13 06 10 00  	li	a2, 0x1
80003cd0: 63 8a 06 00  	beqz	a3, 0x80003ce4 <sinf+0x448>
80003cd4: 13 06 00 00  	li	a2, 0x0
80003cd8: b7 06 80 7b  	lui	a3, 0x7b800
80003cdc: d3 87 06 f0  	fmv.w.x	fa5, a3
80003ce0: d3 77 f4 00  	fadd.s	fa5, fs0, fa5
80003ce4: 0b b0 05 00  	vx_join	a1
80003ce8: 8b 25 16 00  	vx_split_n	a1, a2
80003cec: 63 08 06 00  	beqz	a2, 0x80003cfc <sinf+0x460>
80003cf0: 37 06 80 7b  	lui	a2, 0x7b800
80003cf4: d3 07 06 f0  	fmv.w.x	fa5, a2
80003cf8: d3 77 f4 18  	fdiv.s	fa5, fs0, fa5
80003cfc: 0b b0 05 00  	vx_join	a1
80003d00: 27 24 f1 00  	fsw	fa5, 0x8(sp)
80003d04: 13 0a 10 00  	li	s4, 0x1
80003d08: 0b 30 05 00  	vx_join	a0
80003d0c: 53 05 84 20  	fmv.s	fa0, fs0
80003d10: 0b 30 04 00  	vx_join	s0
80003d14: 0b 25 1a 00  	vx_split_n	a0, s4
80003d18: 63 04 0a 00  	beqz	s4, 0x80003d20 <sinf+0x484>
80003d1c: d3 07 a5 20  	fmv.s	fa5, fa0
80003d20: 0b 30 05 00  	vx_join	a0
80003d24: 53 85 f7 20  	fmv.s	fa0, fa5
80003d28: 83 20 c1 03  	lw	ra, 0x3c(sp)
80003d2c: 03 24 81 03  	lw	s0, 0x38(sp)
80003d30: 83 24 41 03  	lw	s1, 0x34(sp)
80003d34: 03 29 01 03  	lw	s2, 0x30(sp)
80003d38: 83 29 c1 02  	lw	s3, 0x2c(sp)
80003d3c: 03 2a 81 02  	lw	s4, 0x28(sp)
80003d40: 83 2a 41 02  	lw	s5, 0x24(sp)
80003d44: 03 2b 01 02  	lw	s6, 0x20(sp)
80003d48: 83 2b c1 01  	lw	s7, 0x1c(sp)
80003d4c: 03 2c 81 01  	lw	s8, 0x18(sp)
80003d50: 83 2c 41 01  	lw	s9, 0x14(sp)
80003d54: 03 2d 01 01  	lw	s10, 0x10(sp)
80003d58: 07 24 c1 00  	flw	fs0, 0xc(sp)
80003d5c: 13 01 01 04  	addi	sp, sp, 0x40
80003d60: 67 80 00 00  	ret

80003d64 <memcpy>:
80003d64: 13 01 01 ff  	addi	sp, sp, -0x10
80003d68: 23 26 81 00  	sw	s0, 0xc(sp)
80003d6c: 23 24 91 00  	sw	s1, 0x8(sp)
80003d70: 23 22 21 01  	sw	s2, 0x4(sp)
80003d74: 23 20 31 01  	sw	s3, 0x0(sp)
80003d78: 93 f6 35 00  	andi	a3, a1, 0x3
80003d7c: b3 36 d0 00  	snez	a3, a3
80003d80: 33 37 c0 00  	snez	a4, a2
80003d84: b3 f7 e6 00  	and	a5, a3, a4
80003d88: 0b a7 17 00  	vx_split_n	a4, a5
80003d8c: 93 06 05 00  	mv	a3, a0
80003d90: 63 86 07 04  	beqz	a5, 0x80003ddc <memcpy+0x78>
80003d94: 93 87 15 00  	addi	a5, a1, 0x1
80003d98: 73 28 40 cc  	csrr	a6, tmask
80003d9c: 93 88 05 00  	mv	a7, a1
80003da0: 93 02 05 00  	mv	t0, a0
80003da4: 03 c3 08 00  	lbu	t1, 0x0(a7)
80003da8: 93 85 18 00  	addi	a1, a7, 0x1
80003dac: 93 86 12 00  	addi	a3, t0, 0x1
80003db0: 23 80 62 00  	sb	t1, 0x0(t0)
80003db4: 13 06 f6 ff  	addi	a2, a2, -0x1
80003db8: 93 f8 37 00  	andi	a7, a5, 0x3
80003dbc: 93 b8 18 00  	seqz	a7, a7
80003dc0: 93 32 16 00  	seqz	t0, a2
80003dc4: 33 e3 58 00  	or	t1, a7, t0
80003dc8: 93 87 17 00  	addi	a5, a5, 0x1
80003dcc: 8b 50 03 01  	vx_pred_n	t1, a6
80003dd0: 93 88 05 00  	mv	a7, a1
80003dd4: 93 82 06 00  	mv	t0, a3
80003dd8: e3 06 03 fc  	beqz	t1, 0x80003da4 <memcpy+0x40>
80003ddc: 0b 30 07 00  	vx_join	a4
80003de0: 13 08 00 00  	li	a6, 0x0
80003de4: 93 fe 36 00  	andi	t4, a3, 0x3
80003de8: 33 33 d0 01  	snez	t1, t4
80003dec: 0b 27 13 00  	vx_split_n	a4, t1
80003df0: 93 08 10 00  	li	a7, 0x1
80003df4: 63 06 03 38  	beqz	t1, 0x80004180 <memcpy+0x41c>
80003df8: 93 37 06 02  	sltiu	a5, a2, 0x20
80003dfc: 13 c3 17 00  	xori	t1, a5, 0x1
80003e00: 8b 28 13 00  	vx_split_n	a7, t1
80003e04: 93 82 05 00  	mv	t0, a1
80003e08: 93 87 06 00  	mv	a5, a3
80003e0c: 13 08 06 00  	mv	a6, a2
80003e10: 63 0a 03 1e  	beqz	t1, 0x80004004 <memcpy+0x2a0>
80003e14: 03 a3 05 00  	lw	t1, 0x0(a1)
80003e18: 93 a7 3e 00  	slti	a5, t4, 0x3
80003e1c: 13 ce 17 00  	xori	t3, a5, 0x1
80003e20: 8b 23 1e 00  	vx_split_n	t2, t3
80003e24: 13 0f 10 00  	li	t5, 0x1
80003e28: 63 06 0e 08  	beqz	t3, 0x80003eb4 <memcpy+0x150>
80003e2c: 93 87 16 00  	addi	a5, a3, 0x1
80003e30: 23 80 66 00  	sb	t1, 0x0(a3)
80003e34: 13 08 f6 ff  	addi	a6, a2, -0x1
80003e38: 93 82 05 01  	addi	t0, a1, 0x10
80003e3c: 73 2e 40 cc  	csrr	t3, tmask
80003e40: 13 0f 03 00  	mv	t5, t1
80003e44: 83 af 42 ff  	lw	t6, -0xc(t0)
80003e48: 13 5f 8f 00  	srli	t5, t5, 0x8
80003e4c: 13 94 8f 01  	slli	s0, t6, 0x18
80003e50: 83 a4 82 ff  	lw	s1, -0x8(t0)
80003e54: 33 6f e4 01  	or	t5, s0, t5
80003e58: 23 a0 e7 01  	sw	t5, 0x0(a5)
80003e5c: 13 df 8f 00  	srli	t5, t6, 0x8
80003e60: 93 9f 84 01  	slli	t6, s1, 0x18
80003e64: 03 a4 c2 ff  	lw	s0, -0x4(t0)
80003e68: 33 ef ef 01  	or	t5, t6, t5
80003e6c: 23 a2 e7 01  	sw	t5, 0x4(a5)
80003e70: 93 d4 84 00  	srli	s1, s1, 0x8
80003e74: 93 1f 84 01  	slli	t6, s0, 0x18
80003e78: 03 af 02 00  	lw	t5, 0x0(t0)
80003e7c: b3 ef 9f 00  	or	t6, t6, s1
80003e80: 23 a4 f7 01  	sw	t6, 0x8(a5)
80003e84: 13 54 84 00  	srli	s0, s0, 0x8
80003e88: 93 1f 8f 01  	slli	t6, t5, 0x18
80003e8c: b3 ef 8f 00  	or	t6, t6, s0
80003e90: 23 a6 f7 01  	sw	t6, 0xc(a5)
80003e94: 93 87 07 01  	addi	a5, a5, 0x10
80003e98: 13 08 08 ff  	addi	a6, a6, -0x10
80003e9c: 93 82 02 01  	addi	t0, t0, 0x10
80003ea0: 93 3f 38 01  	sltiu	t6, a6, 0x13
80003ea4: 8b d0 cf 01  	vx_pred_n	t6, t3
80003ea8: e3 8e 0f f8  	beqz	t6, 0x80003e44 <memcpy+0xe0>
80003eac: 13 0f 00 00  	li	t5, 0x0
80003eb0: 93 82 12 ff  	addi	t0, t0, -0xf
80003eb4: 13 8e 05 01  	addi	t3, a1, 0x10
80003eb8: 0b b0 03 00  	vx_join	t2
80003ebc: 8b 23 1f 00  	vx_split_n	t2, t5
80003ec0: 63 00 0f 14  	beqz	t5, 0x80004000 <memcpy+0x29c>
80003ec4: 93 8e ee ff  	addi	t4, t4, -0x2
80003ec8: 33 34 d0 01  	snez	s0, t4
80003ecc: 0b 2f 14 00  	vx_split_n	t5, s0
80003ed0: 93 0f 10 00  	li	t6, 0x1
80003ed4: 93 5e 83 00  	srli	t4, t1, 0x8
80003ed8: 63 0c 04 08  	beqz	s0, 0x80003f70 <memcpy+0x20c>
80003edc: 23 80 66 00  	sb	t1, 0x0(a3)
80003ee0: a3 80 d6 01  	sb	t4, 0x1(a3)
80003ee4: 13 58 03 01  	srli	a6, t1, 0x10
80003ee8: 93 87 36 00  	addi	a5, a3, 0x3
80003eec: 23 81 06 01  	sb	a6, 0x2(a3)
80003ef0: 13 08 d6 ff  	addi	a6, a2, -0x3
80003ef4: 93 82 05 01  	addi	t0, a1, 0x10
80003ef8: f3 2f 40 cc  	csrr	t6, tmask
80003efc: 13 04 03 00  	mv	s0, t1
80003f00: 83 a4 42 ff  	lw	s1, -0xc(t0)
80003f04: 13 54 84 01  	srli	s0, s0, 0x18
80003f08: 13 99 84 00  	slli	s2, s1, 0x8
80003f0c: 83 a9 82 ff  	lw	s3, -0x8(t0)
80003f10: 33 64 89 00  	or	s0, s2, s0
80003f14: 23 a0 87 00  	sw	s0, 0x0(a5)
80003f18: 93 d4 84 01  	srli	s1, s1, 0x18
80003f1c: 13 94 89 00  	slli	s0, s3, 0x8
80003f20: 03 a9 c2 ff  	lw	s2, -0x4(t0)
80003f24: 33 64 94 00  	or	s0, s0, s1
80003f28: 23 a2 87 00  	sw	s0, 0x4(a5)
80003f2c: 93 d4 89 01  	srli	s1, s3, 0x18
80003f30: 93 19 89 00  	slli	s3, s2, 0x8
80003f34: 03 a4 02 00  	lw	s0, 0x0(t0)
80003f38: b3 e4 99 00  	or	s1, s3, s1
80003f3c: 23 a4 97 00  	sw	s1, 0x8(a5)
80003f40: 93 54 89 01  	srli	s1, s2, 0x18
80003f44: 13 19 84 00  	slli	s2, s0, 0x8
80003f48: b3 64 99 00  	or	s1, s2, s1
80003f4c: 23 a6 97 00  	sw	s1, 0xc(a5)
80003f50: 93 87 07 01  	addi	a5, a5, 0x10
80003f54: 13 08 08 ff  	addi	a6, a6, -0x10
80003f58: 93 82 02 01  	addi	t0, t0, 0x10
80003f5c: 93 34 18 01  	sltiu	s1, a6, 0x11
80003f60: 8b d0 f4 01  	vx_pred_n	s1, t6
80003f64: e3 8e 04 f8  	beqz	s1, 0x80003f00 <memcpy+0x19c>
80003f68: 93 0f 00 00  	li	t6, 0x0
80003f6c: 93 82 32 ff  	addi	t0, t0, -0xd
80003f70: 0b 30 0f 00  	vx_join	t5
80003f74: 0b af 1f 00  	vx_split_n	t5, t6
80003f78: 63 82 0f 08  	beqz	t6, 0x80003ffc <memcpy+0x298>
80003f7c: 23 80 66 00  	sb	t1, 0x0(a3)
80003f80: 93 87 26 00  	addi	a5, a3, 0x2
80003f84: a3 80 d6 01  	sb	t4, 0x1(a3)
80003f88: 13 08 e6 ff  	addi	a6, a2, -0x2
80003f8c: f3 22 40 cc  	csrr	t0, tmask
80003f90: 83 2e 4e ff  	lw	t4, -0xc(t3)
80003f94: 13 53 03 01  	srli	t1, t1, 0x10
80003f98: 93 9f 0e 01  	slli	t6, t4, 0x10
80003f9c: 03 24 8e ff  	lw	s0, -0x8(t3)
80003fa0: 33 e3 6f 00  	or	t1, t6, t1
80003fa4: 23 a0 67 00  	sw	t1, 0x0(a5)
80003fa8: 13 d3 0e 01  	srli	t1, t4, 0x10
80003fac: 93 1e 04 01  	slli	t4, s0, 0x10
80003fb0: 83 2f ce ff  	lw	t6, -0x4(t3)
80003fb4: 33 e3 6e 00  	or	t1, t4, t1
80003fb8: 23 a2 67 00  	sw	t1, 0x4(a5)
80003fbc: 13 54 04 01  	srli	s0, s0, 0x10
80003fc0: 93 9e 0f 01  	slli	t4, t6, 0x10
80003fc4: 03 23 0e 00  	lw	t1, 0x0(t3)
80003fc8: b3 ee 8e 00  	or	t4, t4, s0
80003fcc: 23 a4 d7 01  	sw	t4, 0x8(a5)
80003fd0: 93 de 0f 01  	srli	t4, t6, 0x10
80003fd4: 93 1f 03 01  	slli	t6, t1, 0x10
80003fd8: b3 ee df 01  	or	t4, t6, t4
80003fdc: 23 a6 d7 01  	sw	t4, 0xc(a5)
80003fe0: 93 87 07 01  	addi	a5, a5, 0x10
80003fe4: 13 08 08 ff  	addi	a6, a6, -0x10
80003fe8: 13 0e 0e 01  	addi	t3, t3, 0x10
80003fec: 93 3e 28 01  	sltiu	t4, a6, 0x12
80003ff0: 8b d0 5e 00  	vx_pred_n	t4, t0
80003ff4: e3 8e 0e f8  	beqz	t4, 0x80003f90 <memcpy+0x22c>
80003ff8: 93 02 2e ff  	addi	t0, t3, -0xe
80003ffc: 0b 30 0f 00  	vx_join	t5
80004000: 0b b0 03 00  	vx_join	t2
80004004: 0b b0 08 00  	vx_join	a7
80004008: 93 38 08 01  	sltiu	a7, a6, 0x10
8000400c: 13 c3 18 00  	xori	t1, a7, 0x1
80004010: 8b 28 13 00  	vx_split_n	a7, t1
80004014: 63 08 03 08  	beqz	t1, 0x800040a4 <memcpy+0x340>
80004018: 03 c3 02 00  	lbu	t1, 0x0(t0)
8000401c: 83 c3 12 00  	lbu	t2, 0x1(t0)
80004020: 03 ce 22 00  	lbu	t3, 0x2(t0)
80004024: 23 80 67 00  	sb	t1, 0x0(a5)
80004028: a3 80 77 00  	sb	t2, 0x1(a5)
8000402c: 03 c3 32 00  	lbu	t1, 0x3(t0)
80004030: 23 81 c7 01  	sb	t3, 0x2(a5)
80004034: 83 c3 42 00  	lbu	t2, 0x4(t0)
80004038: 03 ce 52 00  	lbu	t3, 0x5(t0)
8000403c: a3 81 67 00  	sb	t1, 0x3(a5)
80004040: 03 c3 62 00  	lbu	t1, 0x6(t0)
80004044: 23 82 77 00  	sb	t2, 0x4(a5)
80004048: a3 82 c7 01  	sb	t3, 0x5(a5)
8000404c: 83 c3 72 00  	lbu	t2, 0x7(t0)
80004050: 23 83 67 00  	sb	t1, 0x6(a5)
80004054: 03 c3 82 00  	lbu	t1, 0x8(t0)
80004058: 03 ce 92 00  	lbu	t3, 0x9(t0)
8000405c: a3 83 77 00  	sb	t2, 0x7(a5)
80004060: 83 c3 a2 00  	lbu	t2, 0xa(t0)
80004064: 23 84 67 00  	sb	t1, 0x8(a5)
80004068: a3 84 c7 01  	sb	t3, 0x9(a5)
8000406c: 03 c3 b2 00  	lbu	t1, 0xb(t0)
80004070: 23 85 77 00  	sb	t2, 0xa(a5)
80004074: 83 c3 c2 00  	lbu	t2, 0xc(t0)
80004078: 03 ce d2 00  	lbu	t3, 0xd(t0)
8000407c: a3 85 67 00  	sb	t1, 0xb(a5)
80004080: 03 c3 e2 00  	lbu	t1, 0xe(t0)
80004084: 23 86 77 00  	sb	t2, 0xc(a5)
80004088: a3 86 c7 01  	sb	t3, 0xd(a5)
8000408c: 83 c3 f2 00  	lbu	t2, 0xf(t0)
80004090: 23 87 67 00  	sb	t1, 0xe(a5)
80004094: 93 82 02 01  	addi	t0, t0, 0x10
80004098: 13 83 07 01  	addi	t1, a5, 0x10
8000409c: a3 87 77 00  	sb	t2, 0xf(a5)
800040a0: 93 07 03 00  	mv	a5, t1
800040a4: 0b b0 08 00  	vx_join	a7
800040a8: 93 18 c8 01  	slli	a7, a6, 0x1c
800040ac: 13 d3 f8 01  	srli	t1, a7, 0x1f
800040b0: 8b 28 13 00  	vx_split_n	a7, t1
800040b4: 63 08 03 04  	beqz	t1, 0x80004104 <memcpy+0x3a0>
800040b8: 03 c3 02 00  	lbu	t1, 0x0(t0)
800040bc: 83 c3 12 00  	lbu	t2, 0x1(t0)
800040c0: 03 ce 22 00  	lbu	t3, 0x2(t0)
800040c4: 23 80 67 00  	sb	t1, 0x0(a5)
800040c8: a3 80 77 00  	sb	t2, 0x1(a5)
800040cc: 03 c3 32 00  	lbu	t1, 0x3(t0)
800040d0: 23 81 c7 01  	sb	t3, 0x2(a5)
800040d4: 83 c3 42 00  	lbu	t2, 0x4(t0)
800040d8: 03 ce 52 00  	lbu	t3, 0x5(t0)
800040dc: a3 81 67 00  	sb	t1, 0x3(a5)
800040e0: 03 c3 62 00  	lbu	t1, 0x6(t0)
800040e4: 23 82 77 00  	sb	t2, 0x4(a5)
800040e8: a3 82 c7 01  	sb	t3, 0x5(a5)
800040ec: 83 c3 72 00  	lbu	t2, 0x7(t0)
800040f0: 23 83 67 00  	sb	t1, 0x6(a5)
800040f4: 93 82 82 00  	addi	t0, t0, 0x8
800040f8: 13 83 87 00  	addi	t1, a5, 0x8
800040fc: a3 83 77 00  	sb	t2, 0x7(a5)
80004100: 93 07 03 00  	mv	a5, t1
80004104: 0b b0 08 00  	vx_join	a7
80004108: 93 18 d8 01  	slli	a7, a6, 0x1d
8000410c: 13 d3 f8 01  	srli	t1, a7, 0x1f
80004110: 8b 28 13 00  	vx_split_n	a7, t1
80004114: 63 08 03 02  	beqz	t1, 0x80004144 <memcpy+0x3e0>
80004118: 03 c3 02 00  	lbu	t1, 0x0(t0)
8000411c: 83 c3 12 00  	lbu	t2, 0x1(t0)
80004120: 03 ce 22 00  	lbu	t3, 0x2(t0)
80004124: 23 80 67 00  	sb	t1, 0x0(a5)
80004128: a3 80 77 00  	sb	t2, 0x1(a5)
8000412c: 03 c3 32 00  	lbu	t1, 0x3(t0)
80004130: 23 81 c7 01  	sb	t3, 0x2(a5)
80004134: 93 82 42 00  	addi	t0, t0, 0x4
80004138: 93 83 47 00  	addi	t2, a5, 0x4
8000413c: a3 81 67 00  	sb	t1, 0x3(a5)
80004140: 93 87 03 00  	mv	a5, t2
80004144: 0b b0 08 00  	vx_join	a7
80004148: 93 18 e8 01  	slli	a7, a6, 0x1e
8000414c: 13 d3 f8 01  	srli	t1, a7, 0x1f
80004150: 8b 28 13 00  	vx_split_n	a7, t1
80004154: 63 00 03 02  	beqz	t1, 0x80004174 <memcpy+0x410>
80004158: 03 c3 02 00  	lbu	t1, 0x0(t0)
8000415c: 83 c3 12 00  	lbu	t2, 0x1(t0)
80004160: 23 80 67 00  	sb	t1, 0x0(a5)
80004164: 13 83 27 00  	addi	t1, a5, 0x2
80004168: 93 82 22 00  	addi	t0, t0, 0x2
8000416c: a3 80 77 00  	sb	t2, 0x1(a5)
80004170: 93 07 03 00  	mv	a5, t1
80004174: 0b b0 08 00  	vx_join	a7
80004178: 93 08 00 00  	li	a7, 0x0
8000417c: 13 78 18 00  	andi	a6, a6, 0x1
80004180: 0b 30 07 00  	vx_join	a4
80004184: 0b a7 18 00  	vx_split_n	a4, a7
80004188: 63 84 08 0e  	beqz	a7, 0x80004270 <memcpy+0x50c>
8000418c: 93 37 06 01  	sltiu	a5, a2, 0x10
80004190: 13 c8 17 00  	xori	a6, a5, 0x1
80004194: 8b 27 18 00  	vx_split_n	a5, a6
80004198: 63 00 08 04  	beqz	a6, 0x800041d8 <memcpy+0x474>
8000419c: 73 28 40 cc  	csrr	a6, tmask
800041a0: 83 a8 05 00  	lw	a7, 0x0(a1)
800041a4: 83 a2 45 00  	lw	t0, 0x4(a1)
800041a8: 03 a3 85 00  	lw	t1, 0x8(a1)
800041ac: 83 a3 c5 00  	lw	t2, 0xc(a1)
800041b0: 23 a0 16 01  	sw	a7, 0x0(a3)
800041b4: 23 a2 56 00  	sw	t0, 0x4(a3)
800041b8: 23 a4 66 00  	sw	t1, 0x8(a3)
800041bc: 23 a6 76 00  	sw	t2, 0xc(a3)
800041c0: 93 85 05 01  	addi	a1, a1, 0x10
800041c4: 93 86 06 01  	addi	a3, a3, 0x10
800041c8: 13 06 06 ff  	addi	a2, a2, -0x10
800041cc: 93 38 06 01  	sltiu	a7, a2, 0x10
800041d0: 8b d0 08 01  	vx_pred_n	a7, a6
800041d4: e3 86 08 fc  	beqz	a7, 0x800041a0 <memcpy+0x43c>
800041d8: 0b b0 07 00  	vx_join	a5
800041dc: 93 37 86 00  	sltiu	a5, a2, 0x8
800041e0: 13 c8 17 00  	xori	a6, a5, 0x1
800041e4: 8b 27 18 00  	vx_split_n	a5, a6
800041e8: 63 00 08 02  	beqz	a6, 0x80004208 <memcpy+0x4a4>
800041ec: 03 a8 05 00  	lw	a6, 0x0(a1)
800041f0: 83 a8 45 00  	lw	a7, 0x4(a1)
800041f4: 93 85 85 00  	addi	a1, a1, 0x8
800041f8: 23 a0 06 01  	sw	a6, 0x0(a3)
800041fc: 13 88 86 00  	addi	a6, a3, 0x8
80004200: 23 a2 16 01  	sw	a7, 0x4(a3)
80004204: 93 06 08 00  	mv	a3, a6
80004208: 0b b0 07 00  	vx_join	a5
8000420c: 93 17 d6 01  	slli	a5, a2, 0x1d
80004210: 13 d8 f7 01  	srli	a6, a5, 0x1f
80004214: 8b 27 18 00  	vx_split_n	a5, a6
80004218: 63 0c 08 00  	beqz	a6, 0x80004230 <memcpy+0x4cc>
8000421c: 03 a8 05 00  	lw	a6, 0x0(a1)
80004220: 93 85 45 00  	addi	a1, a1, 0x4
80004224: 93 88 46 00  	addi	a7, a3, 0x4
80004228: 23 a0 06 01  	sw	a6, 0x0(a3)
8000422c: 93 86 08 00  	mv	a3, a7
80004230: 0b b0 07 00  	vx_join	a5
80004234: 93 17 e6 01  	slli	a5, a2, 0x1e
80004238: 13 d8 f7 01  	srli	a6, a5, 0x1f
8000423c: 8b 27 18 00  	vx_split_n	a5, a6
80004240: 63 00 08 02  	beqz	a6, 0x80004260 <memcpy+0x4fc>
80004244: 03 c8 05 00  	lbu	a6, 0x0(a1)
80004248: 83 c8 15 00  	lbu	a7, 0x1(a1)
8000424c: 23 80 06 01  	sb	a6, 0x0(a3)
80004250: 13 88 26 00  	addi	a6, a3, 0x2
80004254: 93 85 25 00  	addi	a1, a1, 0x2
80004258: a3 80 16 01  	sb	a7, 0x1(a3)
8000425c: 93 06 08 00  	mv	a3, a6
80004260: 0b b0 07 00  	vx_join	a5
80004264: 13 78 16 00  	andi	a6, a2, 0x1
80004268: 93 82 05 00  	mv	t0, a1
8000426c: 93 87 06 00  	mv	a5, a3
80004270: 0b 30 07 00  	vx_join	a4
80004274: 8b 25 18 00  	vx_split_n	a1, a6
80004278: 63 06 08 00  	beqz	a6, 0x80004284 <memcpy+0x520>
8000427c: 03 c6 02 00  	lbu	a2, 0x0(t0)
80004280: 23 80 c7 00  	sb	a2, 0x0(a5)
80004284: 0b b0 05 00  	vx_join	a1
80004288: 03 24 c1 00  	lw	s0, 0xc(sp)
8000428c: 83 24 81 00  	lw	s1, 0x8(sp)
80004290: 03 29 41 00  	lw	s2, 0x4(sp)
80004294: 83 29 01 00  	lw	s3, 0x0(sp)
80004298: 13 01 01 01  	addi	sp, sp, 0x10
8000429c: 67 80 00 00  	ret

800042a0 <memset>:
800042a0: 33 37 c0 00  	snez	a4, a2
800042a4: 8b 26 17 00  	vx_split_n	a3, a4
800042a8: 63 02 07 16  	beqz	a4, 0x8000440c <memset+0x16c>
800042ac: 23 00 b5 00  	sb	a1, 0x0(a0)
800042b0: 33 08 c5 00  	add	a6, a0, a2
800042b4: a3 0f b8 fe  	sb	a1, -0x1(a6)
800042b8: 13 37 36 00  	sltiu	a4, a2, 0x3
800042bc: 93 47 17 00  	xori	a5, a4, 0x1
800042c0: 0b a7 17 00  	vx_split_n	a4, a5
800042c4: 63 82 07 14  	beqz	a5, 0x80004408 <memset+0x168>
800042c8: a3 00 b5 00  	sb	a1, 0x1(a0)
800042cc: 23 01 b5 00  	sb	a1, 0x2(a0)
800042d0: 23 0f b8 fe  	sb	a1, -0x2(a6)
800042d4: a3 0e b8 fe  	sb	a1, -0x3(a6)
800042d8: 93 37 76 00  	sltiu	a5, a2, 0x7
800042dc: 93 c8 17 00  	xori	a7, a5, 0x1
800042e0: 8b a7 18 00  	vx_split_n	a5, a7
800042e4: 63 80 08 12  	beqz	a7, 0x80004404 <memset+0x164>
800042e8: a3 01 b5 00  	sb	a1, 0x3(a0)
800042ec: 23 0e b8 fe  	sb	a1, -0x4(a6)
800042f0: 13 38 96 00  	sltiu	a6, a2, 0x9
800042f4: 93 48 18 00  	xori	a7, a6, 0x1
800042f8: 0b a8 18 00  	vx_split_n	a6, a7
800042fc: 63 82 08 10  	beqz	a7, 0x80004400 <memset+0x160>
80004300: b3 08 a0 40  	neg	a7, a0
80004304: 93 f2 38 00  	andi	t0, a7, 0x3
80004308: 33 03 55 00  	add	t1, a0, t0
8000430c: 33 06 56 40  	sub	a2, a2, t0
80004310: 93 73 c6 ff  	andi	t2, a2, -0x4
80004314: 93 f5 f5 0f  	andi	a1, a1, 0xff
80004318: 37 06 01 01  	lui	a2, 0x1010
8000431c: 13 06 16 10  	addi	a2, a2, 0x101
80004320: 33 86 c5 02  	mul	a2, a1, a2
80004324: 23 20 c3 00  	sw	a2, 0x0(t1)
80004328: 33 0e 73 00  	add	t3, t1, t2
8000432c: 23 2e ce fe  	sw	a2, -0x4(t3)
80004330: 93 b5 93 00  	sltiu	a1, t2, 0x9
80004334: 93 c8 15 00  	xori	a7, a1, 0x1
80004338: 8b a5 18 00  	vx_split_n	a1, a7
8000433c: 63 80 08 0c  	beqz	a7, 0x800043fc <memset+0x15c>
80004340: 23 22 c3 00  	sw	a2, 0x4(t1)
80004344: 23 24 c3 00  	sw	a2, 0x8(t1)
80004348: 23 2a ce fe  	sw	a2, -0xc(t3)
8000434c: 23 2c ce fe  	sw	a2, -0x8(t3)
80004350: 93 b8 93 01  	sltiu	a7, t2, 0x19
80004354: 93 ce 18 00  	xori	t4, a7, 0x1
80004358: 8b a8 1e 00  	vx_split_n	a7, t4
8000435c: 63 8e 0e 08  	beqz	t4, 0x800043f8 <memset+0x158>
80004360: 23 26 c3 00  	sw	a2, 0xc(t1)
80004364: 23 28 c3 00  	sw	a2, 0x10(t1)
80004368: 23 2a c3 00  	sw	a2, 0x14(t1)
8000436c: 23 2c c3 00  	sw	a2, 0x18(t1)
80004370: 23 22 ce fe  	sw	a2, -0x1c(t3)
80004374: 23 24 ce fe  	sw	a2, -0x18(t3)
80004378: 23 26 ce fe  	sw	a2, -0x14(t3)
8000437c: 23 28 ce fe  	sw	a2, -0x10(t3)
80004380: 93 7e 43 00  	andi	t4, t1, 0x4
80004384: 13 8f 8e 01  	addi	t5, t4, 0x18
80004388: 33 8e e3 41  	sub	t3, t2, t5
8000438c: 13 3e 0e 02  	sltiu	t3, t3, 0x20
80004390: 93 4f 1e 00  	xori	t6, t3, 0x1
80004394: 0b ae 1f 00  	vx_split_n	t3, t6
80004398: 63 8e 0f 04  	beqz	t6, 0x800043f4 <memset+0x154>
8000439c: 33 03 e3 01  	add	t1, t1, t5
800043a0: b3 83 d3 41  	sub	t2, t2, t4
800043a4: 93 83 83 fc  	addi	t2, t2, -0x38
800043a8: 93 f3 03 fe  	andi	t2, t2, -0x20
800043ac: b3 e3 d3 01  	or	t2, t2, t4
800043b0: b3 82 a2 00  	add	t0, t0, a0
800043b4: b3 82 53 00  	add	t0, t2, t0
800043b8: 93 82 82 03  	addi	t0, t0, 0x38
800043bc: f3 23 40 cc  	csrr	t2, tmask
800043c0: 23 20 c3 00  	sw	a2, 0x0(t1)
800043c4: 23 22 c3 00  	sw	a2, 0x4(t1)
800043c8: 23 24 c3 00  	sw	a2, 0x8(t1)
800043cc: 23 26 c3 00  	sw	a2, 0xc(t1)
800043d0: 23 28 c3 00  	sw	a2, 0x10(t1)
800043d4: 23 2a c3 00  	sw	a2, 0x14(t1)
800043d8: 23 2c c3 00  	sw	a2, 0x18(t1)
800043dc: 23 2e c3 00  	sw	a2, 0x1c(t1)
800043e0: 13 03 03 02  	addi	t1, t1, 0x20
800043e4: b3 4e 53 00  	xor	t4, t1, t0
800043e8: 93 be 1e 00  	seqz	t4, t4
800043ec: 8b d0 7e 00  	vx_pred_n	t4, t2
800043f0: e3 88 0e fc  	beqz	t4, 0x800043c0 <memset+0x120>
800043f4: 0b 30 0e 00  	vx_join	t3
800043f8: 0b b0 08 00  	vx_join	a7
800043fc: 0b b0 05 00  	vx_join	a1
80004400: 0b 30 08 00  	vx_join	a6
80004404: 0b b0 07 00  	vx_join	a5
80004408: 0b 30 07 00  	vx_join	a4
8000440c: 0b b0 06 00  	vx_join	a3
80004410: 67 80 00 00  	ret

80004414 <__cosdf>:
80004414: 13 01 01 fd  	addi	sp, sp, -0x30
80004418: 23 26 11 02  	sw	ra, 0x2c(sp)
8000441c: 23 24 81 02  	sw	s0, 0x28(sp)
80004420: 23 22 91 02  	sw	s1, 0x24(sp)
80004424: 23 20 21 03  	sw	s2, 0x20(sp)
80004428: 23 2e 31 01  	sw	s3, 0x1c(sp)
8000442c: 23 2c 41 01  	sw	s4, 0x18(sp)
80004430: 23 2a 51 01  	sw	s5, 0x14(sp)
80004434: 23 28 61 01  	sw	s6, 0x10(sp)
80004438: 23 26 71 01  	sw	s7, 0xc(sp)
8000443c: 13 06 05 00  	mv	a2, a0
80004440: 93 86 05 00  	mv	a3, a1
80004444: ef 30 00 46  	jal	0x800078a4 <__muldf3>
80004448: 13 04 05 00  	mv	s0, a0
8000444c: 93 84 05 00  	mv	s1, a1
80004450: 13 06 05 00  	mv	a2, a0
80004454: 93 86 05 00  	mv	a3, a1
80004458: ef 30 c0 44  	jal	0x800078a4 <__muldf3>
8000445c: 13 09 05 00  	mv	s2, a0
80004460: 93 89 05 00  	mv	s3, a1
80004464: 37 55 ee e0  	lui	a0, 0xe0ee5
80004468: 13 06 95 06  	addi	a2, a0, 0x69
8000446c: 37 95 f9 3e  	lui	a0, 0x3ef99
80004470: 93 06 25 34  	addi	a3, a0, 0x342
80004474: 13 05 04 00  	mv	a0, s0
80004478: 93 85 04 00  	mv	a1, s1
8000447c: ef 30 80 42  	jal	0x800078a4 <__muldf3>
80004480: 37 26 0f e8  	lui	a2, 0xe80f2
80004484: 13 06 76 e2  	addi	a2, a2, -0x1d9
80004488: b7 c6 56 bf  	lui	a3, 0xbf56c
8000448c: 93 86 76 08  	addi	a3, a3, 0x87
80004490: ef 10 50 01  	jal	0x80005ca4 <__adddf3>
80004494: 13 0a 05 00  	mv	s4, a0
80004498: 93 8a 05 00  	mv	s5, a1
8000449c: 37 65 0c fd  	lui	a0, 0xfd0c6
800044a0: 13 06 15 e8  	addi	a2, a0, -0x17f
800044a4: b7 06 e0 bf  	lui	a3, 0xbfe00
800044a8: 93 86 f6 ff  	addi	a3, a3, -0x1
800044ac: 13 05 04 00  	mv	a0, s0
800044b0: 93 85 04 00  	mv	a1, s1
800044b4: ef 30 00 3f  	jal	0x800078a4 <__muldf3>
800044b8: b7 06 f0 3f  	lui	a3, 0x3ff00
800044bc: 13 06 00 00  	li	a2, 0x0
800044c0: ef 10 40 7e  	jal	0x80005ca4 <__adddf3>
800044c4: 13 0b 05 00  	mv	s6, a0
800044c8: 93 8b 05 00  	mv	s7, a1
800044cc: 37 45 05 e1  	lui	a0, 0xe1054
800044d0: 13 06 25 a4  	addi	a2, a0, -0x5be
800044d4: 37 55 a5 3f  	lui	a0, 0x3fa55
800044d8: 93 06 35 55  	addi	a3, a0, 0x553
800044dc: 13 05 09 00  	mv	a0, s2
800044e0: 93 85 09 00  	mv	a1, s3
800044e4: ef 30 00 3c  	jal	0x800078a4 <__muldf3>
800044e8: 13 06 0b 00  	mv	a2, s6
800044ec: 93 86 0b 00  	mv	a3, s7
800044f0: ef 10 40 7b  	jal	0x80005ca4 <__adddf3>
800044f4: 13 0b 05 00  	mv	s6, a0
800044f8: 93 8b 05 00  	mv	s7, a1
800044fc: 13 05 09 00  	mv	a0, s2
80004500: 93 85 09 00  	mv	a1, s3
80004504: 13 06 04 00  	mv	a2, s0
80004508: 93 86 04 00  	mv	a3, s1
8000450c: ef 30 80 39  	jal	0x800078a4 <__muldf3>
80004510: 13 06 0a 00  	mv	a2, s4
80004514: 93 86 0a 00  	mv	a3, s5
80004518: ef 30 c0 38  	jal	0x800078a4 <__muldf3>
8000451c: 13 06 0b 00  	mv	a2, s6
80004520: 93 86 0b 00  	mv	a3, s7
80004524: ef 10 00 78  	jal	0x80005ca4 <__adddf3>
80004528: ef 30 50 47  	jal	0x8000819c <__truncdfsf2>
8000452c: 83 20 c1 02  	lw	ra, 0x2c(sp)
80004530: 03 24 81 02  	lw	s0, 0x28(sp)
80004534: 83 24 41 02  	lw	s1, 0x24(sp)
80004538: 03 29 01 02  	lw	s2, 0x20(sp)
8000453c: 83 29 c1 01  	lw	s3, 0x1c(sp)
80004540: 03 2a 81 01  	lw	s4, 0x18(sp)
80004544: 83 2a 41 01  	lw	s5, 0x14(sp)
80004548: 03 2b 01 01  	lw	s6, 0x10(sp)
8000454c: 83 2b c1 00  	lw	s7, 0xc(sp)
80004550: 13 01 01 03  	addi	sp, sp, 0x30
80004554: 67 80 00 00  	ret

80004558 <__rem_pio2f>:
80004558: 13 01 01 fb  	addi	sp, sp, -0x50
8000455c: 23 26 11 04  	sw	ra, 0x4c(sp)
80004560: 23 24 81 04  	sw	s0, 0x48(sp)
80004564: 23 22 91 04  	sw	s1, 0x44(sp)
80004568: 23 20 21 05  	sw	s2, 0x40(sp)
8000456c: 23 2e 31 03  	sw	s3, 0x3c(sp)
80004570: 23 2c 41 03  	sw	s4, 0x38(sp)
80004574: 23 2a 51 03  	sw	s5, 0x34(sp)
80004578: 23 28 61 03  	sw	s6, 0x30(sp)
8000457c: 23 26 71 03  	sw	s7, 0x2c(sp)
80004580: 23 24 81 03  	sw	s8, 0x28(sp)
80004584: 23 22 91 03  	sw	s9, 0x24(sp)
80004588: 23 20 a1 03  	sw	s10, 0x20(sp)
8000458c: 23 2e b1 01  	sw	s11, 0x1c(sp)
80004590: 27 2c 81 00  	fsw	fs0, 0x18(sp)
80004594: 13 04 05 00  	mv	s0, a0
80004598: 53 04 a5 20  	fmv.s	fs0, fa0
8000459c: 53 0a 05 e0  	fmv.x.w	s4, fa0
800045a0: 13 15 1a 00  	slli	a0, s4, 0x1
800045a4: 13 55 15 00  	srli	a0, a0, 0x1
800045a8: b7 15 c9 4d  	lui	a1, 0x4dc91
800045ac: 93 85 a5 fd  	addi	a1, a1, -0x26
800045b0: 33 b6 a5 00  	sltu	a2, a1, a0
800045b4: 0b 29 16 00  	vx_split_n	s2, a2
800045b8: 93 05 10 00  	li	a1, 0x1
800045bc: 63 02 06 0c  	beqz	a2, 0x80004680 <__rem_pio2f+0x128>
800045c0: 13 56 75 01  	srli	a2, a0, 0x17
800045c4: 93 36 f6 0f  	sltiu	a3, a2, 0xff
800045c8: 8b a9 16 00  	vx_split_n	s3, a3
800045cc: 93 05 10 00  	li	a1, 0x1
800045d0: 63 84 06 08  	beqz	a3, 0x80004658 <__rem_pio2f+0x100>
800045d4: 93 04 a6 f6  	addi	s1, a2, -0x96
800045d8: 93 95 74 01  	slli	a1, s1, 0x17
800045dc: 33 05 b5 40  	sub	a0, a0, a1
800045e0: 53 05 05 f0  	fmv.w.x	fa0, a0
800045e4: ef 20 d0 5e  	jal	0x800073d0 <__extendsfdf2>
800045e8: 23 2a b1 00  	sw	a1, 0x14(sp)
800045ec: 23 28 a1 00  	sw	a0, 0x10(sp)
800045f0: 13 05 01 01  	addi	a0, sp, 0x10
800045f4: 93 05 81 00  	addi	a1, sp, 0x8
800045f8: 93 06 10 00  	li	a3, 0x1
800045fc: 93 0a 10 00  	li	s5, 0x1
80004600: 13 86 04 00  	mv	a2, s1
80004604: 13 07 00 00  	li	a4, 0x0
80004608: ef 00 80 48  	jal	0x80004a90 <__rem_pio2_large>
8000460c: 83 25 c1 00  	lw	a1, 0xc(sp)
80004610: 03 26 81 00  	lw	a2, 0x8(sp)
80004614: 13 57 fa 01  	srli	a4, s4, 0x1f
80004618: 8b 26 17 00  	vx_split_n	a3, a4
8000461c: 63 0e 07 00  	beqz	a4, 0x80004638 <__rem_pio2f+0xe0>
80004620: 93 0a 00 00  	li	s5, 0x0
80004624: 37 07 00 80  	lui	a4, 0x80000
80004628: 33 c7 e5 00  	xor	a4, a1, a4
8000462c: 23 20 c4 00  	sw	a2, 0x0(s0)
80004630: 23 22 e4 00  	sw	a4, 0x4(s0)
80004634: b3 04 a0 40  	neg	s1, a0
80004638: 0b b0 06 00  	vx_join	a3
8000463c: 8b a6 1a 00  	vx_split_n	a3, s5
80004640: 63 88 0a 00  	beqz	s5, 0x80004650 <__rem_pio2f+0xf8>
80004644: 23 20 c4 00  	sw	a2, 0x0(s0)
80004648: 23 22 b4 00  	sw	a1, 0x4(s0)
8000464c: 93 04 05 00  	mv	s1, a0
80004650: 0b b0 06 00  	vx_join	a3
80004654: 93 05 00 00  	li	a1, 0x0
80004658: 0b b0 09 00  	vx_join	s3
8000465c: 8b a9 15 00  	vx_split_n	s3, a1
80004660: 63 8c 05 00  	beqz	a1, 0x80004678 <__rem_pio2f+0x120>
80004664: 53 75 84 08  	fsub.s	fa0, fs0, fs0
80004668: ef 20 90 56  	jal	0x800073d0 <__extendsfdf2>
8000466c: 93 04 00 00  	li	s1, 0x0
80004670: 23 22 b4 00  	sw	a1, 0x4(s0)
80004674: 23 20 a4 00  	sw	a0, 0x0(s0)
80004678: 0b b0 09 00  	vx_join	s3
8000467c: 93 05 00 00  	li	a1, 0x0
80004680: 0b 30 09 00  	vx_join	s2
80004684: 8b ac 15 00  	vx_split_n	s9, a1
80004688: 63 88 05 24  	beqz	a1, 0x800048d8 <__rem_pio2f+0x380>
8000468c: 53 05 84 20  	fmv.s	fa0, fs0
80004690: ef 20 10 54  	jal	0x800073d0 <__extendsfdf2>
80004694: 93 04 05 00  	mv	s1, a0
80004698: 93 8a 05 00  	mv	s5, a1
8000469c: 37 d5 c9 6d  	lui	a0, 0x6dc9d
800046a0: 13 06 35 88  	addi	a2, a0, -0x77d
800046a4: 37 65 e4 3f  	lui	a0, 0x3fe46
800046a8: 93 06 05 f3  	addi	a3, a0, -0xd0
800046ac: 13 85 04 00  	mv	a0, s1
800046b0: ef 30 40 1f  	jal	0x800078a4 <__muldf3>
800046b4: b7 06 38 43  	lui	a3, 0x43380
800046b8: 13 06 00 00  	li	a2, 0x0
800046bc: ef 10 80 5e  	jal	0x80005ca4 <__adddf3>
800046c0: b7 06 38 43  	lui	a3, 0x43380
800046c4: 13 06 00 00  	li	a2, 0x0
800046c8: ef 30 90 2c  	jal	0x80008190 <__subdf3>
800046cc: 13 09 05 00  	mv	s2, a0
800046d0: 93 89 05 00  	mv	s3, a1
800046d4: ef 20 d0 66  	jal	0x80007540 <__fixdfsi>
800046d8: 13 0a 05 00  	mv	s4, a0
800046dc: 37 05 00 80  	lui	a0, 0x80000
800046e0: 33 cb a9 00  	xor	s6, s3, a0
800046e4: 37 25 f9 3f  	lui	a0, 0x3ff92
800046e8: 93 06 b5 1f  	addi	a3, a0, 0x1fb
800046ec: 37 06 00 50  	lui	a2, 0x50000
800046f0: 13 05 09 00  	mv	a0, s2
800046f4: 93 05 0b 00  	mv	a1, s6
800046f8: ef 30 c0 1a  	jal	0x800078a4 <__muldf3>
800046fc: 13 86 04 00  	mv	a2, s1
80004700: 93 86 0a 00  	mv	a3, s5
80004704: ef 10 00 5a  	jal	0x80005ca4 <__adddf3>
80004708: 93 04 05 00  	mv	s1, a0
8000470c: 93 8a 05 00  	mv	s5, a1
80004710: 37 65 1a 61  	lui	a0, 0x611a6
80004714: 13 06 35 26  	addi	a2, a0, 0x263
80004718: 37 15 51 3e  	lui	a0, 0x3e511
8000471c: 93 06 45 0b  	addi	a3, a0, 0xb4
80004720: 13 05 09 00  	mv	a0, s2
80004724: 93 05 0b 00  	mv	a1, s6
80004728: ef 30 c0 17  	jal	0x800078a4 <__muldf3>
8000472c: 13 86 04 00  	mv	a2, s1
80004730: 93 86 0a 00  	mv	a3, s5
80004734: ef 10 00 57  	jal	0x80005ca4 <__adddf3>
80004738: 93 0a 05 00  	mv	s5, a0
8000473c: 13 8b 05 00  	mv	s6, a1
80004740: 23 22 b4 00  	sw	a1, 0x4(s0)
80004744: 23 20 a4 00  	sw	a0, 0x0(s0)
80004748: 37 25 e9 bf  	lui	a0, 0xbfe92
8000474c: 93 06 b5 1f  	addi	a3, a0, 0x1fb
80004750: 37 06 00 60  	lui	a2, 0x60000
80004754: 13 85 0a 00  	mv	a0, s5
80004758: ef 20 c0 08  	jal	0x800067e4 <__nedf2>
8000475c: 13 25 05 00  	slti	a0, a0, 0x0
80004760: 93 45 15 00  	xori	a1, a0, 0x1
80004764: 0b ad 15 00  	vx_split_n	s10, a1
80004768: 13 05 10 00  	li	a0, 0x1
8000476c: 63 84 05 0c  	beqz	a1, 0x80004834 <__rem_pio2f+0x2dc>
80004770: 37 25 e9 3f  	lui	a0, 0x3fe92
80004774: 93 06 b5 1f  	addi	a3, a0, 0x1fb
80004778: 37 06 00 60  	lui	a2, 0x60000
8000477c: 13 85 0a 00  	mv	a0, s5
80004780: 93 05 0b 00  	mv	a1, s6
80004784: ef 20 80 15  	jal	0x800068dc <__gtdf2>
80004788: 33 25 a0 00  	sgtz	a0, a0
8000478c: 8b 2d 15 00  	vx_split_n	s11, a0
80004790: 93 04 0a 00  	mv	s1, s4
80004794: 63 0c 05 08  	beqz	a0, 0x8000482c <__rem_pio2f+0x2d4>
80004798: 93 04 1a 00  	addi	s1, s4, 0x1
8000479c: b7 06 f0 3f  	lui	a3, 0x3ff00
800047a0: 13 05 09 00  	mv	a0, s2
800047a4: 93 85 09 00  	mv	a1, s3
800047a8: 13 06 00 00  	li	a2, 0x0
800047ac: ef 10 80 4f  	jal	0x80005ca4 <__adddf3>
800047b0: 93 0a 05 00  	mv	s5, a0
800047b4: 13 8b 05 00  	mv	s6, a1
800047b8: 53 05 84 20  	fmv.s	fa0, fs0
800047bc: ef 20 50 41  	jal	0x800073d0 <__extendsfdf2>
800047c0: 93 0b 05 00  	mv	s7, a0
800047c4: 13 8c 05 00  	mv	s8, a1
800047c8: 37 05 00 80  	lui	a0, 0x80000
800047cc: 33 4b ab 00  	xor	s6, s6, a0
800047d0: 37 25 f9 3f  	lui	a0, 0x3ff92
800047d4: 93 06 b5 1f  	addi	a3, a0, 0x1fb
800047d8: 37 06 00 50  	lui	a2, 0x50000
800047dc: 13 85 0a 00  	mv	a0, s5
800047e0: 93 05 0b 00  	mv	a1, s6
800047e4: ef 30 00 0c  	jal	0x800078a4 <__muldf3>
800047e8: 13 86 0b 00  	mv	a2, s7
800047ec: 93 06 0c 00  	mv	a3, s8
800047f0: ef 10 40 4b  	jal	0x80005ca4 <__adddf3>
800047f4: 93 0b 05 00  	mv	s7, a0
800047f8: 13 8c 05 00  	mv	s8, a1
800047fc: 37 65 1a 61  	lui	a0, 0x611a6
80004800: 13 06 35 26  	addi	a2, a0, 0x263
80004804: 37 15 51 3e  	lui	a0, 0x3e511
80004808: 93 06 45 0b  	addi	a3, a0, 0xb4
8000480c: 13 85 0a 00  	mv	a0, s5
80004810: 93 05 0b 00  	mv	a1, s6
80004814: ef 30 00 09  	jal	0x800078a4 <__muldf3>
80004818: 13 86 0b 00  	mv	a2, s7
8000481c: 93 06 0c 00  	mv	a3, s8
80004820: ef 10 40 48  	jal	0x80005ca4 <__adddf3>
80004824: 23 22 b4 00  	sw	a1, 0x4(s0)
80004828: 23 20 a4 00  	sw	a0, 0x0(s0)
8000482c: 0b b0 0d 00  	vx_join	s11
80004830: 13 05 00 00  	li	a0, 0x0
80004834: 0b 30 0d 00  	vx_join	s10
80004838: 0b 2b 15 00  	vx_split_n	s6, a0
8000483c: 63 0c 05 08  	beqz	a0, 0x800048d4 <__rem_pio2f+0x37c>
80004840: 93 04 fa ff  	addi	s1, s4, -0x1
80004844: b7 06 f0 bf  	lui	a3, 0xbff00
80004848: 13 05 09 00  	mv	a0, s2
8000484c: 93 85 09 00  	mv	a1, s3
80004850: 13 06 00 00  	li	a2, 0x0
80004854: ef 10 00 45  	jal	0x80005ca4 <__adddf3>
80004858: 13 09 05 00  	mv	s2, a0
8000485c: 93 89 05 00  	mv	s3, a1
80004860: 53 05 84 20  	fmv.s	fa0, fs0
80004864: ef 20 d0 36  	jal	0x800073d0 <__extendsfdf2>
80004868: 13 0a 05 00  	mv	s4, a0
8000486c: 93 8a 05 00  	mv	s5, a1
80004870: 37 05 00 80  	lui	a0, 0x80000
80004874: b3 c9 a9 00  	xor	s3, s3, a0
80004878: 37 25 f9 3f  	lui	a0, 0x3ff92
8000487c: 93 06 b5 1f  	addi	a3, a0, 0x1fb
80004880: 37 06 00 50  	lui	a2, 0x50000
80004884: 13 05 09 00  	mv	a0, s2
80004888: 93 85 09 00  	mv	a1, s3
8000488c: ef 30 80 01  	jal	0x800078a4 <__muldf3>
80004890: 13 06 0a 00  	mv	a2, s4
80004894: 93 86 0a 00  	mv	a3, s5
80004898: ef 10 c0 40  	jal	0x80005ca4 <__adddf3>
8000489c: 13 0a 05 00  	mv	s4, a0
800048a0: 93 8a 05 00  	mv	s5, a1
800048a4: 37 65 1a 61  	lui	a0, 0x611a6
800048a8: 13 06 35 26  	addi	a2, a0, 0x263
800048ac: 37 15 51 3e  	lui	a0, 0x3e511
800048b0: 93 06 45 0b  	addi	a3, a0, 0xb4
800048b4: 13 05 09 00  	mv	a0, s2
800048b8: 93 85 09 00  	mv	a1, s3
800048bc: ef 20 90 7e  	jal	0x800078a4 <__muldf3>
800048c0: 13 06 0a 00  	mv	a2, s4
800048c4: 93 86 0a 00  	mv	a3, s5
800048c8: ef 10 c0 3d  	jal	0x80005ca4 <__adddf3>
800048cc: 23 22 b4 00  	sw	a1, 0x4(s0)
800048d0: 23 20 a4 00  	sw	a0, 0x0(s0)
800048d4: 0b 30 0b 00  	vx_join	s6
800048d8: 0b b0 0c 00  	vx_join	s9
800048dc: 13 85 04 00  	mv	a0, s1
800048e0: 83 20 c1 04  	lw	ra, 0x4c(sp)
800048e4: 03 24 81 04  	lw	s0, 0x48(sp)
800048e8: 83 24 41 04  	lw	s1, 0x44(sp)
800048ec: 03 29 01 04  	lw	s2, 0x40(sp)
800048f0: 83 29 c1 03  	lw	s3, 0x3c(sp)
800048f4: 03 2a 81 03  	lw	s4, 0x38(sp)
800048f8: 83 2a 41 03  	lw	s5, 0x34(sp)
800048fc: 03 2b 01 03  	lw	s6, 0x30(sp)
80004900: 83 2b c1 02  	lw	s7, 0x2c(sp)
80004904: 03 2c 81 02  	lw	s8, 0x28(sp)
80004908: 83 2c 41 02  	lw	s9, 0x24(sp)
8000490c: 03 2d 01 02  	lw	s10, 0x20(sp)
80004910: 83 2d c1 01  	lw	s11, 0x1c(sp)
80004914: 07 24 81 01  	flw	fs0, 0x18(sp)
80004918: 13 01 01 05  	addi	sp, sp, 0x50
8000491c: 67 80 00 00  	ret

80004920 <__sindf>:
80004920: 13 01 01 fd  	addi	sp, sp, -0x30
80004924: 23 26 11 02  	sw	ra, 0x2c(sp)
80004928: 23 24 81 02  	sw	s0, 0x28(sp)
8000492c: 23 22 91 02  	sw	s1, 0x24(sp)
80004930: 23 20 21 03  	sw	s2, 0x20(sp)
80004934: 23 2e 31 01  	sw	s3, 0x1c(sp)
80004938: 23 2c 41 01  	sw	s4, 0x18(sp)
8000493c: 23 2a 51 01  	sw	s5, 0x14(sp)
80004940: 23 28 61 01  	sw	s6, 0x10(sp)
80004944: 23 26 71 01  	sw	s7, 0xc(sp)
80004948: 23 24 81 01  	sw	s8, 0x8(sp)
8000494c: 23 22 91 01  	sw	s9, 0x4(sp)
80004950: 13 84 05 00  	mv	s0, a1
80004954: 93 04 05 00  	mv	s1, a0
80004958: 13 06 05 00  	mv	a2, a0
8000495c: 93 86 05 00  	mv	a3, a1
80004960: ef 20 50 74  	jal	0x800078a4 <__muldf3>
80004964: 13 0b 05 00  	mv	s6, a0
80004968: 93 8b 05 00  	mv	s7, a1
8000496c: 13 06 05 00  	mv	a2, a0
80004970: 93 86 05 00  	mv	a3, a1
80004974: ef 20 10 73  	jal	0x800078a4 <__muldf3>
80004978: 13 09 05 00  	mv	s2, a0
8000497c: 93 89 05 00  	mv	s3, a1
80004980: 37 45 3b 8c  	lui	a0, 0x8c3b4
80004984: 13 06 75 6a  	addi	a2, a0, 0x6a7
80004988: 37 d5 c6 3e  	lui	a0, 0x3ec6d
8000498c: 93 06 75 d8  	addi	a3, a0, -0x279
80004990: 13 05 0b 00  	mv	a0, s6
80004994: 93 85 0b 00  	mv	a1, s7
80004998: ef 20 d0 70  	jal	0x800078a4 <__muldf3>
8000499c: 37 e6 ca e2  	lui	a2, 0xe2cae
800049a0: 13 06 46 77  	addi	a2, a2, 0x774
800049a4: b7 06 2a bf  	lui	a3, 0xbf2a0
800049a8: 93 86 96 0f  	addi	a3, a3, 0xf9
800049ac: ef 10 80 2f  	jal	0x80005ca4 <__adddf3>
800049b0: 13 0a 05 00  	mv	s4, a0
800049b4: 93 8a 05 00  	mv	s5, a1
800049b8: 13 05 0b 00  	mv	a0, s6
800049bc: 93 85 0b 00  	mv	a1, s7
800049c0: 13 86 04 00  	mv	a2, s1
800049c4: 93 06 04 00  	mv	a3, s0
800049c8: ef 20 d0 6d  	jal	0x800078a4 <__muldf3>
800049cc: 13 0c 05 00  	mv	s8, a0
800049d0: 93 8c 05 00  	mv	s9, a1
800049d4: 37 05 6f 89  	lui	a0, 0x896f0
800049d8: 13 06 25 bb  	addi	a2, a0, -0x44e
800049dc: 37 15 81 3f  	lui	a0, 0x3f811
800049e0: 93 06 05 11  	addi	a3, a0, 0x110
800049e4: 13 05 0b 00  	mv	a0, s6
800049e8: 93 85 0b 00  	mv	a1, s7
800049ec: ef 20 90 6b  	jal	0x800078a4 <__muldf3>
800049f0: 37 b6 cb 54  	lui	a2, 0x54cbb
800049f4: 13 06 76 c7  	addi	a2, a2, -0x389
800049f8: b7 56 c5 bf  	lui	a3, 0xbfc55
800049fc: 93 86 56 55  	addi	a3, a3, 0x555
80004a00: ef 10 40 2a  	jal	0x80005ca4 <__adddf3>
80004a04: 13 06 05 00  	mv	a2, a0
80004a08: 93 86 05 00  	mv	a3, a1
80004a0c: 13 05 0c 00  	mv	a0, s8
80004a10: 93 85 0c 00  	mv	a1, s9
80004a14: ef 20 10 69  	jal	0x800078a4 <__muldf3>
80004a18: 13 86 04 00  	mv	a2, s1
80004a1c: 93 06 04 00  	mv	a3, s0
80004a20: ef 10 40 28  	jal	0x80005ca4 <__adddf3>
80004a24: 13 04 05 00  	mv	s0, a0
80004a28: 93 84 05 00  	mv	s1, a1
80004a2c: 13 05 0c 00  	mv	a0, s8
80004a30: 93 85 0c 00  	mv	a1, s9
80004a34: 13 06 09 00  	mv	a2, s2
80004a38: 93 86 09 00  	mv	a3, s3
80004a3c: ef 20 90 66  	jal	0x800078a4 <__muldf3>
80004a40: 13 06 0a 00  	mv	a2, s4
80004a44: 93 86 0a 00  	mv	a3, s5
80004a48: ef 20 d0 65  	jal	0x800078a4 <__muldf3>
80004a4c: 13 06 04 00  	mv	a2, s0
80004a50: 93 86 04 00  	mv	a3, s1
80004a54: ef 10 00 25  	jal	0x80005ca4 <__adddf3>
80004a58: ef 30 40 74  	jal	0x8000819c <__truncdfsf2>
80004a5c: 83 20 c1 02  	lw	ra, 0x2c(sp)
80004a60: 03 24 81 02  	lw	s0, 0x28(sp)
80004a64: 83 24 41 02  	lw	s1, 0x24(sp)
80004a68: 03 29 01 02  	lw	s2, 0x20(sp)
80004a6c: 83 29 c1 01  	lw	s3, 0x1c(sp)
80004a70: 03 2a 81 01  	lw	s4, 0x18(sp)
80004a74: 83 2a 41 01  	lw	s5, 0x14(sp)
80004a78: 03 2b 01 01  	lw	s6, 0x10(sp)
80004a7c: 83 2b c1 00  	lw	s7, 0xc(sp)
80004a80: 03 2c 81 00  	lw	s8, 0x8(sp)
80004a84: 83 2c 41 00  	lw	s9, 0x4(sp)
80004a88: 13 01 01 03  	addi	sp, sp, 0x30
80004a8c: 67 80 00 00  	ret

80004a90 <__rem_pio2_large>:
80004a90: 13 01 01 d5  	addi	sp, sp, -0x2b0
80004a94: 23 26 11 2a  	sw	ra, 0x2ac(sp)
80004a98: 23 24 81 2a  	sw	s0, 0x2a8(sp)
80004a9c: 23 22 91 2a  	sw	s1, 0x2a4(sp)
80004aa0: 23 20 21 2b  	sw	s2, 0x2a0(sp)
80004aa4: 23 2e 31 29  	sw	s3, 0x29c(sp)
80004aa8: 23 2c 41 29  	sw	s4, 0x298(sp)
80004aac: 23 2a 51 29  	sw	s5, 0x294(sp)
80004ab0: 23 28 61 29  	sw	s6, 0x290(sp)
80004ab4: 23 26 71 29  	sw	s7, 0x28c(sp)
80004ab8: 23 24 81 29  	sw	s8, 0x288(sp)
80004abc: 23 22 91 29  	sw	s9, 0x284(sp)
80004ac0: 23 20 a1 29  	sw	s10, 0x280(sp)
80004ac4: 23 2e b1 27  	sw	s11, 0x27c(sp)
80004ac8: 13 8a 06 00  	mv	s4, a3
80004acc: 23 20 b1 00  	sw	a1, 0x0(sp)
80004ad0: 23 2e a1 02  	sw	a0, 0x3c(sp)
80004ad4: 23 22 e1 00  	sw	a4, 0x4(sp)
80004ad8: 13 15 27 00  	slli	a0, a4, 0x2
80004adc: 97 45 00 00  	auipc	a1, 0x4
80004ae0: 93 85 45 26  	addi	a1, a1, 0x264
80004ae4: 33 85 a5 00  	add	a0, a1, a0
80004ae8: 03 27 05 00  	lw	a4, 0x0(a0)
80004aec: 13 85 f6 ff  	addi	a0, a3, -0x1
80004af0: 93 05 d6 ff  	addi	a1, a2, -0x3
80004af4: b7 b6 aa 2a  	lui	a3, 0x2aaab
80004af8: 93 86 b6 aa  	addi	a3, a3, -0x555
80004afc: b3 95 d5 02  	mulh	a1, a1, a3
80004b00: 93 d6 f5 01  	srli	a3, a1, 0x1f
80004b04: 93 d5 25 40  	srai	a1, a1, 0x2
80004b08: b3 85 d5 00  	add	a1, a1, a3
80004b0c: b3 26 b0 00  	sgtz	a3, a1
80004b10: b3 d6 d5 0e  	czero.eqz	a3, a1, a3
80004b14: 93 05 80 fe  	li	a1, -0x18
80004b18: 23 22 d1 04  	sw	a3, 0x44(sp)
80004b1c: b3 85 b6 02  	mul	a1, a3, a1
80004b20: 33 8c c5 00  	add	s8, a1, a2
80004b24: 23 22 e1 02  	sw	a4, 0x24(sp)
80004b28: b3 05 a7 00  	add	a1, a4, a0
80004b2c: 93 c5 f5 ff  	not	a1, a1
80004b30: 93 d5 f5 01  	srli	a1, a1, 0x1f
80004b34: 0b a4 15 00  	vx_split_n	s0, a1
80004b38: 17 46 00 00  	auipc	a2, 0x4
80004b3c: 13 06 86 21  	addi	a2, a2, 0x218
80004b40: 23 20 c1 04  	sw	a2, 0x40(sp)
80004b44: 63 84 05 08  	beqz	a1, 0x80004bcc <__rem_pio2_large+0x13c>
80004b48: 03 26 41 04  	lw	a2, 0x44(sp)
80004b4c: b3 04 a6 40  	sub	s1, a2, a0
80004b50: 13 15 26 00  	slli	a0, a2, 0x2
80004b54: 93 15 2a 00  	slli	a1, s4, 0x2
80004b58: 83 26 01 04  	lw	a3, 0x40(sp)
80004b5c: b3 85 d5 40  	sub	a1, a1, a3
80004b60: 33 05 b5 40  	sub	a0, a0, a1
80004b64: 13 09 45 00  	addi	s2, a0, 0x4
80004b68: 83 29 41 02  	lw	s3, 0x24(sp)
80004b6c: b3 89 c9 00  	add	s3, s3, a2
80004b70: 93 89 19 00  	addi	s3, s3, 0x1
80004b74: 93 0a 81 18  	addi	s5, sp, 0x188
80004b78: 73 2b 40 cc  	csrr	s6, tmask
80004b7c: 6f 00 c0 02  	j	0x80004ba8 <__rem_pio2_large+0x118>
80004b80: 0b b0 0b 00  	vx_join	s7
80004b84: 23 a0 aa 00  	sw	a0, 0x0(s5)
80004b88: 23 a2 ba 00  	sw	a1, 0x4(s5)
80004b8c: 93 84 14 00  	addi	s1, s1, 0x1
80004b90: 13 09 49 00  	addi	s2, s2, 0x4
80004b94: 93 8a 8a 00  	addi	s5, s5, 0x8
80004b98: 33 c5 34 01  	xor	a0, s1, s3
80004b9c: 13 35 15 00  	seqz	a0, a0
80004ba0: 8b 50 65 01  	vx_pred_n	a0, s6
80004ba4: 63 14 05 02  	bnez	a0, 0x80004bcc <__rem_pio2_large+0x13c>
80004ba8: 13 05 00 00  	li	a0, 0x0
80004bac: 93 05 00 00  	li	a1, 0x0
80004bb0: 13 c6 f4 ff  	not	a2, s1
80004bb4: 13 56 f6 01  	srli	a2, a2, 0x1f
80004bb8: 8b 2b 16 00  	vx_split_n	s7, a2
80004bbc: e3 02 06 fc  	beqz	a2, 0x80004b80 <__rem_pio2_large+0xf0>
80004bc0: 03 25 09 00  	lw	a0, 0x0(s2)
80004bc4: ef 20 10 2f  	jal	0x800076b4 <__floatsidf>
80004bc8: 6f f0 9f fb  	j	0x80004b80 <__rem_pio2_large+0xf0>
80004bcc: 23 2e 81 01  	sw	s8, 0x1c(sp)
80004bd0: 13 0c 8c fe  	addi	s8, s8, -0x18
80004bd4: 23 2a 81 03  	sw	s8, 0x34(sp)
80004bd8: 0b 30 04 00  	vx_join	s0
80004bdc: 93 0b 00 00  	li	s7, 0x0
80004be0: 83 25 41 02  	lw	a1, 0x24(sp)
80004be4: 33 25 b0 00  	sgtz	a0, a1
80004be8: b3 d9 a5 0e  	czero.eqz	s3, a1, a0
80004bec: 93 1a 3a 00  	slli	s5, s4, 0x3
80004bf0: 13 05 81 18  	addi	a0, sp, 0x188
80004bf4: 33 85 aa 00  	add	a0, s5, a0
80004bf8: 13 0d 85 ff  	addi	s10, a0, -0x8
80004bfc: 03 25 c1 03  	lw	a0, 0x3c(sp)
80004c00: b3 0a 55 01  	add	s5, a0, s5
80004c04: f3 2c 40 cc  	csrr	s9, tmask
80004c08: 6f 00 40 03  	j	0x80004c3c <__rem_pio2_large+0x1ac>
80004c0c: 0b 30 04 00  	vx_join	s0
80004c10: 13 95 3b 00  	slli	a0, s7, 0x3
80004c14: 93 05 81 04  	addi	a1, sp, 0x48
80004c18: 33 85 a5 00  	add	a0, a1, a0
80004c1c: 23 22 65 01  	sw	s6, 0x4(a0)
80004c20: 23 20 25 01  	sw	s2, 0x0(a0)
80004c24: 33 c5 3b 01  	xor	a0, s7, s3
80004c28: 93 8b 1b 00  	addi	s7, s7, 0x1
80004c2c: 13 0d 8d 00  	addi	s10, s10, 0x8
80004c30: 13 35 15 00  	seqz	a0, a0
80004c34: 8b 50 95 01  	vx_pred_n	a0, s9
80004c38: 63 18 05 06  	bnez	a0, 0x80004ca8 <__rem_pio2_large+0x218>
80004c3c: 13 09 00 00  	li	s2, 0x0
80004c40: 13 0b 00 00  	li	s6, 0x0
80004c44: 33 25 40 01  	sgtz	a0, s4
80004c48: 0b 24 15 00  	vx_split_n	s0, a0
80004c4c: e3 00 05 fc  	beqz	a0, 0x80004c0c <__rem_pio2_large+0x17c>
80004c50: 13 09 00 00  	li	s2, 0x0
80004c54: 13 0b 00 00  	li	s6, 0x0
80004c58: f3 24 40 cc  	csrr	s1, tmask
80004c5c: 83 2d c1 03  	lw	s11, 0x3c(sp)
80004c60: 13 0c 0d 00  	mv	s8, s10
80004c64: 03 a5 0d 00  	lw	a0, 0x0(s11)
80004c68: 83 a5 4d 00  	lw	a1, 0x4(s11)
80004c6c: 03 26 0c 00  	lw	a2, 0x0(s8)
80004c70: 83 26 4c 00  	lw	a3, 0x4(s8)
80004c74: ef 20 10 43  	jal	0x800078a4 <__muldf3>
80004c78: 13 06 09 00  	mv	a2, s2
80004c7c: 93 06 0b 00  	mv	a3, s6
80004c80: ef 10 40 02  	jal	0x80005ca4 <__adddf3>
80004c84: 13 09 05 00  	mv	s2, a0
80004c88: 13 8b 05 00  	mv	s6, a1
80004c8c: 13 0c 8c ff  	addi	s8, s8, -0x8
80004c90: 93 8d 8d 00  	addi	s11, s11, 0x8
80004c94: 33 c5 5d 01  	xor	a0, s11, s5
80004c98: 13 35 15 00  	seqz	a0, a0
80004c9c: 8b 50 95 00  	vx_pred_n	a0, s1
80004ca0: e3 02 05 fc  	beqz	a0, 0x80004c64 <__rem_pio2_large+0x1d4>
80004ca4: 6f f0 9f f6  	j	0x80004c0c <__rem_pio2_large+0x17c>
80004ca8: 13 05 00 03  	li	a0, 0x30
80004cac: 83 25 c1 01  	lw	a1, 0x1c(sp)
80004cb0: 33 05 b5 40  	sub	a0, a0, a1
80004cb4: 23 2c a1 00  	sw	a0, 0x18(sp)
80004cb8: 13 05 f0 02  	li	a0, 0x2f
80004cbc: 33 05 b5 40  	sub	a0, a0, a1
80004cc0: 23 2a a1 00  	sw	a0, 0x14(sp)
80004cc4: 93 05 81 22  	addi	a1, sp, 0x228
80004cc8: 83 29 41 02  	lw	s3, 0x24(sp)
80004ccc: 13 95 29 00  	slli	a0, s3, 0x2
80004cd0: 33 85 a5 00  	add	a0, a1, a0
80004cd4: 23 28 a1 00  	sw	a0, 0x10(sp)
80004cd8: 73 25 40 cc  	csrr	a0, tmask
80004cdc: 23 26 a1 02  	sw	a0, 0x2c(sp)
80004ce0: 37 05 00 01  	lui	a0, 0x1000
80004ce4: 93 04 f5 ff  	addi	s1, a0, -0x1
80004ce8: 37 05 40 00  	lui	a0, 0x400
80004cec: 13 05 f5 ff  	addi	a0, a0, -0x1
80004cf0: 23 26 a1 00  	sw	a0, 0xc(sp)
80004cf4: 37 05 80 00  	lui	a0, 0x800
80004cf8: 13 05 f5 ff  	addi	a0, a0, -0x1
80004cfc: 23 24 a1 00  	sw	a0, 0x8(sp)
80004d00: 93 8d 09 00  	mv	s11, s3
80004d04: 23 24 91 02  	sw	s1, 0x28(sp)
80004d08: 6f 00 40 03  	j	0x80004d3c <__rem_pio2_large+0x2ac>
80004d0c: 13 05 00 00  	li	a0, 0x0
80004d10: 83 29 41 02  	lw	s3, 0x24(sp)
80004d14: 03 28 81 03  	lw	a6, 0x38(sp)
80004d18: 03 26 01 02  	lw	a2, 0x20(sp)
80004d1c: 0b 30 06 00  	vx_join	a2
80004d20: 93 05 00 00  	li	a1, 0x0
80004d24: 0b 30 08 00  	vx_join	a6
80004d28: 13 84 0d 00  	mv	s0, s11
80004d2c: 03 26 c1 02  	lw	a2, 0x2c(sp)
80004d30: 8b 50 c5 00  	vx_pred_n	a0, a2
80004d34: 93 8d 0c 00  	mv	s11, s9
80004d38: 63 12 05 50  	bnez	a0, 0x8000523c <__rem_pio2_large+0x7ac>
80004d3c: 13 9d 3d 00  	slli	s10, s11, 0x3
80004d40: 13 05 81 04  	addi	a0, sp, 0x48
80004d44: 33 05 a5 01  	add	a0, a0, s10
80004d48: 03 29 45 00  	lw	s2, 0x4(a0)
80004d4c: 03 2b 05 00  	lw	s6, 0x0(a0)
80004d50: 33 25 b0 01  	sgtz	a0, s11
80004d54: 8b 25 15 00  	vx_split_n	a1, a0
80004d58: 23 28 b1 02  	sw	a1, 0x30(sp)
80004d5c: 93 95 2d 00  	slli	a1, s11, 0x2
80004d60: 23 2c b1 02  	sw	a1, 0x38(sp)
80004d64: 63 00 05 0a  	beqz	a0, 0x80004e04 <__rem_pio2_large+0x374>
80004d68: 13 05 01 04  	addi	a0, sp, 0x40
80004d6c: 33 0d a5 01  	add	s10, a0, s10
80004d70: 93 04 c1 22  	addi	s1, sp, 0x22c
80004d74: 03 24 81 03  	lw	s0, 0x38(sp)
80004d78: 33 84 84 00  	add	s0, s1, s0
80004d7c: f3 2c 40 cc  	csrr	s9, tmask
80004d80: b7 05 70 3e  	lui	a1, 0x3e700
80004d84: 13 05 00 00  	li	a0, 0x0
80004d88: 13 06 0b 00  	mv	a2, s6
80004d8c: 93 06 09 00  	mv	a3, s2
80004d90: ef 20 50 31  	jal	0x800078a4 <__muldf3>
80004d94: ef 20 c0 7a  	jal	0x80007540 <__fixdfsi>
80004d98: ef 20 d0 11  	jal	0x800076b4 <__floatsidf>
80004d9c: 93 0b 05 00  	mv	s7, a0
80004da0: 13 8c 05 00  	mv	s8, a1
80004da4: b7 05 70 c1  	lui	a1, 0xc1700
80004da8: 13 05 00 00  	li	a0, 0x0
80004dac: 13 86 0b 00  	mv	a2, s7
80004db0: 93 06 0c 00  	mv	a3, s8
80004db4: ef 20 10 2f  	jal	0x800078a4 <__muldf3>
80004db8: 13 06 0b 00  	mv	a2, s6
80004dbc: 93 06 09 00  	mv	a3, s2
80004dc0: ef 00 50 6e  	jal	0x80005ca4 <__adddf3>
80004dc4: ef 20 c0 77  	jal	0x80007540 <__fixdfsi>
80004dc8: 03 26 0d 00  	lw	a2, 0x0(s10)
80004dcc: 83 25 4d 00  	lw	a1, 0x4(s10)
80004dd0: 23 a0 a4 00  	sw	a0, 0x0(s1)
80004dd4: 13 05 06 00  	mv	a0, a2
80004dd8: 13 86 0b 00  	mv	a2, s7
80004ddc: 93 06 0c 00  	mv	a3, s8
80004de0: ef 00 50 6c  	jal	0x80005ca4 <__adddf3>
80004de4: 13 0b 05 00  	mv	s6, a0
80004de8: 13 89 05 00  	mv	s2, a1
80004dec: 13 0d 8d ff  	addi	s10, s10, -0x8
80004df0: 93 84 44 00  	addi	s1, s1, 0x4
80004df4: 33 c5 84 00  	xor	a0, s1, s0
80004df8: 13 35 15 00  	seqz	a0, a0
80004dfc: 8b 50 95 01  	vx_pred_n	a0, s9
80004e00: e3 00 05 f8  	beqz	a0, 0x80004d80 <__rem_pio2_large+0x2f0>
80004e04: 03 25 01 03  	lw	a0, 0x30(sp)
80004e08: 0b 30 05 00  	vx_join	a0
80004e0c: 03 26 41 03  	lw	a2, 0x34(sp)
80004e10: 13 24 16 00  	slti	s0, a2, 0x1
80004e14: 13 05 0b 00  	mv	a0, s6
80004e18: 93 05 09 00  	mv	a1, s2
80004e1c: ef 00 d0 53  	jal	0x80005b58 <scalbn>
80004e20: 13 09 05 00  	mv	s2, a0
80004e24: 13 8b 05 00  	mv	s6, a1
80004e28: b7 06 c0 3f  	lui	a3, 0x3fc00
80004e2c: 13 06 00 00  	li	a2, 0x0
80004e30: ef 20 50 27  	jal	0x800078a4 <__muldf3>
80004e34: ef 00 10 34  	jal	0x80005974 <floor>
80004e38: 13 06 05 00  	mv	a2, a0
80004e3c: 93 86 05 00  	mv	a3, a1
80004e40: b7 05 20 c0  	lui	a1, 0xc0200
80004e44: 13 05 00 00  	li	a0, 0x0
80004e48: ef 20 d0 25  	jal	0x800078a4 <__muldf3>
80004e4c: 13 06 09 00  	mv	a2, s2
80004e50: 93 06 0b 00  	mv	a3, s6
80004e54: ef 00 10 65  	jal	0x80005ca4 <__adddf3>
80004e58: 13 0b 05 00  	mv	s6, a0
80004e5c: 93 8b 05 00  	mv	s7, a1
80004e60: ef 20 00 6e  	jal	0x80007540 <__fixdfsi>
80004e64: 13 0d 05 00  	mv	s10, a0
80004e68: ef 20 d0 04  	jal	0x800076b4 <__floatsidf>
80004e6c: 13 06 05 00  	mv	a2, a0
80004e70: 93 86 05 00  	mv	a3, a1
80004e74: 13 05 0b 00  	mv	a0, s6
80004e78: 93 85 0b 00  	mv	a1, s7
80004e7c: ef 30 40 31  	jal	0x80008190 <__subdf3>
80004e80: 13 0b 05 00  	mv	s6, a0
80004e84: 93 8b 05 00  	mv	s7, a1
80004e88: 8b 24 14 00  	vx_split_n	s1, s0
80004e8c: 93 05 10 00  	li	a1, 0x1
80004e90: 63 02 04 06  	beqz	s0, 0x80004ef4 <__rem_pio2_large+0x464>
80004e94: 03 25 41 03  	lw	a0, 0x34(sp)
80004e98: 33 35 a0 00  	snez	a0, a0
80004e9c: 0b 24 15 00  	vx_split_n	s0, a0
80004ea0: 93 05 10 00  	li	a1, 0x1
80004ea4: 63 04 05 02  	beqz	a0, 0x80004ecc <__rem_pio2_large+0x43c>
80004ea8: b7 06 e0 3f  	lui	a3, 0x3fe00
80004eac: 13 05 0b 00  	mv	a0, s6
80004eb0: 93 85 0b 00  	mv	a1, s7
80004eb4: 13 06 00 00  	li	a2, 0x0
80004eb8: ef 10 50 22  	jal	0x800068dc <__gtdf2>
80004ebc: 93 05 00 00  	li	a1, 0x0
80004ec0: 13 25 05 00  	slti	a0, a0, 0x0
80004ec4: 13 45 15 00  	xori	a0, a0, 0x1
80004ec8: 93 1c 15 00  	slli	s9, a0, 0x1
80004ecc: 0b 30 04 00  	vx_join	s0
80004ed0: 0b a5 15 00  	vx_split_n	a0, a1
80004ed4: 63 8c 05 00  	beqz	a1, 0x80004eec <__rem_pio2_large+0x45c>
80004ed8: 93 05 c1 22  	addi	a1, sp, 0x22c
80004edc: 03 26 81 03  	lw	a2, 0x38(sp)
80004ee0: b3 05 b6 00  	add	a1, a2, a1
80004ee4: 83 a5 c5 ff  	lw	a1, -0x4(a1)
80004ee8: 93 dc 75 41  	srai	s9, a1, 0x17
80004eec: 0b 30 05 00  	vx_join	a0
80004ef0: 93 05 00 00  	li	a1, 0x0
80004ef4: 0b b0 04 00  	vx_join	s1
80004ef8: 0b a5 15 00  	vx_split_n	a0, a1
80004efc: 83 24 81 02  	lw	s1, 0x28(sp)
80004f00: 63 8a 05 02  	beqz	a1, 0x80004f34 <__rem_pio2_large+0x4a4>
80004f04: 93 05 c1 22  	addi	a1, sp, 0x22c
80004f08: 03 26 81 03  	lw	a2, 0x38(sp)
80004f0c: b3 05 b6 00  	add	a1, a2, a1
80004f10: 03 a6 c5 ff  	lw	a2, -0x4(a1)
80004f14: 03 27 81 01  	lw	a4, 0x18(sp)
80004f18: b3 56 e6 40  	sra	a3, a2, a4
80004f1c: 33 8d a6 01  	add	s10, a3, s10
80004f20: b3 96 e6 00  	sll	a3, a3, a4
80004f24: 33 06 d6 40  	sub	a2, a2, a3
80004f28: 23 ae c5 fe  	sw	a2, -0x4(a1)
80004f2c: 83 25 41 01  	lw	a1, 0x14(sp)
80004f30: b3 5c b6 40  	sra	s9, a2, a1
80004f34: 0b 30 05 00  	vx_join	a0
80004f38: 33 25 90 01  	sgtz	a0, s9
80004f3c: 0b 2c 15 00  	vx_split_n	s8, a0
80004f40: 63 0c 05 14  	beqz	a0, 0x80005098 <__rem_pio2_large+0x608>
80004f44: 13 09 00 00  	li	s2, 0x0
80004f48: b3 25 b0 01  	sgtz	a1, s11
80004f4c: 0b a5 15 00  	vx_split_n	a0, a1
80004f50: 63 8a 05 04  	beqz	a1, 0x80004fa4 <__rem_pio2_large+0x514>
80004f54: 13 09 00 00  	li	s2, 0x0
80004f58: 93 05 c1 22  	addi	a1, sp, 0x22c
80004f5c: 03 26 81 03  	lw	a2, 0x38(sp)
80004f60: 33 86 c5 00  	add	a2, a1, a2
80004f64: f3 26 40 cc  	csrr	a3, tmask
80004f68: 6f 00 40 02  	j	0x80004f8c <__rem_pio2_large+0x4fc>
80004f6c: b3 87 e7 40  	sub	a5, a5, a4
80004f70: 23 a0 f5 00  	sw	a5, 0x0(a1)
80004f74: 13 09 10 00  	li	s2, 0x1
80004f78: 93 85 45 00  	addi	a1, a1, 0x4
80004f7c: 33 c7 c5 00  	xor	a4, a1, a2
80004f80: 13 37 17 00  	seqz	a4, a4
80004f84: 8b 50 d7 00  	vx_pred_n	a4, a3
80004f88: 63 1e 07 00  	bnez	a4, 0x80004fa4 <__rem_pio2_large+0x514>
80004f8c: 03 a7 05 00  	lw	a4, 0x0(a1)
80004f90: 93 87 04 00  	mv	a5, s1
80004f94: e3 1c 09 fc  	bnez	s2, 0x80004f6c <__rem_pio2_large+0x4dc>
80004f98: b7 07 00 01  	lui	a5, 0x1000
80004f9c: e3 18 07 fc  	bnez	a4, 0x80004f6c <__rem_pio2_large+0x4dc>
80004fa0: 6f f0 9f fd  	j	0x80004f78 <__rem_pio2_large+0x4e8>
80004fa4: 13 0d 1d 00  	addi	s10, s10, 0x1
80004fa8: 0b 30 05 00  	vx_join	a0
80004fac: 03 25 41 03  	lw	a0, 0x34(sp)
80004fb0: b3 25 a0 00  	sgtz	a1, a0
80004fb4: 0b a5 15 00  	vx_split_n	a0, a1
80004fb8: 63 8a 05 06  	beqz	a1, 0x8000502c <__rem_pio2_large+0x59c>
80004fbc: 93 05 00 00  	li	a1, 0x0
80004fc0: 03 28 c1 01  	lw	a6, 0x1c(sp)
80004fc4: 13 26 a8 01  	slti	a2, a6, 0x1a
80004fc8: 93 47 16 00  	xori	a5, a2, 0x1
80004fcc: 8b a6 17 00  	vx_split_n	a3, a5
80004fd0: 13 07 10 00  	li	a4, 0x1
80004fd4: 63 8a 07 00  	beqz	a5, 0x80004fe8 <__rem_pio2_large+0x558>
80004fd8: 13 07 00 00  	li	a4, 0x0
80004fdc: 93 05 68 fe  	addi	a1, a6, -0x1a
80004fe0: 93 b5 15 00  	seqz	a1, a1
80004fe4: 03 26 c1 00  	lw	a2, 0xc(sp)
80004fe8: 0b b0 06 00  	vx_join	a3
80004fec: 8b 26 17 00  	vx_split_n	a3, a4
80004ff0: 63 0a 07 00  	beqz	a4, 0x80005004 <__rem_pio2_large+0x574>
80004ff4: 83 25 c1 01  	lw	a1, 0x1c(sp)
80004ff8: 93 85 75 fe  	addi	a1, a1, -0x19
80004ffc: 93 b5 15 00  	seqz	a1, a1
80005000: 03 26 81 00  	lw	a2, 0x8(sp)
80005004: 0b b0 06 00  	vx_join	a3
80005008: 8b a6 15 00  	vx_split_n	a3, a1
8000500c: 63 8e 05 00  	beqz	a1, 0x80005028 <__rem_pio2_large+0x598>
80005010: 93 05 c1 22  	addi	a1, sp, 0x22c
80005014: 03 27 81 03  	lw	a4, 0x38(sp)
80005018: b3 05 b7 00  	add	a1, a4, a1
8000501c: 03 a7 c5 ff  	lw	a4, -0x4(a1)
80005020: 33 76 c7 00  	and	a2, a4, a2
80005024: 23 ae c5 fe  	sw	a2, -0x4(a1)
80005028: 0b b0 06 00  	vx_join	a3
8000502c: 0b 30 05 00  	vx_join	a0
80005030: 13 85 ec ff  	addi	a0, s9, -0x2
80005034: 13 35 15 00  	seqz	a0, a0
80005038: 0b 24 15 00  	vx_split_n	s0, a0
8000503c: 63 0c 05 04  	beqz	a0, 0x80005094 <__rem_pio2_large+0x604>
80005040: b7 05 f0 3f  	lui	a1, 0x3ff00
80005044: 13 05 00 00  	li	a0, 0x0
80005048: 13 06 0b 00  	mv	a2, s6
8000504c: 93 86 0b 00  	mv	a3, s7
80005050: ef 30 00 14  	jal	0x80008190 <__subdf3>
80005054: 13 0b 05 00  	mv	s6, a0
80005058: 93 8b 05 00  	mv	s7, a1
8000505c: 8b 24 19 00  	vx_split_n	s1, s2
80005060: 63 08 09 02  	beqz	s2, 0x80005090 <__rem_pio2_large+0x600>
80005064: b7 05 f0 3f  	lui	a1, 0x3ff00
80005068: 13 05 00 00  	li	a0, 0x0
8000506c: 03 26 41 03  	lw	a2, 0x34(sp)
80005070: ef 00 90 2e  	jal	0x80005b58 <scalbn>
80005074: 13 06 05 00  	mv	a2, a0
80005078: 93 86 05 00  	mv	a3, a1
8000507c: 13 05 0b 00  	mv	a0, s6
80005080: 93 85 0b 00  	mv	a1, s7
80005084: ef 30 c0 10  	jal	0x80008190 <__subdf3>
80005088: 13 0b 05 00  	mv	s6, a0
8000508c: 93 8b 05 00  	mv	s7, a1
80005090: 0b b0 04 00  	vx_join	s1
80005094: 0b 30 04 00  	vx_join	s0
80005098: 23 28 91 03  	sw	s9, 0x30(sp)
8000509c: 0b 30 0c 00  	vx_join	s8
800050a0: 13 05 0b 00  	mv	a0, s6
800050a4: 93 85 0b 00  	mv	a1, s7
800050a8: 13 06 00 00  	li	a2, 0x0
800050ac: 93 06 00 00  	li	a3, 0x0
800050b0: ef 10 40 73  	jal	0x800067e4 <__nedf2>
800050b4: 13 36 15 00  	seqz	a2, a0
800050b8: 0b 28 16 00  	vx_split_n	a6, a2
800050bc: 13 05 10 00  	li	a0, 0x1
800050c0: 93 05 10 00  	li	a1, 0x1
800050c4: e3 00 06 c6  	beqz	a2, 0x80004d24 <__rem_pio2_large+0x294>
800050c8: 93 05 00 00  	li	a1, 0x0
800050cc: 33 a6 b9 01  	slt	a2, s3, s11
800050d0: 0b 25 16 00  	vx_split_n	a0, a2
800050d4: 63 0e 06 02  	beqz	a2, 0x80005110 <__rem_pio2_large+0x680>
800050d8: 93 05 00 00  	li	a1, 0x0
800050dc: 13 06 81 22  	addi	a2, sp, 0x228
800050e0: 83 26 81 03  	lw	a3, 0x38(sp)
800050e4: 33 06 d6 00  	add	a2, a2, a3
800050e8: f3 26 40 cc  	csrr	a3, tmask
800050ec: 13 87 0d 00  	mv	a4, s11
800050f0: 83 27 06 00  	lw	a5, 0x0(a2)
800050f4: 13 07 f7 ff  	addi	a4, a4, -0x1
800050f8: b3 e5 b7 00  	or	a1, a5, a1
800050fc: 13 06 c6 ff  	addi	a2, a2, -0x4
80005100: b3 a7 e9 00  	slt	a5, s3, a4
80005104: 93 c7 17 00  	xori	a5, a5, 0x1
80005108: 8b d0 d7 00  	vx_pred_n	a5, a3
8000510c: e3 82 07 fe  	beqz	a5, 0x800050f0 <__rem_pio2_large+0x660>
80005110: 0b 30 05 00  	vx_join	a0
80005114: 93 b5 15 00  	seqz	a1, a1
80005118: 0b a6 15 00  	vx_split_n	a2, a1
8000511c: 13 05 10 00  	li	a0, 0x1
80005120: e3 8e 05 be  	beqz	a1, 0x80004d1c <__rem_pio2_large+0x28c>
80005124: 23 20 c1 02  	sw	a2, 0x20(sp)
80005128: 23 2c 01 03  	sw	a6, 0x38(sp)
8000512c: 73 25 40 cc  	csrr	a0, tmask
80005130: 83 25 01 01  	lw	a1, 0x10(sp)
80005134: 93 8c 0d 00  	mv	s9, s11
80005138: 03 a6 05 00  	lw	a2, 0x0(a1)
8000513c: 33 36 c0 00  	snez	a2, a2
80005140: 93 8c 1c 00  	addi	s9, s9, 0x1
80005144: 93 85 c5 ff  	addi	a1, a1, -0x4
80005148: 8b 50 a6 00  	vx_pred_n	a2, a0
8000514c: e3 06 06 fe  	beqz	a2, 0x80005138 <__rem_pio2_large+0x6a8>
80005150: 33 05 ba 01  	add	a0, s4, s11
80005154: 13 15 35 00  	slli	a0, a0, 0x3
80005158: 93 09 81 18  	addi	s3, sp, 0x188
8000515c: b3 89 a9 00  	add	s3, s3, a0
80005160: 73 2c 40 cc  	csrr	s8, tmask
80005164: 6f 00 00 03  	j	0x80005194 <__rem_pio2_large+0x704>
80005168: 0b 30 04 00  	vx_join	s0
8000516c: 13 95 3d 00  	slli	a0, s11, 0x3
80005170: 93 05 81 04  	addi	a1, sp, 0x48
80005174: 33 85 a5 00  	add	a0, a1, a0
80005178: 23 22 65 01  	sw	s6, 0x4(a0)
8000517c: 23 20 25 01  	sw	s2, 0x0(a0)
80005180: 93 89 89 00  	addi	s3, s3, 0x8
80005184: 33 a5 9d 01  	slt	a0, s11, s9
80005188: 13 45 15 00  	xori	a0, a0, 0x1
8000518c: 8b 50 85 01  	vx_pred_n	a0, s8
80005190: e3 1e 05 b6  	bnez	a0, 0x80004d0c <__rem_pio2_large+0x27c>
80005194: 13 84 0d 00  	mv	s0, s11
80005198: 93 8d 1d 00  	addi	s11, s11, 0x1
8000519c: 03 25 41 04  	lw	a0, 0x44(sp)
800051a0: 33 85 ad 00  	add	a0, s11, a0
800051a4: 13 15 25 00  	slli	a0, a0, 0x2
800051a8: 83 25 01 04  	lw	a1, 0x40(sp)
800051ac: 33 85 a5 00  	add	a0, a1, a0
800051b0: 03 25 05 00  	lw	a0, 0x0(a0)
800051b4: b3 24 40 01  	sgtz	s1, s4
800051b8: ef 20 c0 4f  	jal	0x800076b4 <__floatsidf>
800051bc: 13 09 00 00  	li	s2, 0x0
800051c0: 13 0b 00 00  	li	s6, 0x0
800051c4: 33 04 44 01  	add	s0, s0, s4
800051c8: 13 14 34 00  	slli	s0, s0, 0x3
800051cc: 13 06 81 18  	addi	a2, sp, 0x188
800051d0: 33 04 86 00  	add	s0, a2, s0
800051d4: 23 22 b4 00  	sw	a1, 0x4(s0)
800051d8: 23 20 a4 00  	sw	a0, 0x0(s0)
800051dc: 0b a4 14 00  	vx_split_n	s0, s1
800051e0: e3 84 04 f8  	beqz	s1, 0x80005168 <__rem_pio2_large+0x6d8>
800051e4: 13 09 00 00  	li	s2, 0x0
800051e8: 13 0b 00 00  	li	s6, 0x0
800051ec: f3 24 40 cc  	csrr	s1, tmask
800051f0: 03 2d c1 03  	lw	s10, 0x3c(sp)
800051f4: 93 8b 09 00  	mv	s7, s3
800051f8: 03 25 0d 00  	lw	a0, 0x0(s10)
800051fc: 83 25 4d 00  	lw	a1, 0x4(s10)
80005200: 03 a6 0b 00  	lw	a2, 0x0(s7)
80005204: 83 a6 4b 00  	lw	a3, 0x4(s7)
80005208: ef 20 c0 69  	jal	0x800078a4 <__muldf3>
8000520c: 13 06 09 00  	mv	a2, s2
80005210: 93 06 0b 00  	mv	a3, s6
80005214: ef 00 10 29  	jal	0x80005ca4 <__adddf3>
80005218: 13 09 05 00  	mv	s2, a0
8000521c: 13 8b 05 00  	mv	s6, a1
80005220: 93 8b 8b ff  	addi	s7, s7, -0x8
80005224: 13 0d 8d 00  	addi	s10, s10, 0x8
80005228: 33 45 5d 01  	xor	a0, s10, s5
8000522c: 13 35 15 00  	seqz	a0, a0
80005230: 8b 50 95 00  	vx_pred_n	a0, s1
80005234: e3 02 05 fc  	beqz	a0, 0x800051f8 <__rem_pio2_large+0x768>
80005238: 6f f0 1f f3  	j	0x80005168 <__rem_pio2_large+0x6d8>
8000523c: 93 c6 15 00  	xori	a3, a1, 0x1
80005240: 0b a5 16 00  	vx_split_n	a0, a3
80005244: 93 05 10 00  	li	a1, 0x1
80005248: 93 14 24 00  	slli	s1, s0, 0x2
8000524c: 03 2c 01 03  	lw	s8, 0x30(sp)
80005250: 83 2c c1 01  	lw	s9, 0x1c(sp)
80005254: 63 8e 06 02  	beqz	a3, 0x80005290 <__rem_pio2_large+0x800>
80005258: 93 05 c1 22  	addi	a1, sp, 0x22c
8000525c: b3 85 95 00  	add	a1, a1, s1
80005260: 93 85 c5 ff  	addi	a1, a1, -0x4
80005264: f3 26 40 cc  	csrr	a3, tmask
80005268: 13 09 04 00  	mv	s2, s0
8000526c: 03 26 41 03  	lw	a2, 0x34(sp)
80005270: 03 a7 05 00  	lw	a4, 0x0(a1)
80005274: 13 06 86 fe  	addi	a2, a2, -0x18
80005278: 13 09 f9 ff  	addi	s2, s2, -0x1
8000527c: 33 37 e0 00  	snez	a4, a4
80005280: 93 85 c5 ff  	addi	a1, a1, -0x4
80005284: 8b 50 d7 00  	vx_pred_n	a4, a3
80005288: e3 04 07 fe  	beqz	a4, 0x80005270 <__rem_pio2_large+0x7e0>
8000528c: 93 05 00 00  	li	a1, 0x0
80005290: 0b 30 05 00  	vx_join	a0
80005294: 8b a9 15 00  	vx_split_n	s3, a1
80005298: 63 84 05 0c  	beqz	a1, 0x80005360 <__rem_pio2_large+0x8d0>
8000529c: 13 05 80 01  	li	a0, 0x18
800052a0: 33 06 95 41  	sub	a2, a0, s9
800052a4: 13 05 0b 00  	mv	a0, s6
800052a8: 93 85 0b 00  	mv	a1, s7
800052ac: ef 00 d0 0a  	jal	0x80005b58 <scalbn>
800052b0: 13 0a 05 00  	mv	s4, a0
800052b4: 93 8a 05 00  	mv	s5, a1
800052b8: b7 06 70 41  	lui	a3, 0x41700
800052bc: 13 06 00 00  	li	a2, 0x0
800052c0: ef 10 c0 61  	jal	0x800068dc <__gtdf2>
800052c4: 13 25 05 00  	slti	a0, a0, 0x0
800052c8: 13 45 15 00  	xori	a0, a0, 0x1
800052cc: 0b 29 15 00  	vx_split_n	s2, a0
800052d0: 63 04 05 06  	beqz	a0, 0x80005338 <__rem_pio2_large+0x8a8>
800052d4: b7 05 70 3e  	lui	a1, 0x3e700
800052d8: 13 05 00 00  	li	a0, 0x0
800052dc: 13 06 0a 00  	mv	a2, s4
800052e0: 93 86 0a 00  	mv	a3, s5
800052e4: ef 20 00 5c  	jal	0x800078a4 <__muldf3>
800052e8: ef 20 80 25  	jal	0x80007540 <__fixdfsi>
800052ec: ef 20 80 3c  	jal	0x800076b4 <__floatsidf>
800052f0: 13 0b 05 00  	mv	s6, a0
800052f4: 93 8b 05 00  	mv	s7, a1
800052f8: b7 05 70 c1  	lui	a1, 0xc1700
800052fc: 13 05 00 00  	li	a0, 0x0
80005300: 13 06 0b 00  	mv	a2, s6
80005304: 93 86 0b 00  	mv	a3, s7
80005308: ef 20 c0 59  	jal	0x800078a4 <__muldf3>
8000530c: 13 06 0a 00  	mv	a2, s4
80005310: 93 86 0a 00  	mv	a3, s5
80005314: ef 00 10 19  	jal	0x80005ca4 <__adddf3>
80005318: ef 20 80 22  	jal	0x80007540 <__fixdfsi>
8000531c: 93 05 c1 22  	addi	a1, sp, 0x22c
80005320: b3 85 95 00  	add	a1, a1, s1
80005324: 23 a0 a5 00  	sw	a0, 0x0(a1)
80005328: 13 04 14 00  	addi	s0, s0, 0x1
8000532c: 23 2a 91 03  	sw	s9, 0x34(sp)
80005330: 13 0a 0b 00  	mv	s4, s6
80005334: 93 8a 0b 00  	mv	s5, s7
80005338: 0b 30 09 00  	vx_join	s2
8000533c: 13 05 0a 00  	mv	a0, s4
80005340: 93 85 0a 00  	mv	a1, s5
80005344: ef 20 c0 1f  	jal	0x80007540 <__fixdfsi>
80005348: 93 15 24 00  	slli	a1, s0, 0x2
8000534c: 13 06 c1 22  	addi	a2, sp, 0x22c
80005350: b3 05 b6 00  	add	a1, a2, a1
80005354: 23 a0 a5 00  	sw	a0, 0x0(a1)
80005358: 13 09 04 00  	mv	s2, s0
8000535c: 03 26 41 03  	lw	a2, 0x34(sp)
80005360: 0b b0 09 00  	vx_join	s3
80005364: b7 05 f0 3f  	lui	a1, 0x3ff00
80005368: 13 05 00 00  	li	a0, 0x0
8000536c: ef 00 c0 7e  	jal	0x80005b58 <scalbn>
80005370: 93 09 05 00  	mv	s3, a0
80005374: 13 45 f9 ff  	not	a0, s2
80005378: 93 5a f5 01  	srli	s5, a0, 0x1f
8000537c: 0b a5 1a 00  	vx_split_n	a0, s5
80005380: 63 86 0a 18  	beqz	s5, 0x8000550c <__rem_pio2_large+0xa7c>
80005384: 13 8a 05 00  	mv	s4, a1
80005388: 23 2e a1 02  	sw	a0, 0x3c(sp)
8000538c: 23 20 a1 05  	sw	s10, 0x40(sp)
80005390: 13 04 19 00  	addi	s0, s2, 0x1
80005394: 13 1b 39 00  	slli	s6, s2, 0x3
80005398: 93 0b 81 04  	addi	s7, sp, 0x48
8000539c: b3 8b 6b 01  	add	s7, s7, s6
800053a0: 13 1c 29 00  	slli	s8, s2, 0x2
800053a4: 13 05 c1 22  	addi	a0, sp, 0x22c
800053a8: 33 0c 85 01  	add	s8, a0, s8
800053ac: f3 2c 40 cc  	csrr	s9, tmask
800053b0: 03 25 0c 00  	lw	a0, 0x0(s8)
800053b4: ef 20 00 30  	jal	0x800076b4 <__floatsidf>
800053b8: 13 06 05 00  	mv	a2, a0
800053bc: 93 86 05 00  	mv	a3, a1
800053c0: 13 85 09 00  	mv	a0, s3
800053c4: 93 05 0a 00  	mv	a1, s4
800053c8: ef 20 c0 4d  	jal	0x800078a4 <__muldf3>
800053cc: 23 a2 bb 00  	sw	a1, 0x4(s7)
800053d0: 23 a0 ab 00  	sw	a0, 0x0(s7)
800053d4: b7 06 70 3e  	lui	a3, 0x3e700
800053d8: 13 85 09 00  	mv	a0, s3
800053dc: 93 05 0a 00  	mv	a1, s4
800053e0: 13 06 00 00  	li	a2, 0x0
800053e4: ef 20 00 4c  	jal	0x800078a4 <__muldf3>
800053e8: 93 09 05 00  	mv	s3, a0
800053ec: 13 8a 05 00  	mv	s4, a1
800053f0: 13 04 f4 ff  	addi	s0, s0, -0x1
800053f4: 93 8b 8b ff  	addi	s7, s7, -0x8
800053f8: 13 0c cc ff  	addi	s8, s8, -0x4
800053fc: 13 35 14 00  	seqz	a0, s0
80005400: 8b 50 95 01  	vx_pred_n	a0, s9
80005404: e3 06 05 fa  	beqz	a0, 0x800053b0 <__rem_pio2_large+0x920>
80005408: 0b a5 1a 00  	vx_split_n	a0, s5
8000540c: 23 2c a1 02  	sw	a0, 0x38(sp)
80005410: 63 84 0a 0e  	beqz	s5, 0x800054f8 <__rem_pio2_large+0xa68>
80005414: 13 05 81 04  	addi	a0, sp, 0x48
80005418: 33 0b 65 01  	add	s6, a0, s6
8000541c: 73 25 40 cc  	csrr	a0, tmask
80005420: 23 22 a1 04  	sw	a0, 0x44(sp)
80005424: 17 45 00 00  	auipc	a0, 0x4
80005428: 13 0c 45 3f  	addi	s8, a0, 0x3f4
8000542c: 93 0c 09 00  	mv	s9, s2
80005430: 6f 00 40 03  	j	0x80005464 <__rem_pio2_large+0x9d4>
80005434: 0b b0 0d 00  	vx_join	s11
80005438: 13 1d 3d 00  	slli	s10, s10, 0x3
8000543c: 13 05 81 0e  	addi	a0, sp, 0xe8
80005440: 33 0d a5 01  	add	s10, a0, s10
80005444: 23 22 4d 01  	sw	s4, 0x4(s10)
80005448: 23 20 3d 01  	sw	s3, 0x0(s10)
8000544c: 13 a5 1c 00  	slti	a0, s9, 0x1
80005450: 93 8c fc ff  	addi	s9, s9, -0x1
80005454: 13 0b 8b ff  	addi	s6, s6, -0x8
80005458: 83 25 41 04  	lw	a1, 0x44(sp)
8000545c: 8b 50 b5 00  	vx_pred_n	a0, a1
80005460: 63 1c 05 08  	bnez	a0, 0x800054f8 <__rem_pio2_large+0xa68>
80005464: 93 09 00 00  	li	s3, 0x0
80005468: 13 0a 00 00  	li	s4, 0x0
8000546c: 33 0d 99 41  	sub	s10, s2, s9
80005470: 03 26 41 02  	lw	a2, 0x24(sp)
80005474: 33 25 a6 01  	slt	a0, a2, s10
80005478: b3 75 ad 0e  	czero.nez	a1, s10, a0
8000547c: 33 55 a6 0e  	czero.eqz	a0, a2, a0
80005480: 33 65 b5 00  	or	a0, a0, a1
80005484: 93 45 f5 ff  	not	a1, a0
80005488: 93 d5 f5 01  	srli	a1, a1, 0x1f
8000548c: 8b ad 15 00  	vx_split_n	s11, a1
80005490: e3 82 05 fa  	beqz	a1, 0x80005434 <__rem_pio2_large+0x9a4>
80005494: 93 09 00 00  	li	s3, 0x0
80005498: 13 0a 00 00  	li	s4, 0x0
8000549c: 13 15 35 00  	slli	a0, a0, 0x3
800054a0: 33 05 ac 00  	add	a0, s8, a0
800054a4: 13 04 85 00  	addi	s0, a0, 0x8
800054a8: f3 24 40 cc  	csrr	s1, tmask
800054ac: 93 0b 0c 00  	mv	s7, s8
800054b0: 93 0a 0b 00  	mv	s5, s6
800054b4: 03 a5 0b 00  	lw	a0, 0x0(s7)
800054b8: 83 a5 4b 00  	lw	a1, 0x4(s7)
800054bc: 03 a6 0a 00  	lw	a2, 0x0(s5)
800054c0: 83 a6 4a 00  	lw	a3, 0x4(s5)
800054c4: ef 20 00 3e  	jal	0x800078a4 <__muldf3>
800054c8: 13 86 09 00  	mv	a2, s3
800054cc: 93 06 0a 00  	mv	a3, s4
800054d0: ef 00 40 7d  	jal	0x80005ca4 <__adddf3>
800054d4: 93 09 05 00  	mv	s3, a0
800054d8: 13 8a 05 00  	mv	s4, a1
800054dc: 93 8a 8a 00  	addi	s5, s5, 0x8
800054e0: 93 8b 8b 00  	addi	s7, s7, 0x8
800054e4: 33 c5 8b 00  	xor	a0, s7, s0
800054e8: 13 35 15 00  	seqz	a0, a0
800054ec: 8b 50 95 00  	vx_pred_n	a0, s1
800054f0: e3 02 05 fc  	beqz	a0, 0x800054b4 <__rem_pio2_large+0xa24>
800054f4: 6f f0 1f f4  	j	0x80005434 <__rem_pio2_large+0x9a4>
800054f8: 03 25 81 03  	lw	a0, 0x38(sp)
800054fc: 0b 30 05 00  	vx_join	a0
80005500: 03 2d 01 04  	lw	s10, 0x40(sp)
80005504: 03 2c 01 03  	lw	s8, 0x30(sp)
80005508: 03 25 c1 03  	lw	a0, 0x3c(sp)
8000550c: 0b 30 05 00  	vx_join	a0
80005510: 03 26 41 00  	lw	a2, 0x4(sp)
80005514: b3 25 c0 00  	sgtz	a1, a2
80005518: 8b a4 15 00  	vx_split_n	s1, a1
8000551c: 13 05 10 00  	li	a0, 0x1
80005520: 63 82 05 38  	beqz	a1, 0x800058a4 <__rem_pio2_large+0xe14>
80005524: 13 25 36 00  	slti	a0, a2, 0x3
80005528: 93 45 15 00  	xori	a1, a0, 0x1
8000552c: 8b a6 15 00  	vx_split_n	a3, a1
80005530: 13 05 10 00  	li	a0, 0x1
80005534: 63 80 05 28  	beqz	a1, 0x800057b4 <__rem_pio2_large+0xd24>
80005538: 13 05 d6 ff  	addi	a0, a2, -0x3
8000553c: 13 35 15 00  	seqz	a0, a0
80005540: 8b 25 15 00  	vx_split_n	a1, a0
80005544: 63 04 05 26  	beqz	a0, 0x800057ac <__rem_pio2_large+0xd1c>
80005548: 23 2c b1 02  	sw	a1, 0x38(sp)
8000554c: 23 2e d1 02  	sw	a3, 0x3c(sp)
80005550: 23 20 a1 05  	sw	s10, 0x40(sp)
80005554: 33 25 20 01  	sgtz	a0, s2
80005558: 8b 2d 15 00  	vx_split_n	s11, a0
8000555c: 93 15 39 00  	slli	a1, s2, 0x3
80005560: 23 22 b1 04  	sw	a1, 0x44(sp)
80005564: 63 0e 05 08  	beqz	a0, 0x80005600 <__rem_pio2_large+0xb70>
80005568: 13 05 81 0e  	addi	a0, sp, 0xe8
8000556c: 83 25 41 04  	lw	a1, 0x44(sp)
80005570: 33 05 b5 00  	add	a0, a0, a1
80005574: 83 29 45 00  	lw	s3, 0x4(a0)
80005578: 03 2a 05 00  	lw	s4, 0x0(a0)
8000557c: 13 04 19 00  	addi	s0, s2, 0x1
80005580: 13 0d 85 ff  	addi	s10, a0, -0x8
80005584: f3 2c 40 cc  	csrr	s9, tmask
80005588: 83 2a 0d 00  	lw	s5, 0x0(s10)
8000558c: 03 2b 4d 00  	lw	s6, 0x4(s10)
80005590: 13 85 0a 00  	mv	a0, s5
80005594: 93 05 0b 00  	mv	a1, s6
80005598: 13 06 0a 00  	mv	a2, s4
8000559c: 93 86 09 00  	mv	a3, s3
800055a0: ef 00 40 70  	jal	0x80005ca4 <__adddf3>
800055a4: 93 0b 05 00  	mv	s7, a0
800055a8: 13 8c 05 00  	mv	s8, a1
800055ac: 13 85 0a 00  	mv	a0, s5
800055b0: 93 05 0b 00  	mv	a1, s6
800055b4: 13 86 0b 00  	mv	a2, s7
800055b8: 93 06 0c 00  	mv	a3, s8
800055bc: ef 20 50 3d  	jal	0x80008190 <__subdf3>
800055c0: 13 06 05 00  	mv	a2, a0
800055c4: 93 86 05 00  	mv	a3, a1
800055c8: 13 05 0a 00  	mv	a0, s4
800055cc: 93 85 09 00  	mv	a1, s3
800055d0: ef 00 40 6d  	jal	0x80005ca4 <__adddf3>
800055d4: 23 26 bd 00  	sw	a1, 0xc(s10)
800055d8: 23 24 ad 00  	sw	a0, 0x8(s10)
800055dc: 23 20 7d 01  	sw	s7, 0x0(s10)
800055e0: 23 22 8d 01  	sw	s8, 0x4(s10)
800055e4: 13 04 f4 ff  	addi	s0, s0, -0x1
800055e8: 13 0d 8d ff  	addi	s10, s10, -0x8
800055ec: 13 35 24 00  	sltiu	a0, s0, 0x2
800055f0: 8b 50 95 01  	vx_pred_n	a0, s9
800055f4: 13 8a 0b 00  	mv	s4, s7
800055f8: 93 09 0c 00  	mv	s3, s8
800055fc: e3 06 05 f8  	beqz	a0, 0x80005588 <__rem_pio2_large+0xaf8>
80005600: 13 04 19 00  	addi	s0, s2, 0x1
80005604: 0b b0 0d 00  	vx_join	s11
80005608: 13 05 00 00  	li	a0, 0x0
8000560c: 93 05 00 00  	li	a1, 0x0
80005610: 13 26 29 00  	slti	a2, s2, 0x2
80005614: 93 4d 16 00  	xori	s11, a2, 0x1
80005618: 0b a6 1d 00  	vx_split_n	a2, s11
8000561c: 03 2c 01 03  	lw	s8, 0x30(sp)
80005620: 63 8a 0d 0e  	beqz	s11, 0x80005714 <__rem_pio2_large+0xc84>
80005624: 23 2a c1 02  	sw	a2, 0x34(sp)
80005628: 13 05 81 0e  	addi	a0, sp, 0xe8
8000562c: 83 25 41 04  	lw	a1, 0x44(sp)
80005630: 33 05 b5 00  	add	a0, a0, a1
80005634: 83 29 45 00  	lw	s3, 0x4(a0)
80005638: 03 2a 05 00  	lw	s4, 0x0(a0)
8000563c: 13 0d 85 ff  	addi	s10, a0, -0x8
80005640: f3 2c 40 cc  	csrr	s9, tmask
80005644: 83 2a 0d 00  	lw	s5, 0x0(s10)
80005648: 03 2b 4d 00  	lw	s6, 0x4(s10)
8000564c: 13 85 0a 00  	mv	a0, s5
80005650: 93 05 0b 00  	mv	a1, s6
80005654: 13 06 0a 00  	mv	a2, s4
80005658: 93 86 09 00  	mv	a3, s3
8000565c: ef 00 80 64  	jal	0x80005ca4 <__adddf3>
80005660: 93 0b 05 00  	mv	s7, a0
80005664: 13 8c 05 00  	mv	s8, a1
80005668: 13 85 0a 00  	mv	a0, s5
8000566c: 93 05 0b 00  	mv	a1, s6
80005670: 13 86 0b 00  	mv	a2, s7
80005674: 93 06 0c 00  	mv	a3, s8
80005678: ef 20 90 31  	jal	0x80008190 <__subdf3>
8000567c: 13 06 05 00  	mv	a2, a0
80005680: 93 86 05 00  	mv	a3, a1
80005684: 13 05 0a 00  	mv	a0, s4
80005688: 93 85 09 00  	mv	a1, s3
8000568c: ef 00 80 61  	jal	0x80005ca4 <__adddf3>
80005690: 23 26 bd 00  	sw	a1, 0xc(s10)
80005694: 23 24 ad 00  	sw	a0, 0x8(s10)
80005698: 23 20 7d 01  	sw	s7, 0x0(s10)
8000569c: 23 22 8d 01  	sw	s8, 0x4(s10)
800056a0: 13 04 f4 ff  	addi	s0, s0, -0x1
800056a4: 13 0d 8d ff  	addi	s10, s10, -0x8
800056a8: 13 35 34 00  	sltiu	a0, s0, 0x3
800056ac: 8b 50 95 01  	vx_pred_n	a0, s9
800056b0: 13 8a 0b 00  	mv	s4, s7
800056b4: 93 09 0c 00  	mv	s3, s8
800056b8: e3 06 05 f8  	beqz	a0, 0x80005644 <__rem_pio2_large+0xbb4>
800056bc: 13 05 00 00  	li	a0, 0x0
800056c0: 93 05 00 00  	li	a1, 0x0
800056c4: 0b a4 1d 00  	vx_split_n	s0, s11
800056c8: 63 80 0d 04  	beqz	s11, 0x80005708 <__rem_pio2_large+0xc78>
800056cc: 13 05 00 00  	li	a0, 0x0
800056d0: 93 05 00 00  	li	a1, 0x0
800056d4: 93 09 19 00  	addi	s3, s2, 0x1
800056d8: 13 0a 81 0e  	addi	s4, sp, 0xe8
800056dc: 03 26 41 04  	lw	a2, 0x44(sp)
800056e0: 33 0a ca 00  	add	s4, s4, a2
800056e4: f3 2a 40 cc  	csrr	s5, tmask
800056e8: 03 26 0a 00  	lw	a2, 0x0(s4)
800056ec: 83 26 4a 00  	lw	a3, 0x4(s4)
800056f0: ef 00 40 5b  	jal	0x80005ca4 <__adddf3>
800056f4: 93 89 f9 ff  	addi	s3, s3, -0x1
800056f8: 13 0a 8a ff  	addi	s4, s4, -0x8
800056fc: 13 b6 39 00  	sltiu	a2, s3, 0x3
80005700: 8b 50 56 01  	vx_pred_n	a2, s5
80005704: e3 02 06 fe  	beqz	a2, 0x800056e8 <__rem_pio2_large+0xc58>
80005708: 0b 30 04 00  	vx_join	s0
8000570c: 03 2c 01 03  	lw	s8, 0x30(sp)
80005710: 03 26 41 03  	lw	a2, 0x34(sp)
80005714: 0b 30 06 00  	vx_join	a2
80005718: 03 26 c1 0e  	lw	a2, 0xec(sp)
8000571c: 83 26 81 0e  	lw	a3, 0xe8(sp)
80005720: 33 38 80 01  	snez	a6, s8
80005724: 0b 27 18 00  	vx_split_n	a4, a6
80005728: 93 07 10 00  	li	a5, 0x1
8000572c: 03 2d 01 04  	lw	s10, 0x40(sp)
80005730: 63 0e 08 02  	beqz	a6, 0x8000576c <__rem_pio2_large+0xcdc>
80005734: 93 07 00 00  	li	a5, 0x0
80005738: 37 08 00 80  	lui	a6, 0x80000
8000573c: b3 48 06 01  	xor	a7, a2, a6
80005740: 83 22 41 0f  	lw	t0, 0xf4(sp)
80005744: 03 23 01 0f  	lw	t1, 0xf0(sp)
80005748: 83 23 01 00  	lw	t2, 0x0(sp)
8000574c: 23 a0 d3 00  	sw	a3, 0x0(t2)
80005750: 23 a2 13 01  	sw	a7, 0x4(t2)
80005754: b3 c8 02 01  	xor	a7, t0, a6
80005758: 23 a4 63 00  	sw	t1, 0x8(t2)
8000575c: 23 a6 13 01  	sw	a7, 0xc(t2)
80005760: 33 c8 05 01  	xor	a6, a1, a6
80005764: 23 a8 a3 00  	sw	a0, 0x10(t2)
80005768: 23 aa 03 01  	sw	a6, 0x14(t2)
8000576c: 0b 30 07 00  	vx_join	a4
80005770: 0b a7 17 00  	vx_split_n	a4, a5
80005774: 63 84 07 02  	beqz	a5, 0x8000579c <__rem_pio2_large+0xd0c>
80005778: 83 27 41 0f  	lw	a5, 0xf4(sp)
8000577c: 03 28 01 0f  	lw	a6, 0xf0(sp)
80005780: 83 28 01 00  	lw	a7, 0x0(sp)
80005784: 23 a0 d8 00  	sw	a3, 0x0(a7)
80005788: 23 a2 c8 00  	sw	a2, 0x4(a7)
8000578c: 23 a6 f8 00  	sw	a5, 0xc(a7)
80005790: 23 a4 08 01  	sw	a6, 0x8(a7)
80005794: 23 a8 a8 00  	sw	a0, 0x10(a7)
80005798: 23 aa b8 00  	sw	a1, 0x14(a7)
8000579c: 0b 30 07 00  	vx_join	a4
800057a0: 03 26 41 00  	lw	a2, 0x4(sp)
800057a4: 83 26 c1 03  	lw	a3, 0x3c(sp)
800057a8: 83 25 81 03  	lw	a1, 0x38(sp)
800057ac: 0b b0 05 00  	vx_join	a1
800057b0: 13 05 00 00  	li	a0, 0x0
800057b4: 0b b0 06 00  	vx_join	a3
800057b8: 0b 24 15 00  	vx_split_n	s0, a0
800057bc: 63 00 05 0e  	beqz	a0, 0x8000589c <__rem_pio2_large+0xe0c>
800057c0: 13 05 00 00  	li	a0, 0x0
800057c4: 93 05 00 00  	li	a1, 0x0
800057c8: 13 46 f9 ff  	not	a2, s2
800057cc: 13 56 f6 01  	srli	a2, a2, 0x1f
800057d0: 0b 2a 16 00  	vx_split_n	s4, a2
800057d4: 93 19 39 00  	slli	s3, s2, 0x3
800057d8: 63 0e 06 02  	beqz	a2, 0x80005814 <__rem_pio2_large+0xd84>
800057dc: 13 05 00 00  	li	a0, 0x0
800057e0: 93 05 00 00  	li	a1, 0x0
800057e4: 93 0a 19 00  	addi	s5, s2, 0x1
800057e8: 13 0b 81 0e  	addi	s6, sp, 0xe8
800057ec: 33 0b 3b 01  	add	s6, s6, s3
800057f0: f3 2b 40 cc  	csrr	s7, tmask
800057f4: 03 26 0b 00  	lw	a2, 0x0(s6)
800057f8: 83 26 4b 00  	lw	a3, 0x4(s6)
800057fc: ef 00 80 4a  	jal	0x80005ca4 <__adddf3>
80005800: 93 8a fa ff  	addi	s5, s5, -0x1
80005804: 13 0b 8b ff  	addi	s6, s6, -0x8
80005808: 13 b6 1a 00  	seqz	a2, s5
8000580c: 8b 50 76 01  	vx_pred_n	a2, s7
80005810: e3 02 06 fe  	beqz	a2, 0x800057f4 <__rem_pio2_large+0xd64>
80005814: 0b 30 0a 00  	vx_join	s4
80005818: 33 3a 80 01  	snez	s4, s8
8000581c: 13 1a fa 01  	slli	s4, s4, 0x1f
80005820: 03 27 81 0e  	lw	a4, 0xe8(sp)
80005824: 83 27 c1 0e  	lw	a5, 0xec(sp)
80005828: 33 c6 45 01  	xor	a2, a1, s4
8000582c: 83 26 01 00  	lw	a3, 0x0(sp)
80005830: 23 a0 a6 00  	sw	a0, 0x0(a3)
80005834: 23 a2 c6 00  	sw	a2, 0x4(a3)
80005838: 13 06 05 00  	mv	a2, a0
8000583c: 13 05 07 00  	mv	a0, a4
80005840: 93 86 05 00  	mv	a3, a1
80005844: 93 85 07 00  	mv	a1, a5
80005848: ef 20 90 14  	jal	0x80008190 <__subdf3>
8000584c: 33 26 20 01  	sgtz	a2, s2
80005850: 8b 2a 16 00  	vx_split_n	s5, a2
80005854: 63 08 06 02  	beqz	a2, 0x80005884 <__rem_pio2_large+0xdf4>
80005858: 13 0b 01 0f  	addi	s6, sp, 0xf0
8000585c: b3 09 3b 01  	add	s3, s6, s3
80005860: f3 2b 40 cc  	csrr	s7, tmask
80005864: 03 26 0b 00  	lw	a2, 0x0(s6)
80005868: 83 26 4b 00  	lw	a3, 0x4(s6)
8000586c: ef 00 80 43  	jal	0x80005ca4 <__adddf3>
80005870: 13 0b 8b 00  	addi	s6, s6, 0x8
80005874: 33 46 3b 01  	xor	a2, s6, s3
80005878: 13 36 16 00  	seqz	a2, a2
8000587c: 8b 50 76 01  	vx_pred_n	a2, s7
80005880: e3 02 06 fe  	beqz	a2, 0x80005864 <__rem_pio2_large+0xdd4>
80005884: 0b b0 0a 00  	vx_join	s5
80005888: b3 c5 45 01  	xor	a1, a1, s4
8000588c: 03 26 01 00  	lw	a2, 0x0(sp)
80005890: 23 24 a6 00  	sw	a0, 0x8(a2)
80005894: 23 26 b6 00  	sw	a1, 0xc(a2)
80005898: 03 26 41 00  	lw	a2, 0x4(sp)
8000589c: 0b 30 04 00  	vx_join	s0
800058a0: 13 05 00 00  	li	a0, 0x0
800058a4: 0b b0 04 00  	vx_join	s1
800058a8: 8b 24 15 00  	vx_split_n	s1, a0
800058ac: 63 02 05 08  	beqz	a0, 0x80005930 <__rem_pio2_large+0xea0>
800058b0: 13 35 16 00  	seqz	a0, a2
800058b4: 0b 24 15 00  	vx_split_n	s0, a0
800058b8: 63 0a 05 06  	beqz	a0, 0x8000592c <__rem_pio2_large+0xe9c>
800058bc: 13 05 00 00  	li	a0, 0x0
800058c0: 93 05 00 00  	li	a1, 0x0
800058c4: 13 46 f9 ff  	not	a2, s2
800058c8: 13 56 f6 01  	srli	a2, a2, 0x1f
800058cc: 8b 29 16 00  	vx_split_n	s3, a2
800058d0: 63 00 06 04  	beqz	a2, 0x80005910 <__rem_pio2_large+0xe80>
800058d4: 13 05 00 00  	li	a0, 0x0
800058d8: 93 05 00 00  	li	a1, 0x0
800058dc: 13 0a 19 00  	addi	s4, s2, 0x1
800058e0: 13 19 39 00  	slli	s2, s2, 0x3
800058e4: 13 06 81 0e  	addi	a2, sp, 0xe8
800058e8: 33 09 26 01  	add	s2, a2, s2
800058ec: f3 2a 40 cc  	csrr	s5, tmask
800058f0: 03 26 09 00  	lw	a2, 0x0(s2)
800058f4: 83 26 49 00  	lw	a3, 0x4(s2)
800058f8: ef 00 c0 3a  	jal	0x80005ca4 <__adddf3>
800058fc: 13 0a fa ff  	addi	s4, s4, -0x1
80005900: 13 09 89 ff  	addi	s2, s2, -0x8
80005904: 13 36 1a 00  	seqz	a2, s4
80005908: 8b 50 56 01  	vx_pred_n	a2, s5
8000590c: e3 02 06 fe  	beqz	a2, 0x800058f0 <__rem_pio2_large+0xe60>
80005910: 0b b0 09 00  	vx_join	s3
80005914: 33 36 80 01  	snez	a2, s8
80005918: 13 16 f6 01  	slli	a2, a2, 0x1f
8000591c: b3 c5 c5 00  	xor	a1, a1, a2
80005920: 03 26 01 00  	lw	a2, 0x0(sp)
80005924: 23 20 a6 00  	sw	a0, 0x0(a2)
80005928: 23 22 b6 00  	sw	a1, 0x4(a2)
8000592c: 0b 30 04 00  	vx_join	s0
80005930: 0b b0 04 00  	vx_join	s1
80005934: 13 75 7d 00  	andi	a0, s10, 0x7
80005938: 83 20 c1 2a  	lw	ra, 0x2ac(sp)
8000593c: 03 24 81 2a  	lw	s0, 0x2a8(sp)
80005940: 83 24 41 2a  	lw	s1, 0x2a4(sp)
80005944: 03 29 01 2a  	lw	s2, 0x2a0(sp)
80005948: 83 29 c1 29  	lw	s3, 0x29c(sp)
8000594c: 03 2a 81 29  	lw	s4, 0x298(sp)
80005950: 83 2a 41 29  	lw	s5, 0x294(sp)
80005954: 03 2b 01 29  	lw	s6, 0x290(sp)
80005958: 83 2b c1 28  	lw	s7, 0x28c(sp)
8000595c: 03 2c 81 28  	lw	s8, 0x288(sp)
80005960: 83 2c 41 28  	lw	s9, 0x284(sp)
80005964: 03 2d 01 28  	lw	s10, 0x280(sp)
80005968: 83 2d c1 27  	lw	s11, 0x27c(sp)
8000596c: 13 01 01 2b  	addi	sp, sp, 0x2b0
80005970: 67 80 00 00  	ret

80005974 <floor>:
80005974: 13 01 01 fc  	addi	sp, sp, -0x40
80005978: 23 2e 11 02  	sw	ra, 0x3c(sp)
8000597c: 23 2c 81 02  	sw	s0, 0x38(sp)
80005980: 23 2a 91 02  	sw	s1, 0x34(sp)
80005984: 23 28 21 03  	sw	s2, 0x30(sp)
80005988: 23 26 31 03  	sw	s3, 0x2c(sp)
8000598c: 23 24 41 03  	sw	s4, 0x28(sp)
80005990: 23 22 51 03  	sw	s5, 0x24(sp)
80005994: 23 20 61 03  	sw	s6, 0x20(sp)
80005998: 23 2e 71 01  	sw	s7, 0x1c(sp)
8000599c: 23 2c 81 01  	sw	s8, 0x18(sp)
800059a0: 23 2a 91 01  	sw	s9, 0x14(sp)
800059a4: 13 84 05 00  	mv	s0, a1
800059a8: 93 04 05 00  	mv	s1, a0
800059ac: 13 95 15 00  	slli	a0, a1, 0x1
800059b0: 13 5a 55 01  	srli	s4, a0, 0x15
800059b4: 13 35 3a 43  	sltiu	a0, s4, 0x433
800059b8: 8b 2a 15 00  	vx_split_n	s5, a0
800059bc: 63 0e 05 14  	beqz	a0, 0x80005b18 <floor+0x1a4>
800059c0: 13 05 00 00  	li	a0, 0x0
800059c4: ef 10 10 4f  	jal	0x800076b4 <__floatsidf>
800059c8: 13 06 05 00  	mv	a2, a0
800059cc: 93 86 05 00  	mv	a3, a1
800059d0: 13 85 04 00  	mv	a0, s1
800059d4: 93 05 04 00  	mv	a1, s0
800059d8: ef 00 d0 60  	jal	0x800067e4 <__nedf2>
800059dc: 33 35 a0 00  	snez	a0, a0
800059e0: 0b 2b 15 00  	vx_split_n	s6, a0
800059e4: 63 08 05 12  	beqz	a0, 0x80005b14 <floor+0x1a0>
800059e8: 13 25 04 00  	slti	a0, s0, 0x0
800059ec: 93 46 15 00  	xori	a3, a0, 0x1
800059f0: 0b a9 16 00  	vx_split_n	s2, a3
800059f4: 13 06 10 00  	li	a2, 0x1
800059f8: 63 84 06 02  	beqz	a3, 0x80005a20 <floor+0xac>
800059fc: b7 06 30 43  	lui	a3, 0x43300
80005a00: 13 85 04 00  	mv	a0, s1
80005a04: 93 05 04 00  	mv	a1, s0
80005a08: 13 06 00 00  	li	a2, 0x0
80005a0c: ef 00 80 29  	jal	0x80005ca4 <__adddf3>
80005a10: b7 06 30 43  	lui	a3, 0x43300
80005a14: 13 06 00 00  	li	a2, 0x0
80005a18: ef 20 80 77  	jal	0x80008190 <__subdf3>
80005a1c: 13 06 00 00  	li	a2, 0x0
80005a20: 0b 30 09 00  	vx_join	s2
80005a24: 0b 29 16 00  	vx_split_n	s2, a2
80005a28: 63 02 06 02  	beqz	a2, 0x80005a4c <floor+0xd8>
80005a2c: b7 06 30 43  	lui	a3, 0x43300
80005a30: 13 85 04 00  	mv	a0, s1
80005a34: 93 05 04 00  	mv	a1, s0
80005a38: 13 06 00 00  	li	a2, 0x0
80005a3c: ef 20 40 75  	jal	0x80008190 <__subdf3>
80005a40: b7 06 30 43  	lui	a3, 0x43300
80005a44: 13 06 00 00  	li	a2, 0x0
80005a48: ef 00 c0 25  	jal	0x80005ca4 <__adddf3>
80005a4c: 0b 30 09 00  	vx_join	s2
80005a50: 13 86 04 00  	mv	a2, s1
80005a54: 93 06 04 00  	mv	a3, s0
80005a58: ef 20 80 73  	jal	0x80008190 <__subdf3>
80005a5c: 13 09 05 00  	mv	s2, a0
80005a60: 93 89 05 00  	mv	s3, a1
80005a64: 13 35 fa 3f  	sltiu	a0, s4, 0x3ff
80005a68: 93 45 15 00  	xori	a1, a0, 0x1
80005a6c: 8b ab 15 00  	vx_split_n	s7, a1
80005a70: 13 05 10 00  	li	a0, 0x1
80005a74: 63 8a 05 06  	beqz	a1, 0x80005ae8 <floor+0x174>
80005a78: 13 05 00 00  	li	a0, 0x0
80005a7c: ef 10 90 43  	jal	0x800076b4 <__floatsidf>
80005a80: 13 06 05 00  	mv	a2, a0
80005a84: 93 86 05 00  	mv	a3, a1
80005a88: 13 05 09 00  	mv	a0, s2
80005a8c: 93 85 09 00  	mv	a1, s3
80005a90: ef 00 d0 64  	jal	0x800068dc <__gtdf2>
80005a94: b3 2c a0 00  	sgtz	s9, a0
80005a98: 13 85 04 00  	mv	a0, s1
80005a9c: 93 05 04 00  	mv	a1, s0
80005aa0: 13 06 09 00  	mv	a2, s2
80005aa4: 93 86 09 00  	mv	a3, s3
80005aa8: ef 00 c0 1f  	jal	0x80005ca4 <__adddf3>
80005aac: 93 04 05 00  	mv	s1, a0
80005ab0: 13 8a 05 00  	mv	s4, a1
80005ab4: 0b ac 1c 00  	vx_split_n	s8, s9
80005ab8: 63 84 0c 02  	beqz	s9, 0x80005ae0 <floor+0x16c>
80005abc: 13 05 10 00  	li	a0, 0x1
80005ac0: ef 10 50 3f  	jal	0x800076b4 <__floatsidf>
80005ac4: 13 06 05 00  	mv	a2, a0
80005ac8: 93 86 05 00  	mv	a3, a1
80005acc: 13 85 04 00  	mv	a0, s1
80005ad0: 93 05 0a 00  	mv	a1, s4
80005ad4: ef 20 c0 6b  	jal	0x80008190 <__subdf3>
80005ad8: 93 04 05 00  	mv	s1, a0
80005adc: 13 8a 05 00  	mv	s4, a1
80005ae0: 0b 30 0c 00  	vx_join	s8
80005ae4: 13 05 00 00  	li	a0, 0x0
80005ae8: 0b b0 0b 00  	vx_join	s7
80005aec: 8b 2b 15 00  	vx_split_n	s7, a0
80005af0: 63 0e 05 00  	beqz	a0, 0x80005b0c <floor+0x198>
80005af4: 23 24 21 01  	sw	s2, 0x8(sp)
80005af8: 23 26 31 01  	sw	s3, 0xc(sp)
80005afc: 13 55 f4 41  	srai	a0, s0, 0x1f
80005b00: ef 10 50 3b  	jal	0x800076b4 <__floatsidf>
80005b04: 93 04 05 00  	mv	s1, a0
80005b08: 13 8a 05 00  	mv	s4, a1
80005b0c: 0b b0 0b 00  	vx_join	s7
80005b10: 13 04 0a 00  	mv	s0, s4
80005b14: 0b 30 0b 00  	vx_join	s6
80005b18: 0b b0 0a 00  	vx_join	s5
80005b1c: 13 85 04 00  	mv	a0, s1
80005b20: 93 05 04 00  	mv	a1, s0
80005b24: 83 20 c1 03  	lw	ra, 0x3c(sp)
80005b28: 03 24 81 03  	lw	s0, 0x38(sp)
80005b2c: 83 24 41 03  	lw	s1, 0x34(sp)
80005b30: 03 29 01 03  	lw	s2, 0x30(sp)
80005b34: 83 29 c1 02  	lw	s3, 0x2c(sp)
80005b38: 03 2a 81 02  	lw	s4, 0x28(sp)
80005b3c: 83 2a 41 02  	lw	s5, 0x24(sp)
80005b40: 03 2b 01 02  	lw	s6, 0x20(sp)
80005b44: 83 2b c1 01  	lw	s7, 0x1c(sp)
80005b48: 03 2c 81 01  	lw	s8, 0x18(sp)
80005b4c: 83 2c 41 01  	lw	s9, 0x14(sp)
80005b50: 13 01 01 04  	addi	sp, sp, 0x40
80005b54: 67 80 00 00  	ret

80005b58 <scalbn>:
80005b58: 13 01 01 fe  	addi	sp, sp, -0x20
80005b5c: 23 2e 11 00  	sw	ra, 0x1c(sp)
80005b60: 23 2c 81 00  	sw	s0, 0x18(sp)
80005b64: 23 2a 91 00  	sw	s1, 0x14(sp)
80005b68: 23 28 21 01  	sw	s2, 0x10(sp)
80005b6c: 23 26 31 01  	sw	s3, 0xc(sp)
80005b70: 23 24 41 01  	sw	s4, 0x8(sp)
80005b74: 23 22 51 01  	sw	s5, 0x4(sp)
80005b78: 23 20 61 01  	sw	s6, 0x0(sp)
80005b7c: 13 04 06 00  	mv	s0, a2
80005b80: 93 84 05 00  	mv	s1, a1
80005b84: 13 09 05 00  	mv	s2, a0
80005b88: 93 26 06 40  	slti	a3, a2, 0x400
80005b8c: 0b aa 16 00  	vx_split_n	s4, a3
80005b90: 13 06 10 00  	li	a2, 0x1
80005b94: 63 8a 06 06  	beqz	a3, 0x80005c08 <scalbn+0xb0>
80005b98: 13 26 24 c0  	slti	a2, s0, -0x3fe
80005b9c: 8b 2a 16 00  	vx_split_n	s5, a2
80005ba0: 93 09 04 00  	mv	s3, s0
80005ba4: 13 05 09 00  	mv	a0, s2
80005ba8: 93 85 04 00  	mv	a1, s1
80005bac: 63 0a 06 04  	beqz	a2, 0x80005c00 <scalbn+0xa8>
80005bb0: b7 06 60 03  	lui	a3, 0x3600
80005bb4: 13 05 09 00  	mv	a0, s2
80005bb8: 93 85 04 00  	mv	a1, s1
80005bbc: 13 06 00 00  	li	a2, 0x0
80005bc0: ef 10 50 4e  	jal	0x800078a4 <__muldf3>
80005bc4: 93 09 94 3c  	addi	s3, s0, 0x3c9
80005bc8: 13 36 94 83  	sltiu	a2, s0, -0x7c7
80005bcc: 0b 2b 16 00  	vx_split_n	s6, a2
80005bd0: 63 06 06 02  	beqz	a2, 0x80005bfc <scalbn+0xa4>
80005bd4: 37 f6 ff ff  	lui	a2, 0xfffff
80005bd8: 13 06 06 47  	addi	a2, a2, 0x470
80005bdc: b3 26 86 00  	slt	a3, a2, s0
80005be0: 33 76 d6 0e  	czero.nez	a2, a2, a3
80005be4: b3 56 d4 0e  	czero.eqz	a3, s0, a3
80005be8: 33 e6 c6 00  	or	a2, a3, a2
80005bec: 93 09 26 79  	addi	s3, a2, 0x792
80005bf0: b7 06 60 03  	lui	a3, 0x3600
80005bf4: 13 06 00 00  	li	a2, 0x0
80005bf8: ef 10 d0 4a  	jal	0x800078a4 <__muldf3>
80005bfc: 0b 30 0b 00  	vx_join	s6
80005c00: 0b b0 0a 00  	vx_join	s5
80005c04: 13 06 00 00  	li	a2, 0x0
80005c08: 0b 30 0a 00  	vx_join	s4
80005c0c: 0b 2a 16 00  	vx_split_n	s4, a2
80005c10: 63 0c 06 04  	beqz	a2, 0x80005c68 <scalbn+0x110>
80005c14: b7 06 e0 7f  	lui	a3, 0x7fe00
80005c18: 13 05 09 00  	mv	a0, s2
80005c1c: 93 85 04 00  	mv	a1, s1
80005c20: 13 06 00 00  	li	a2, 0x0
80005c24: ef 10 10 48  	jal	0x800078a4 <__muldf3>
80005c28: 93 09 14 c0  	addi	s3, s0, -0x3ff
80005c2c: 13 36 f4 7f  	sltiu	a2, s0, 0x7ff
80005c30: 13 46 16 00  	xori	a2, a2, 0x1
80005c34: 8b 24 16 00  	vx_split_n	s1, a2
80005c38: 63 06 06 02  	beqz	a2, 0x80005c64 <scalbn+0x10c>
80005c3c: 37 16 00 00  	lui	a2, 0x1
80005c40: 13 06 d6 bf  	addi	a2, a2, -0x403
80005c44: b3 26 c4 00  	slt	a3, s0, a2
80005c48: 33 76 d6 0e  	czero.nez	a2, a2, a3
80005c4c: b3 56 d4 0e  	czero.eqz	a3, s0, a3
80005c50: 33 e6 c6 00  	or	a2, a3, a2
80005c54: 93 09 26 80  	addi	s3, a2, -0x7fe
80005c58: b7 06 e0 7f  	lui	a3, 0x7fe00
80005c5c: 13 06 00 00  	li	a2, 0x0
80005c60: ef 10 50 44  	jal	0x800078a4 <__muldf3>
80005c64: 0b b0 04 00  	vx_join	s1
80005c68: 0b 30 0a 00  	vx_join	s4
80005c6c: 93 86 f9 3f  	addi	a3, s3, 0x3ff
80005c70: 93 96 46 01  	slli	a3, a3, 0x14
80005c74: 13 06 00 00  	li	a2, 0x0
80005c78: ef 10 d0 42  	jal	0x800078a4 <__muldf3>
80005c7c: 83 20 c1 01  	lw	ra, 0x1c(sp)
80005c80: 03 24 81 01  	lw	s0, 0x18(sp)
80005c84: 83 24 41 01  	lw	s1, 0x14(sp)
80005c88: 03 29 01 01  	lw	s2, 0x10(sp)
80005c8c: 83 29 c1 00  	lw	s3, 0xc(sp)
80005c90: 03 2a 81 00  	lw	s4, 0x8(sp)
80005c94: 83 2a 41 00  	lw	s5, 0x4(sp)
80005c98: 03 2b 01 00  	lw	s6, 0x0(sp)
80005c9c: 13 01 01 02  	addi	sp, sp, 0x20
80005ca0: 67 80 00 00  	ret

80005ca4 <__adddf3>:
80005ca4: 13 01 01 fb  	addi	sp, sp, -0x50
80005ca8: 23 26 11 04  	sw	ra, 0x4c(sp)
80005cac: 23 24 81 04  	sw	s0, 0x48(sp)
80005cb0: 23 22 91 04  	sw	s1, 0x44(sp)
80005cb4: 23 20 21 05  	sw	s2, 0x40(sp)
80005cb8: 23 2e 31 03  	sw	s3, 0x3c(sp)
80005cbc: 23 2c 41 03  	sw	s4, 0x38(sp)
80005cc0: 23 2a 51 03  	sw	s5, 0x34(sp)
80005cc4: 23 28 61 03  	sw	s6, 0x30(sp)
80005cc8: 23 26 71 03  	sw	s7, 0x2c(sp)
80005ccc: 23 24 81 03  	sw	s8, 0x28(sp)
80005cd0: 23 22 91 03  	sw	s9, 0x24(sp)
80005cd4: 23 20 a1 03  	sw	s10, 0x20(sp)
80005cd8: 23 2e b1 01  	sw	s11, 0x1c(sp)
80005cdc: 93 89 06 00  	mv	s3, a3
80005ce0: 13 09 06 00  	mv	s2, a2
80005ce4: 93 84 05 00  	mv	s1, a1
80005ce8: 13 04 05 00  	mv	s0, a0
80005cec: 93 0b 00 00  	li	s7, 0x0
80005cf0: 13 0d 00 00  	li	s10, 0x0
80005cf4: 93 00 00 00  	li	ra, 0x0
80005cf8: 13 0c 00 00  	li	s8, 0x0
80005cfc: 37 05 00 80  	lui	a0, 0x80000
80005d00: 13 05 f5 ff  	addi	a0, a0, -0x1
80005d04: b3 f5 a5 00  	and	a1, a1, a0
80005d08: 33 fb a6 00  	and	s6, a3, a0
80005d0c: 37 05 10 80  	lui	a0, 0x80100
80005d10: 33 86 a5 00  	add	a2, a1, a0
80005d14: 33 36 a6 00  	sltu	a2, a2, a0
80005d18: b3 56 b6 0e  	czero.eqz	a3, a2, a1
80005d1c: 13 36 14 00  	seqz	a2, s0
80005d20: 33 77 b6 0e  	czero.nez	a4, a2, a1
80005d24: b3 66 d7 00  	or	a3, a4, a3
80005d28: 33 07 ab 00  	add	a4, s6, a0
80005d2c: 33 35 a7 00  	sltu	a0, a4, a0
80005d30: 33 55 65 0f  	czero.eqz	a0, a0, s6
80005d34: 13 37 19 00  	seqz	a4, s2
80005d38: b3 77 67 0f  	czero.nez	a5, a4, s6
80005d3c: 33 e5 a7 00  	or	a0, a5, a0
80005d40: b3 e7 a6 00  	or	a5, a3, a0
80005d44: 0b a5 17 00  	vx_split_n	a0, a5
80005d48: 93 06 10 00  	li	a3, 0x1
80005d4c: 63 80 07 10  	beqz	a5, 0x80005e4c <__adddf3+0x1a8>
80005d50: 93 06 00 00  	li	a3, 0x0
80005d54: 93 0b 00 00  	li	s7, 0x0
80005d58: 13 0d 00 00  	li	s10, 0x0
80005d5c: 93 00 00 00  	li	ra, 0x0
80005d60: b7 07 f0 7f  	lui	a5, 0x7ff00
80005d64: 33 c8 f5 00  	xor	a6, a1, a5
80005d68: 33 76 06 0f  	czero.nez	a2, a2, a6
80005d6c: 93 d8 45 01  	srli	a7, a1, 0x14
80005d70: 93 b8 f8 7f  	sltiu	a7, a7, 0x7ff
80005d74: 33 d8 08 0f  	czero.eqz	a6, a7, a6
80005d78: 33 68 06 01  	or	a6, a2, a6
80005d7c: 0b 26 18 00  	vx_split_n	a2, a6
80005d80: 13 0c 10 00  	li	s8, 0x1
80005d84: 63 02 08 0c  	beqz	a6, 0x80005e48 <__adddf3+0x1a4>
80005d88: 93 06 00 00  	li	a3, 0x0
80005d8c: 93 0b 00 00  	li	s7, 0x0
80005d90: 13 0d 00 00  	li	s10, 0x0
80005d94: b3 47 fb 00  	xor	a5, s6, a5
80005d98: 33 77 f7 0e  	czero.nez	a4, a4, a5
80005d9c: 13 58 4b 01  	srli	a6, s6, 0x14
80005da0: 13 38 f8 7f  	sltiu	a6, a6, 0x7ff
80005da4: b3 57 f8 0e  	czero.eqz	a5, a6, a5
80005da8: b3 67 f7 00  	or	a5, a4, a5
80005dac: 0b a7 17 00  	vx_split_n	a4, a5
80005db0: 93 00 10 00  	li	ra, 0x1
80005db4: 63 86 07 08  	beqz	a5, 0x80005e40 <__adddf3+0x19c>
80005db8: 93 06 00 00  	li	a3, 0x0
80005dbc: 93 0b 00 00  	li	s7, 0x0
80005dc0: 37 08 f0 7f  	lui	a6, 0x7ff00
80005dc4: b3 c7 05 01  	xor	a5, a1, a6
80005dc8: b3 67 f4 00  	or	a5, s0, a5
80005dcc: b3 38 f0 00  	snez	a7, a5
80005dd0: 8b a7 18 00  	vx_split_n	a5, a7
80005dd4: 13 0d 10 00  	li	s10, 0x1
80005dd8: 63 80 08 06  	beqz	a7, 0x80005e38 <__adddf3+0x194>
80005ddc: 93 06 00 00  	li	a3, 0x0
80005de0: 93 0b 00 00  	li	s7, 0x0
80005de4: 33 48 0b 01  	xor	a6, s6, a6
80005de8: 33 68 09 01  	or	a6, s2, a6
80005dec: b3 38 00 01  	snez	a7, a6
80005df0: 0b a8 18 00  	vx_split_n	a6, a7
80005df4: 13 0a 09 00  	mv	s4, s2
80005df8: 93 8a 09 00  	mv	s5, s3
80005dfc: 63 8a 08 02  	beqz	a7, 0x80005e30 <__adddf3+0x18c>
80005e00: 93 06 00 00  	li	a3, 0x0
80005e04: b3 68 b4 00  	or	a7, s0, a1
80005e08: b3 32 10 01  	snez	t0, a7
80005e0c: 8b a8 12 00  	vx_split_n	a7, t0
80005e10: 93 0b 10 00  	li	s7, 0x1
80005e14: 63 8c 02 00  	beqz	t0, 0x80005e2c <__adddf3+0x188>
80005e18: 93 0b 00 00  	li	s7, 0x0
80005e1c: b3 66 69 01  	or	a3, s2, s6
80005e20: b3 36 d0 00  	snez	a3, a3
80005e24: 13 0a 04 00  	mv	s4, s0
80005e28: 93 8a 04 00  	mv	s5, s1
80005e2c: 0b b0 08 00  	vx_join	a7
80005e30: 0b 30 08 00  	vx_join	a6
80005e34: 13 0d 00 00  	li	s10, 0x0
80005e38: 0b b0 07 00  	vx_join	a5
80005e3c: 93 00 00 00  	li	ra, 0x0
80005e40: 0b 30 07 00  	vx_join	a4
80005e44: 13 0c 00 00  	li	s8, 0x0
80005e48: 0b 30 06 00  	vx_join	a2
80005e4c: 0b 30 05 00  	vx_join	a0
80005e50: 0b a5 16 00  	vx_split_n	a0, a3
80005e54: b3 cc 99 00  	xor	s9, s3, s1
80005e58: e3 8a 06 0a  	beqz	a3, 0x8000670c <__adddf3+0xa68>
80005e5c: 23 2c a1 00  	sw	a0, 0x18(sp)
80005e60: 37 05 10 00  	lui	a0, 0x100
80005e64: 13 05 f5 ff  	addi	a0, a0, -0x1
80005e68: 33 46 bb 00  	xor	a2, s6, a1
80005e6c: b3 b5 65 01  	sltu	a1, a1, s6
80005e70: b3 d5 c5 0e  	czero.eqz	a1, a1, a2
80005e74: b3 36 24 01  	sltu	a3, s0, s2
80005e78: 33 f6 c6 0e  	czero.nez	a2, a3, a2
80005e7c: b3 65 b6 00  	or	a1, a2, a1
80005e80: 33 76 b9 0e  	czero.nez	a2, s2, a1
80005e84: b3 57 b4 0e  	czero.eqz	a5, s0, a1
80005e88: b3 e7 c7 00  	or	a5, a5, a2
80005e8c: 33 f6 b9 0e  	czero.nez	a2, s3, a1
80005e90: b3 d6 b4 0e  	czero.eqz	a3, s1, a1
80005e94: b3 e8 c6 00  	or	a7, a3, a2
80005e98: 33 76 b4 0e  	czero.nez	a2, s0, a1
80005e9c: b3 56 b9 0e  	czero.eqz	a3, s2, a1
80005ea0: b3 e6 c6 00  	or	a3, a3, a2
80005ea4: 33 f6 b4 0e  	czero.nez	a2, s1, a1
80005ea8: 33 d7 b9 0e  	czero.eqz	a4, s3, a1
80005eac: 33 67 c7 00  	or	a4, a4, a2
80005eb0: 13 16 17 00  	slli	a2, a4, 0x1
80005eb4: 13 56 56 01  	srli	a2, a2, 0x15
80005eb8: 93 92 18 00  	slli	t0, a7, 0x1
80005ebc: 33 78 a7 00  	and	a6, a4, a0
80005ec0: 93 35 16 00  	seqz	a1, a2
80005ec4: 0b a3 15 00  	vx_split_n	t1, a1
80005ec8: 63 84 05 16  	beqz	a1, 0x80006030 <__adddf3+0x38c>
80005ecc: 33 3e 00 01  	snez	t3, a6
80005ed0: 8b 25 1e 00  	vx_split_n	a1, t3
80005ed4: 13 06 10 00  	li	a2, 0x1
80005ed8: 63 02 0e 08  	beqz	t3, 0x80005f5c <__adddf3+0x2b8>
80005edc: 13 06 00 00  	li	a2, 0x0
80005ee0: 93 53 18 00  	srli	t2, a6, 0x1
80005ee4: b3 63 78 00  	or	t2, a6, t2
80005ee8: 13 de 23 00  	srli	t3, t2, 0x2
80005eec: b3 e3 c3 01  	or	t2, t2, t3
80005ef0: 13 de 43 00  	srli	t3, t2, 0x4
80005ef4: b3 e3 c3 01  	or	t2, t2, t3
80005ef8: 13 de 83 00  	srli	t3, t2, 0x8
80005efc: b3 e3 c3 01  	or	t2, t2, t3
80005f00: 13 de 03 01  	srli	t3, t2, 0x10
80005f04: b3 e3 c3 01  	or	t2, t2, t3
80005f08: 93 c3 f3 ff  	not	t2, t2
80005f0c: 13 de 13 00  	srli	t3, t2, 0x1
80005f10: b7 5e 55 55  	lui	t4, 0x55555
80005f14: 93 8e 5e 55  	addi	t4, t4, 0x555
80005f18: 33 7e de 01  	and	t3, t3, t4
80005f1c: b3 83 c3 41  	sub	t2, t2, t3
80005f20: 37 3e 33 33  	lui	t3, 0x33333
80005f24: 13 0e 3e 33  	addi	t3, t3, 0x333
80005f28: b3 fe c3 01  	and	t4, t2, t3
80005f2c: 93 d3 23 00  	srli	t2, t2, 0x2
80005f30: b3 f3 c3 01  	and	t2, t2, t3
80005f34: b3 83 7e 00  	add	t2, t4, t2
80005f38: 13 de 43 00  	srli	t3, t2, 0x4
80005f3c: b3 83 c3 01  	add	t2, t2, t3
80005f40: 37 1e 0f 0f  	lui	t3, 0xf0f1
80005f44: 13 0e fe f0  	addi	t3, t3, -0xf1
80005f48: b3 f3 c3 01  	and	t2, t2, t3
80005f4c: 37 0e 01 01  	lui	t3, 0x1010
80005f50: 13 0e 1e 10  	addi	t3, t3, 0x101
80005f54: b3 83 c3 03  	mul	t2, t2, t3
80005f58: 93 d3 83 01  	srli	t2, t2, 0x18
80005f5c: 0b b0 05 00  	vx_join	a1
80005f60: 8b 25 16 00  	vx_split_n	a1, a2
80005f64: 63 02 06 08  	beqz	a2, 0x80005fe8 <__adddf3+0x344>
80005f68: 13 d6 16 00  	srli	a2, a3, 0x1
80005f6c: 33 e6 c6 00  	or	a2, a3, a2
80005f70: 93 53 26 00  	srli	t2, a2, 0x2
80005f74: 33 66 76 00  	or	a2, a2, t2
80005f78: 93 53 46 00  	srli	t2, a2, 0x4
80005f7c: 33 66 76 00  	or	a2, a2, t2
80005f80: 93 53 86 00  	srli	t2, a2, 0x8
80005f84: 33 66 76 00  	or	a2, a2, t2
80005f88: 93 53 06 01  	srli	t2, a2, 0x10
80005f8c: 33 66 76 00  	or	a2, a2, t2
80005f90: 13 46 f6 ff  	not	a2, a2
80005f94: 93 53 16 00  	srli	t2, a2, 0x1
80005f98: 37 5e 55 55  	lui	t3, 0x55555
80005f9c: 13 0e 5e 55  	addi	t3, t3, 0x555
80005fa0: b3 f3 c3 01  	and	t2, t2, t3
80005fa4: 33 06 76 40  	sub	a2, a2, t2
80005fa8: b7 33 33 33  	lui	t2, 0x33333
80005fac: 93 83 33 33  	addi	t2, t2, 0x333
80005fb0: 33 7e 76 00  	and	t3, a2, t2
80005fb4: 13 56 26 00  	srli	a2, a2, 0x2
80005fb8: 33 76 76 00  	and	a2, a2, t2
80005fbc: 33 06 ce 00  	add	a2, t3, a2
80005fc0: 93 53 46 00  	srli	t2, a2, 0x4
80005fc4: 33 06 76 00  	add	a2, a2, t2
80005fc8: b7 13 0f 0f  	lui	t2, 0xf0f1
80005fcc: 93 83 f3 f0  	addi	t2, t2, -0xf1
80005fd0: 33 76 76 00  	and	a2, a2, t2
80005fd4: b7 03 01 01  	lui	t2, 0x1010
80005fd8: 93 83 13 10  	addi	t2, t2, 0x101
80005fdc: 33 06 76 02  	mul	a2, a2, t2
80005fe0: 13 56 86 01  	srli	a2, a2, 0x18
80005fe4: 93 63 06 02  	ori	t2, a2, 0x20
80005fe8: 0b b0 05 00  	vx_join	a1
80005fec: 93 85 53 ff  	addi	a1, t2, -0xb
80005ff0: 13 06 a0 02  	li	a2, 0x2a
80005ff4: 33 06 76 40  	sub	a2, a2, t2
80005ff8: 13 de 16 00  	srli	t3, a3, 0x1
80005ffc: 33 56 ce 00  	srl	a2, t3, a2
80006000: 33 18 b8 00  	sll	a6, a6, a1
80006004: 33 66 c8 00  	or	a2, a6, a2
80006008: 13 88 53 fd  	addi	a6, t2, -0x2b
8000600c: 13 2e 08 00  	slti	t3, a6, 0x0
80006010: 33 56 c6 0f  	czero.eqz	a2, a2, t3
80006014: 33 98 06 01  	sll	a6, a3, a6
80006018: 33 78 c8 0f  	czero.nez	a6, a6, t3
8000601c: 33 68 06 01  	or	a6, a2, a6
80006020: b3 95 b6 00  	sll	a1, a3, a1
80006024: b3 d6 c5 0f  	czero.eqz	a3, a1, t3
80006028: 93 05 c0 00  	li	a1, 0xc
8000602c: 33 86 75 40  	sub	a2, a1, t2
80006030: 93 05 f0 ff  	li	a1, -0x1
80006034: 93 de 52 01  	srli	t4, t0, 0x15
80006038: b3 f8 a8 00  	and	a7, a7, a0
8000603c: 0b 30 03 00  	vx_join	t1
80006040: 13 b3 1e 00  	seqz	t1, t4
80006044: 8b 22 13 00  	vx_split_n	t0, t1
80006048: 63 04 03 16  	beqz	t1, 0x800061b0 <__adddf3+0x50c>
8000604c: b3 3e 10 01  	snez	t4, a7
80006050: 0b a3 1e 00  	vx_split_n	t1, t4
80006054: 93 03 10 00  	li	t2, 0x1
80006058: 63 82 0e 08  	beqz	t4, 0x800060dc <__adddf3+0x438>
8000605c: 93 03 00 00  	li	t2, 0x0
80006060: 13 de 18 00  	srli	t3, a7, 0x1
80006064: 33 ee c8 01  	or	t3, a7, t3
80006068: 93 5e 2e 00  	srli	t4, t3, 0x2
8000606c: 33 6e de 01  	or	t3, t3, t4
80006070: 93 5e 4e 00  	srli	t4, t3, 0x4
80006074: 33 6e de 01  	or	t3, t3, t4
80006078: 93 5e 8e 00  	srli	t4, t3, 0x8
8000607c: 33 6e de 01  	or	t3, t3, t4
80006080: 93 5e 0e 01  	srli	t4, t3, 0x10
80006084: 33 6e de 01  	or	t3, t3, t4
80006088: 13 4e fe ff  	not	t3, t3
8000608c: 93 5e 1e 00  	srli	t4, t3, 0x1
80006090: 37 5f 55 55  	lui	t5, 0x55555
80006094: 13 0f 5f 55  	addi	t5, t5, 0x555
80006098: b3 fe ee 01  	and	t4, t4, t5
8000609c: 33 0e de 41  	sub	t3, t3, t4
800060a0: b7 3e 33 33  	lui	t4, 0x33333
800060a4: 93 8e 3e 33  	addi	t4, t4, 0x333
800060a8: 33 7f de 01  	and	t5, t3, t4
800060ac: 13 5e 2e 00  	srli	t3, t3, 0x2
800060b0: 33 7e de 01  	and	t3, t3, t4
800060b4: 33 0e cf 01  	add	t3, t5, t3
800060b8: 93 5e 4e 00  	srli	t4, t3, 0x4
800060bc: 33 0e de 01  	add	t3, t3, t4
800060c0: b7 1e 0f 0f  	lui	t4, 0xf0f1
800060c4: 93 8e fe f0  	addi	t4, t4, -0xf1
800060c8: 33 7e de 01  	and	t3, t3, t4
800060cc: b7 0e 01 01  	lui	t4, 0x1010
800060d0: 93 8e 1e 10  	addi	t4, t4, 0x101
800060d4: 33 0e de 03  	mul	t3, t3, t4
800060d8: 13 5e 8e 01  	srli	t3, t3, 0x18
800060dc: 0b 30 03 00  	vx_join	t1
800060e0: 0b a3 13 00  	vx_split_n	t1, t2
800060e4: 63 82 03 08  	beqz	t2, 0x80006168 <__adddf3+0x4c4>
800060e8: 93 d3 17 00  	srli	t2, a5, 0x1
800060ec: b3 e3 77 00  	or	t2, a5, t2
800060f0: 13 de 23 00  	srli	t3, t2, 0x2
800060f4: b3 e3 c3 01  	or	t2, t2, t3
800060f8: 13 de 43 00  	srli	t3, t2, 0x4
800060fc: b3 e3 c3 01  	or	t2, t2, t3
80006100: 13 de 83 00  	srli	t3, t2, 0x8
80006104: b3 e3 c3 01  	or	t2, t2, t3
80006108: 13 de 03 01  	srli	t3, t2, 0x10
8000610c: b3 e3 c3 01  	or	t2, t2, t3
80006110: 93 c3 f3 ff  	not	t2, t2
80006114: 13 de 13 00  	srli	t3, t2, 0x1
80006118: b7 5e 55 55  	lui	t4, 0x55555
8000611c: 93 8e 5e 55  	addi	t4, t4, 0x555
80006120: 33 7e de 01  	and	t3, t3, t4
80006124: b3 83 c3 41  	sub	t2, t2, t3
80006128: 37 3e 33 33  	lui	t3, 0x33333
8000612c: 13 0e 3e 33  	addi	t3, t3, 0x333
80006130: b3 fe c3 01  	and	t4, t2, t3
80006134: 93 d3 23 00  	srli	t2, t2, 0x2
80006138: b3 f3 c3 01  	and	t2, t2, t3
8000613c: b3 83 7e 00  	add	t2, t4, t2
80006140: 13 de 43 00  	srli	t3, t2, 0x4
80006144: b3 83 c3 01  	add	t2, t2, t3
80006148: 37 1e 0f 0f  	lui	t3, 0xf0f1
8000614c: 13 0e fe f0  	addi	t3, t3, -0xf1
80006150: b3 f3 c3 01  	and	t2, t2, t3
80006154: 37 0e 01 01  	lui	t3, 0x1010
80006158: 13 0e 1e 10  	addi	t3, t3, 0x101
8000615c: b3 83 c3 03  	mul	t2, t2, t3
80006160: 93 d3 83 01  	srli	t2, t2, 0x18
80006164: 13 ee 03 02  	ori	t3, t2, 0x20
80006168: 0b 30 03 00  	vx_join	t1
8000616c: 13 03 5e ff  	addi	t1, t3, -0xb
80006170: 93 03 a0 02  	li	t2, 0x2a
80006174: b3 83 c3 41  	sub	t2, t2, t3
80006178: 93 de 17 00  	srli	t4, a5, 0x1
8000617c: b3 d3 7e 00  	srl	t2, t4, t2
80006180: b3 98 68 00  	sll	a7, a7, t1
80006184: b3 e8 78 00  	or	a7, a7, t2
80006188: 93 03 5e fd  	addi	t2, t3, -0x2b
8000618c: 93 ae 03 00  	slti	t4, t2, 0x0
80006190: b3 d8 d8 0f  	czero.eqz	a7, a7, t4
80006194: b3 93 77 00  	sll	t2, a5, t2
80006198: b3 f3 d3 0f  	czero.nez	t2, t2, t4
8000619c: b3 e8 78 00  	or	a7, a7, t2
800061a0: b3 97 67 00  	sll	a5, a5, t1
800061a4: b3 d7 d7 0f  	czero.eqz	a5, a5, t4
800061a8: 13 03 c0 00  	li	t1, 0xc
800061ac: b3 0e c3 41  	sub	t4, t1, t3
800061b0: 0b b0 02 00  	vx_join	t0
800061b4: b7 02 00 80  	lui	t0, 0x80000
800061b8: 13 d3 d6 01  	srli	t1, a3, 0x1d
800061bc: 13 18 38 00  	slli	a6, a6, 0x3
800061c0: 33 63 68 00  	or	t1, a6, t1
800061c4: b7 03 80 00  	lui	t2, 0x800
800061c8: 13 de d7 01  	srli	t3, a5, 0x1d
800061cc: 93 98 38 00  	slli	a7, a7, 0x3
800061d0: 13 98 37 00  	slli	a6, a5, 0x3
800061d4: b3 67 7e 00  	or	a5, t3, t2
800061d8: b3 e7 f8 00  	or	a5, a7, a5
800061dc: b3 48 d6 01  	xor	a7, a2, t4
800061e0: b3 38 10 01  	snez	a7, a7
800061e4: 0b ae 18 00  	vx_split_n	t3, a7
800061e8: 63 8c 08 0a  	beqz	a7, 0x800062a0 <__adddf3+0x5fc>
800061ec: 13 0f 00 00  	li	t5, 0x0
800061f0: b3 0e d6 41  	sub	t4, a2, t4
800061f4: 13 ba 0e 04  	sltiu	s4, t4, 0x40
800061f8: 8b 28 1a 00  	vx_split_n	a7, s4
800061fc: 93 0f 10 00  	li	t6, 0x1
80006200: 63 0a 0a 08  	beqz	s4, 0x80006294 <__adddf3+0x5f0>
80006204: 13 0f 00 04  	li	t5, 0x40
80006208: 33 0f df 41  	sub	t5, t5, t4
8000620c: b3 0f d0 41  	neg	t6, t4
80006210: 33 1a f8 01  	sll	s4, a6, t6
80006214: 93 0a 00 02  	li	s5, 0x20
80006218: b3 8a da 41  	sub	s5, s5, t4
8000621c: 93 aa 0a 00  	slti	s5, s5, 0x0
80006220: 93 0d 0c 00  	mv	s11, s8
80006224: 33 7c 5a 0f  	czero.nez	s8, s4, s5
80006228: b3 9f f7 01  	sll	t6, a5, t6
8000622c: 13 4f ff ff  	not	t5, t5
80006230: 93 85 0c 00  	mv	a1, s9
80006234: 93 5c 18 00  	srli	s9, a6, 0x1
80006238: 33 df ec 01  	srl	t5, s9, t5
8000623c: 93 8c 05 00  	mv	s9, a1
80006240: 93 05 f0 ff  	li	a1, -0x1
80006244: 33 ef ef 01  	or	t5, t6, t5
80006248: 33 5f 5f 0f  	czero.eqz	t5, t5, s5
8000624c: b3 5f 5a 0f  	czero.eqz	t6, s4, s5
80006250: b3 ef 8f 01  	or	t6, t6, s8
80006254: 13 8c 0d 00  	mv	s8, s11
80006258: 33 ef ef 01  	or	t5, t6, t5
8000625c: b3 3f e0 01  	snez	t6, t5
80006260: 33 58 d8 01  	srl	a6, a6, t4
80006264: 13 cf fe ff  	not	t5, t4
80006268: 13 9a 17 00  	slli	s4, a5, 0x1
8000626c: 33 1f ea 01  	sll	t5, s4, t5
80006270: 33 68 e8 01  	or	a6, a6, t5
80006274: 13 8f 0e fe  	addi	t5, t4, -0x20
80006278: 13 2f 0f 00  	slti	t5, t5, 0x0
8000627c: 33 58 e8 0f  	czero.eqz	a6, a6, t5
80006280: b3 d7 d7 01  	srl	a5, a5, t4
80006284: b3 fe e7 0f  	czero.nez	t4, a5, t5
80006288: 33 68 d8 01  	or	a6, a6, t4
8000628c: 33 df e7 0f  	czero.eqz	t5, a5, t5
80006290: b3 6f f8 01  	or	t6, a6, t6
80006294: 0b b0 08 00  	vx_join	a7
80006298: 13 88 0f 00  	mv	a6, t6
8000629c: 93 07 0f 00  	mv	a5, t5
800062a0: b3 7f 57 00  	and	t6, a4, t0
800062a4: 93 92 36 00  	slli	t0, a3, 0x3
800062a8: b3 68 73 00  	or	a7, t1, t2
800062ac: 0b 30 0e 00  	vx_join	t3
800062b0: 13 0e 00 00  	li	t3, 0x0
800062b4: 13 df fc 01  	srli	t5, s9, 0x1f
800062b8: 0b 23 1f 00  	vx_split_n	t1, t5
800062bc: 93 03 10 00  	li	t2, 0x1
800062c0: 63 00 0f 1c  	beqz	t5, 0x80006480 <__adddf3+0x7dc>
800062c4: 13 0e 00 00  	li	t3, 0x0
800062c8: b3 c6 02 01  	xor	a3, t0, a6
800062cc: 33 c7 f8 00  	xor	a4, a7, a5
800062d0: b3 e6 e6 00  	or	a3, a3, a4
800062d4: 33 3f d0 00  	snez	t5, a3
800062d8: 8b 23 1f 00  	vx_split_n	t2, t5
800062dc: 63 0a 0f 18  	beqz	t5, 0x80006470 <__adddf3+0x7cc>
800062e0: b3 b6 02 01  	sltu	a3, t0, a6
800062e4: 33 87 f8 40  	sub	a4, a7, a5
800062e8: b3 06 d7 40  	sub	a3, a4, a3
800062ec: 33 87 02 41  	sub	a4, t0, a6
800062f0: 13 de 76 01  	srli	t3, a3, 0x17
800062f4: 13 3f 1e 00  	seqz	t5, t3
800062f8: 0b 2e 1f 00  	vx_split_n	t3, t5
800062fc: 93 0e 06 00  	mv	t4, a2
80006300: 63 04 0f 16  	beqz	t5, 0x80006468 <__adddf3+0x7c4>
80006304: 93 8d 0f 00  	mv	s11, t6
80006308: b3 3f d0 00  	snez	t6, a3
8000630c: 8b ae 1f 00  	vx_split_n	t4, t6
80006310: 13 0f 10 00  	li	t5, 0x1
80006314: 63 82 0f 08  	beqz	t6, 0x80006398 <__adddf3+0x6f4>
80006318: 13 0f 00 00  	li	t5, 0x0
8000631c: 93 df 16 00  	srli	t6, a3, 0x1
80006320: b3 ef f6 01  	or	t6, a3, t6
80006324: 13 da 2f 00  	srli	s4, t6, 0x2
80006328: b3 ef 4f 01  	or	t6, t6, s4
8000632c: 13 da 4f 00  	srli	s4, t6, 0x4
80006330: b3 ef 4f 01  	or	t6, t6, s4
80006334: 13 da 8f 00  	srli	s4, t6, 0x8
80006338: b3 ef 4f 01  	or	t6, t6, s4
8000633c: 13 da 0f 01  	srli	s4, t6, 0x10
80006340: b3 ef 4f 01  	or	t6, t6, s4
80006344: 93 cf ff ff  	not	t6, t6
80006348: 13 da 1f 00  	srli	s4, t6, 0x1
8000634c: b7 5a 55 55  	lui	s5, 0x55555
80006350: 93 8a 5a 55  	addi	s5, s5, 0x555
80006354: 33 7a 5a 01  	and	s4, s4, s5
80006358: b3 8f 4f 41  	sub	t6, t6, s4
8000635c: 37 3a 33 33  	lui	s4, 0x33333
80006360: 13 0a 3a 33  	addi	s4, s4, 0x333
80006364: b3 fa 4f 01  	and	s5, t6, s4
80006368: 93 df 2f 00  	srli	t6, t6, 0x2
8000636c: b3 ff 4f 01  	and	t6, t6, s4
80006370: b3 8f fa 01  	add	t6, s5, t6
80006374: 13 da 4f 00  	srli	s4, t6, 0x4
80006378: b3 8f 4f 01  	add	t6, t6, s4
8000637c: 37 1a 0f 0f  	lui	s4, 0xf0f1
80006380: 13 0a fa f0  	addi	s4, s4, -0xf1
80006384: b3 ff 4f 01  	and	t6, t6, s4
80006388: 37 0a 01 01  	lui	s4, 0x1010
8000638c: 13 0a 1a 10  	addi	s4, s4, 0x101
80006390: b3 8f 4f 03  	mul	t6, t6, s4
80006394: 13 da 8f 01  	srli	s4, t6, 0x18
80006398: 0b b0 0e 00  	vx_join	t4
8000639c: 8b 2f 1f 00  	vx_split_n	t6, t5
800063a0: 93 5e 17 00  	srli	t4, a4, 0x1
800063a4: 63 00 0f 08  	beqz	t5, 0x80006424 <__adddf3+0x780>
800063a8: 33 6f d7 01  	or	t5, a4, t4
800063ac: 13 5a 2f 00  	srli	s4, t5, 0x2
800063b0: 33 6f 4f 01  	or	t5, t5, s4
800063b4: 13 5a 4f 00  	srli	s4, t5, 0x4
800063b8: 33 6f 4f 01  	or	t5, t5, s4
800063bc: 13 5a 8f 00  	srli	s4, t5, 0x8
800063c0: 33 6f 4f 01  	or	t5, t5, s4
800063c4: 13 5a 0f 01  	srli	s4, t5, 0x10
800063c8: 33 6f 4f 01  	or	t5, t5, s4
800063cc: 13 4f ff ff  	not	t5, t5
800063d0: 13 5a 1f 00  	srli	s4, t5, 0x1
800063d4: b7 5a 55 55  	lui	s5, 0x55555
800063d8: 93 8a 5a 55  	addi	s5, s5, 0x555
800063dc: 33 7a 5a 01  	and	s4, s4, s5
800063e0: 33 0f 4f 41  	sub	t5, t5, s4
800063e4: 37 3a 33 33  	lui	s4, 0x33333
800063e8: 13 0a 3a 33  	addi	s4, s4, 0x333
800063ec: b3 7a 4f 01  	and	s5, t5, s4
800063f0: 13 5f 2f 00  	srli	t5, t5, 0x2
800063f4: 33 7f 4f 01  	and	t5, t5, s4
800063f8: 33 8f ea 01  	add	t5, s5, t5
800063fc: 13 5a 4f 00  	srli	s4, t5, 0x4
80006400: 33 0f 4f 01  	add	t5, t5, s4
80006404: 37 1a 0f 0f  	lui	s4, 0xf0f1
80006408: 13 0a fa f0  	addi	s4, s4, -0xf1
8000640c: 33 7f 4f 01  	and	t5, t5, s4
80006410: 37 0a 01 01  	lui	s4, 0x1010
80006414: 13 0a 1a 10  	addi	s4, s4, 0x101
80006418: 33 0f 4f 03  	mul	t5, t5, s4
8000641c: 13 5f 8f 01  	srli	t5, t5, 0x18
80006420: 13 6a 0f 02  	ori	s4, t5, 0x20
80006424: 0b b0 0f 00  	vx_join	t6
80006428: 13 0f 8a ff  	addi	t5, s4, -0x8
8000642c: 93 0f 70 02  	li	t6, 0x27
80006430: b3 8f 4f 41  	sub	t6, t6, s4
80006434: b3 de fe 01  	srl	t4, t4, t6
80006438: b3 96 e6 01  	sll	a3, a3, t5
8000643c: b3 e6 d6 01  	or	a3, a3, t4
80006440: 93 0e 8a fd  	addi	t4, s4, -0x28
80006444: 93 af 0e 00  	slti	t6, t4, 0x0
80006448: b3 d6 f6 0f  	czero.eqz	a3, a3, t6
8000644c: b3 1e d7 01  	sll	t4, a4, t4
80006450: b3 fe fe 0f  	czero.nez	t4, t4, t6
80006454: b3 e6 d6 01  	or	a3, a3, t4
80006458: 33 17 e7 01  	sll	a4, a4, t5
8000645c: 33 57 f7 0f  	czero.eqz	a4, a4, t6
80006460: b3 0e e6 41  	sub	t4, a2, t5
80006464: 93 8f 0d 00  	mv	t6, s11
80006468: 0b 30 0e 00  	vx_join	t3
8000646c: 13 0e 10 00  	li	t3, 0x1
80006470: 0b b0 03 00  	vx_join	t2
80006474: 93 03 00 00  	li	t2, 0x0
80006478: 13 0a 00 00  	li	s4, 0x0
8000647c: 93 0a 00 00  	li	s5, 0x0
80006480: 0b 30 03 00  	vx_join	t1
80006484: 0b a3 13 00  	vx_split_n	t1, t2
80006488: 63 86 03 04  	beqz	t2, 0x800064d4 <__adddf3+0x830>
8000648c: b3 02 58 00  	add	t0, a6, t0
80006490: b3 b6 02 01  	sltu	a3, t0, a6
80006494: b3 87 17 01  	add	a5, a5, a7
80006498: b3 86 d7 00  	add	a3, a5, a3
8000649c: 37 07 00 01  	lui	a4, 0x1000
800064a0: 33 f7 e6 00  	and	a4, a3, a4
800064a4: 93 77 18 00  	andi	a5, a6, 0x1
800064a8: 13 98 f6 01  	slli	a6, a3, 0x1f
800064ac: 93 d8 12 00  	srli	a7, t0, 0x1
800064b0: b3 e7 f8 00  	or	a5, a7, a5
800064b4: b3 e7 07 01  	or	a5, a5, a6
800064b8: 93 5e 87 01  	srli	t4, a4, 0x18
800064bc: b3 d6 d6 01  	srl	a3, a3, t4
800064c0: b3 d7 e7 0e  	czero.eqz	a5, a5, a4
800064c4: 33 f7 e2 0e  	czero.nez	a4, t0, a4
800064c8: 33 67 f7 00  	or	a4, a4, a5
800064cc: b3 0e d6 01  	add	t4, a2, t4
800064d0: 13 0e 10 00  	li	t3, 0x1
800064d4: 0b 30 03 00  	vx_join	t1
800064d8: 8b 2d 1e 00  	vx_split_n	s11, t3
800064dc: 63 04 0e 22  	beqz	t3, 0x80006704 <__adddf3+0xa60>
800064e0: 93 a7 fe 7f  	slti	a5, t4, 0x7ff
800064e4: 0b a6 17 00  	vx_split_n	a2, a5
800064e8: 23 2a c1 00  	sw	a2, 0x14(sp)
800064ec: 13 06 10 00  	li	a2, 0x1
800064f0: 63 8a 07 1e  	beqz	a5, 0x800066e4 <__adddf3+0xa40>
800064f4: 93 a7 1e 00  	slti	a5, t4, 0x1
800064f8: 0b a6 17 00  	vx_split_n	a2, a5
800064fc: 63 86 07 08  	beqz	a5, 0x80006588 <__adddf3+0x8e4>
80006500: 93 07 10 00  	li	a5, 0x1
80006504: b3 87 d7 41  	sub	a5, a5, t4
80006508: 13 88 fe 03  	addi	a6, t4, 0x3f
8000650c: b3 08 d0 41  	neg	a7, t4
80006510: 93 52 17 00  	srli	t0, a4, 0x1
80006514: b3 d8 12 01  	srl	a7, t0, a7
80006518: b3 92 06 01  	sll	t0, a3, a6
8000651c: b3 e8 12 01  	or	a7, t0, a7
80006520: 93 82 fe 01  	addi	t0, t4, 0x1f
80006524: 13 a3 02 00  	slti	t1, t0, 0x0
80006528: b3 d8 68 0e  	czero.eqz	a7, a7, t1
8000652c: b3 12 57 00  	sll	t0, a4, t0
80006530: b3 f2 62 0e  	czero.nez	t0, t0, t1
80006534: 33 18 07 01  	sll	a6, a4, a6
80006538: 33 58 68 0e  	czero.eqz	a6, a6, t1
8000653c: 33 68 58 00  	or	a6, a6, t0
80006540: 33 68 18 01  	or	a6, a6, a7
80006544: 33 38 00 01  	snez	a6, a6
80006548: 93 08 10 fe  	li	a7, -0x1f
8000654c: b3 88 d8 41  	sub	a7, a7, t4
80006550: b3 d2 16 01  	srl	t0, a3, a7
80006554: 93 a8 08 00  	slti	a7, a7, 0x0
80006558: b3 f2 12 0f  	czero.nez	t0, t0, a7
8000655c: 33 57 f7 00  	srl	a4, a4, a5
80006560: 13 c3 f7 ff  	not	t1, a5
80006564: 93 93 16 00  	slli	t2, a3, 0x1
80006568: 33 93 63 00  	sll	t1, t2, t1
8000656c: 33 67 67 00  	or	a4, a4, t1
80006570: 33 57 17 0f  	czero.eqz	a4, a4, a7
80006574: 33 67 57 00  	or	a4, a4, t0
80006578: b3 d6 f6 00  	srl	a3, a3, a5
8000657c: b3 d6 16 0f  	czero.eqz	a3, a3, a7
80006580: 33 67 07 01  	or	a4, a4, a6
80006584: 93 0e 00 00  	li	t4, 0x0
80006588: 23 20 71 01  	sw	s7, 0x0(sp)
8000658c: 23 22 91 01  	sw	s9, 0x4(sp)
80006590: 23 24 81 01  	sw	s8, 0x8(sp)
80006594: 23 28 11 00  	sw	ra, 0x10(sp)
80006598: 23 26 a1 01  	sw	s10, 0xc(sp)
8000659c: 0b 30 06 00  	vx_join	a2
800065a0: 13 7d 77 00  	andi	s10, a4, 0x7
800065a4: 13 57 37 00  	srli	a4, a4, 0x3
800065a8: 13 96 d6 01  	slli	a2, a3, 0x1d
800065ac: 33 66 c7 00  	or	a2, a4, a2
800065b0: 93 d6 36 00  	srli	a3, a3, 0x3
800065b4: 33 7c b6 00  	and	s8, a2, a1
800065b8: 33 f5 a6 00  	and	a0, a3, a0
800065bc: 93 9e 4e 01  	slli	t4, t4, 0x14
800065c0: 33 e5 ae 00  	or	a0, t4, a0
800065c4: b3 6c f5 01  	or	s9, a0, t6
800065c8: 93 8b 0f 00  	mv	s7, t6
800065cc: ef 20 80 4f  	jal	0x80008ac4 <__fe_getround>
800065d0: 93 8f 0b 00  	mv	t6, s7
800065d4: b3 26 a0 00  	sgtz	a3, a0
800065d8: 8b a5 16 00  	vx_split_n	a1, a3
800065dc: 13 06 10 00  	li	a2, 0x1
800065e0: 63 8e 06 06  	beqz	a3, 0x8000665c <__adddf3+0x9b8>
800065e4: 13 26 25 00  	slti	a2, a0, 0x2
800065e8: 13 47 16 00  	xori	a4, a2, 0x1
800065ec: 0b 26 17 00  	vx_split_n	a2, a4
800065f0: 93 06 10 00  	li	a3, 0x1
800065f4: 63 0e 07 02  	beqz	a4, 0x80006630 <__adddf3+0x98c>
800065f8: 93 06 e5 ff  	addi	a3, a0, -0x2
800065fc: 13 b7 16 00  	seqz	a4, a3
80006600: 8b 26 17 00  	vx_split_n	a3, a4
80006604: 13 0a 0c 00  	mv	s4, s8
80006608: 93 8a 0c 00  	mv	s5, s9
8000660c: 63 0e 07 00  	beqz	a4, 0x80006628 <__adddf3+0x984>
80006610: 13 b7 1f 00  	seqz	a4, t6
80006614: b3 37 a0 01  	snez	a5, s10
80006618: 33 77 f7 00  	and	a4, a4, a5
8000661c: 33 0a ec 00  	add	s4, s8, a4
80006620: b3 3a 8a 01  	sltu	s5, s4, s8
80006624: b3 8a 5c 01  	add	s5, s9, s5
80006628: 0b b0 06 00  	vx_join	a3
8000662c: 93 06 00 00  	li	a3, 0x0
80006630: 0b 30 06 00  	vx_join	a2
80006634: 0b a6 16 00  	vx_split_n	a2, a3
80006638: 63 8e 06 00  	beqz	a3, 0x80006654 <__adddf3+0x9b0>
8000663c: b3 36 f0 01  	snez	a3, t6
80006640: 33 37 a0 01  	snez	a4, s10
80006644: b3 f6 e6 00  	and	a3, a3, a4
80006648: 33 0a dc 00  	add	s4, s8, a3
8000664c: b3 3a 8a 01  	sltu	s5, s4, s8
80006650: b3 8a 5c 01  	add	s5, s9, s5
80006654: 0b 30 06 00  	vx_join	a2
80006658: 13 06 00 00  	li	a2, 0x0
8000665c: 0b b0 05 00  	vx_join	a1
80006660: 8b 25 16 00  	vx_split_n	a1, a2
80006664: 83 20 01 01  	lw	ra, 0x10(sp)
80006668: 63 04 06 04  	beqz	a2, 0x800066b0 <__adddf3+0xa0c>
8000666c: 13 36 15 00  	seqz	a2, a0
80006670: 0b 25 16 00  	vx_split_n	a0, a2
80006674: 63 08 06 02  	beqz	a2, 0x800066a4 <__adddf3+0xa00>
80006678: 13 36 5d 00  	sltiu	a2, s10, 0x5
8000667c: 13 46 16 00  	xori	a2, a2, 0x1
80006680: 33 06 cc 00  	add	a2, s8, a2
80006684: b3 36 86 01  	sltu	a3, a2, s8
80006688: 13 07 cd ff  	addi	a4, s10, -0x4
8000668c: 13 37 17 00  	seqz	a4, a4
80006690: 33 77 c7 00  	and	a4, a4, a2
80006694: 33 0c c7 00  	add	s8, a4, a2
80006698: 33 36 ec 00  	sltu	a2, s8, a4
8000669c: 33 86 c6 00  	add	a2, a3, a2
800066a0: b3 8c cc 00  	add	s9, s9, a2
800066a4: 0b 30 05 00  	vx_join	a0
800066a8: 13 0a 0c 00  	mv	s4, s8
800066ac: 93 8a 0c 00  	mv	s5, s9
800066b0: 0b b0 05 00  	vx_join	a1
800066b4: 33 35 a0 01  	snez	a0, s10
800066b8: 0b 2c 15 00  	vx_split_n	s8, a0
800066bc: 83 2c 41 00  	lw	s9, 0x4(sp)
800066c0: 63 08 05 00  	beqz	a0, 0x800066d0 <__adddf3+0xa2c>
800066c4: ef 20 40 43  	jal	0x80008af8 <__fe_raise_inexact>
800066c8: 93 8f 0b 00  	mv	t6, s7
800066cc: 83 20 01 01  	lw	ra, 0x10(sp)
800066d0: 0b 30 0c 00  	vx_join	s8
800066d4: 03 2d c1 00  	lw	s10, 0xc(sp)
800066d8: 13 06 00 00  	li	a2, 0x0
800066dc: 03 2c 81 00  	lw	s8, 0x8(sp)
800066e0: 83 2b 01 00  	lw	s7, 0x0(sp)
800066e4: 03 25 41 01  	lw	a0, 0x14(sp)
800066e8: 0b 30 05 00  	vx_join	a0
800066ec: 0b 25 16 00  	vx_split_n	a0, a2
800066f0: 63 08 06 00  	beqz	a2, 0x80006700 <__adddf3+0xa5c>
800066f4: 13 0a 00 00  	li	s4, 0x0
800066f8: b7 05 f0 7f  	lui	a1, 0x7ff00
800066fc: b3 ea bf 00  	or	s5, t6, a1
80006700: 0b 30 05 00  	vx_join	a0
80006704: 0b b0 0d 00  	vx_join	s11
80006708: 03 25 81 01  	lw	a0, 0x18(sp)
8000670c: 0b 30 05 00  	vx_join	a0
80006710: 0b a5 1b 00  	vx_split_n	a0, s7
80006714: 63 84 0b 02  	beqz	s7, 0x8000673c <__adddf3+0xa98>
80006718: b3 65 69 01  	or	a1, s2, s6
8000671c: 33 76 89 00  	and	a2, s2, s0
80006720: b3 f6 99 00  	and	a3, s3, s1
80006724: b3 f6 b6 0e  	czero.nez	a3, a3, a1
80006728: 33 d7 b9 0e  	czero.eqz	a4, s3, a1
8000672c: b3 ea e6 00  	or	s5, a3, a4
80006730: 33 76 b6 0e  	czero.nez	a2, a2, a1
80006734: b3 55 b9 0e  	czero.eqz	a1, s2, a1
80006738: 33 6a b6 00  	or	s4, a2, a1
8000673c: 0b 30 05 00  	vx_join	a0
80006740: 0b 25 1d 00  	vx_split_n	a0, s10
80006744: 63 04 0d 02  	beqz	s10, 0x8000676c <__adddf3+0xac8>
80006748: b3 45 89 00  	xor	a1, s2, s0
8000674c: 37 06 00 80  	lui	a2, 0x80000
80006750: 33 c6 cc 00  	xor	a2, s9, a2
80006754: b3 e5 c5 00  	or	a1, a1, a2
80006758: 33 d6 b4 0e  	czero.eqz	a2, s1, a1
8000675c: b7 06 f8 7f  	lui	a3, 0x7ff80
80006760: b3 f6 b6 0e  	czero.nez	a3, a3, a1
80006764: b3 ea c6 00  	or	s5, a3, a2
80006768: 33 5a b4 0e  	czero.eqz	s4, s0, a1
8000676c: 0b 30 05 00  	vx_join	a0
80006770: 0b a5 10 00  	vx_split_n	a0, ra
80006774: 63 88 00 00  	beqz	ra, 0x80006784 <__adddf3+0xae0>
80006778: b7 05 08 00  	lui	a1, 0x80
8000677c: b3 ea b9 00  	or	s5, s3, a1
80006780: 13 0a 09 00  	mv	s4, s2
80006784: 0b 30 05 00  	vx_join	a0
80006788: 0b 25 1c 00  	vx_split_n	a0, s8
8000678c: 63 08 0c 00  	beqz	s8, 0x8000679c <__adddf3+0xaf8>
80006790: b7 05 08 00  	lui	a1, 0x80
80006794: b3 ea b4 00  	or	s5, s1, a1
80006798: 13 0a 04 00  	mv	s4, s0
8000679c: 0b 30 05 00  	vx_join	a0
800067a0: 13 05 0a 00  	mv	a0, s4
800067a4: 93 85 0a 00  	mv	a1, s5
800067a8: 83 20 c1 04  	lw	ra, 0x4c(sp)
800067ac: 03 24 81 04  	lw	s0, 0x48(sp)
800067b0: 83 24 41 04  	lw	s1, 0x44(sp)
800067b4: 03 29 01 04  	lw	s2, 0x40(sp)
800067b8: 83 29 c1 03  	lw	s3, 0x3c(sp)
800067bc: 03 2a 81 03  	lw	s4, 0x38(sp)
800067c0: 83 2a 41 03  	lw	s5, 0x34(sp)
800067c4: 03 2b 01 03  	lw	s6, 0x30(sp)
800067c8: 83 2b c1 02  	lw	s7, 0x2c(sp)
800067cc: 03 2c 81 02  	lw	s8, 0x28(sp)
800067d0: 83 2c 41 02  	lw	s9, 0x24(sp)
800067d4: 03 2d 01 02  	lw	s10, 0x20(sp)
800067d8: 83 2d c1 01  	lw	s11, 0x1c(sp)
800067dc: 13 01 01 05  	addi	sp, sp, 0x50
800067e0: 67 80 00 00  	ret

800067e4 <__nedf2>:
800067e4: 37 07 00 80  	lui	a4, 0x80000
800067e8: 13 07 f7 ff  	addi	a4, a4, -0x1
800067ec: 33 f8 e5 00  	and	a6, a1, a4
800067f0: b3 f8 e6 00  	and	a7, a3, a4
800067f4: 37 07 f0 7f  	lui	a4, 0x7ff00
800067f8: b3 47 e8 00  	xor	a5, a6, a4
800067fc: 93 52 48 01  	srli	t0, a6, 0x14
80006800: 93 b2 f2 7f  	sltiu	t0, t0, 0x7ff
80006804: b3 d2 f2 0e  	czero.eqz	t0, t0, a5
80006808: 13 33 15 00  	seqz	t1, a0
8000680c: b3 77 f3 0e  	czero.nez	a5, t1, a5
80006810: b3 e7 57 00  	or	a5, a5, t0
80006814: 33 c7 e8 00  	xor	a4, a7, a4
80006818: 93 d2 48 01  	srli	t0, a7, 0x14
8000681c: 93 b2 f2 7f  	sltiu	t0, t0, 0x7ff
80006820: b3 d2 e2 0e  	czero.eqz	t0, t0, a4
80006824: 13 33 16 00  	seqz	t1, a2
80006828: 33 77 e3 0e  	czero.nez	a4, t1, a4
8000682c: 33 67 57 00  	or	a4, a4, t0
80006830: b3 f2 e7 00  	and	t0, a5, a4
80006834: 8b a7 12 00  	vx_split_n	a5, t0
80006838: 13 07 10 00  	li	a4, 0x1
8000683c: 63 8a 02 08  	beqz	t0, 0x800068d0 <__nedf2+0xec>
80006840: 13 07 00 00  	li	a4, 0x0
80006844: b3 62 a6 00  	or	t0, a2, a0
80006848: 33 e8 08 01  	or	a6, a7, a6
8000684c: 33 e8 02 01  	or	a6, t0, a6
80006850: b3 38 00 01  	snez	a7, a6
80006854: 0b a8 18 00  	vx_split_n	a6, a7
80006858: 63 8a 08 06  	beqz	a7, 0x800068cc <__nedf2+0xe8>
8000685c: 33 f7 b6 00  	and	a4, a3, a1
80006860: b3 48 c5 00  	xor	a7, a0, a2
80006864: b3 c2 d5 00  	xor	t0, a1, a3
80006868: b3 e8 58 00  	or	a7, a7, t0
8000686c: b3 38 10 01  	snez	a7, a7
80006870: 13 5e f7 01  	srli	t3, a4, 0x1f
80006874: 0b 23 1e 00  	vx_split_n	t1, t3
80006878: 93 03 10 00  	li	t2, 0x1
8000687c: 63 02 0e 02  	beqz	t3, 0x800068a0 <__nedf2+0xbc>
80006880: 93 03 00 00  	li	t2, 0x0
80006884: 33 a7 b6 00  	slt	a4, a3, a1
80006888: 33 57 57 0e  	czero.eqz	a4, a4, t0
8000688c: 33 3e a6 00  	sltu	t3, a2, a0
80006890: 33 7e 5e 0e  	czero.nez	t3, t3, t0
80006894: 33 67 ee 00  	or	a4, t3, a4
80006898: 33 07 e0 40  	neg	a4, a4
8000689c: 33 67 17 01  	or	a4, a4, a7
800068a0: 0b 30 03 00  	vx_join	t1
800068a4: 0b a3 13 00  	vx_split_n	t1, t2
800068a8: 63 80 03 02  	beqz	t2, 0x800068c8 <__nedf2+0xe4>
800068ac: b3 a5 d5 00  	slt	a1, a1, a3
800068b0: b3 d5 55 0e  	czero.eqz	a1, a1, t0
800068b4: 33 35 c5 00  	sltu	a0, a0, a2
800068b8: 33 75 55 0e  	czero.nez	a0, a0, t0
800068bc: 33 65 b5 00  	or	a0, a0, a1
800068c0: 33 05 a0 40  	neg	a0, a0
800068c4: 33 67 15 01  	or	a4, a0, a7
800068c8: 0b 30 03 00  	vx_join	t1
800068cc: 0b 30 08 00  	vx_join	a6
800068d0: 0b b0 07 00  	vx_join	a5
800068d4: 13 05 07 00  	mv	a0, a4
800068d8: 67 80 00 00  	ret

800068dc <__gtdf2>:
800068dc: 37 07 00 80  	lui	a4, 0x80000
800068e0: 13 07 f7 ff  	addi	a4, a4, -0x1
800068e4: 33 f8 e5 00  	and	a6, a1, a4
800068e8: b3 f8 e6 00  	and	a7, a3, a4
800068ec: 37 07 f0 7f  	lui	a4, 0x7ff00
800068f0: b3 47 e8 00  	xor	a5, a6, a4
800068f4: 93 52 48 01  	srli	t0, a6, 0x14
800068f8: 93 b2 f2 7f  	sltiu	t0, t0, 0x7ff
800068fc: b3 d2 f2 0e  	czero.eqz	t0, t0, a5
80006900: 13 33 15 00  	seqz	t1, a0
80006904: b3 77 f3 0e  	czero.nez	a5, t1, a5
80006908: b3 e7 57 00  	or	a5, a5, t0
8000690c: 33 c7 e8 00  	xor	a4, a7, a4
80006910: 93 d2 48 01  	srli	t0, a7, 0x14
80006914: 93 b2 f2 7f  	sltiu	t0, t0, 0x7ff
80006918: b3 d2 e2 0e  	czero.eqz	t0, t0, a4
8000691c: 13 33 16 00  	seqz	t1, a2
80006920: 33 77 e3 0e  	czero.nez	a4, t1, a4
80006924: 33 67 57 00  	or	a4, a4, t0
80006928: b3 f2 e7 00  	and	t0, a5, a4
8000692c: 8b a7 12 00  	vx_split_n	a5, t0
80006930: 13 07 f0 ff  	li	a4, -0x1
80006934: 63 8a 02 08  	beqz	t0, 0x800069c8 <__gtdf2+0xec>
80006938: 13 07 00 00  	li	a4, 0x0
8000693c: b3 62 a6 00  	or	t0, a2, a0
80006940: 33 e8 08 01  	or	a6, a7, a6
80006944: 33 e8 02 01  	or	a6, t0, a6
80006948: b3 38 00 01  	snez	a7, a6
8000694c: 0b a8 18 00  	vx_split_n	a6, a7
80006950: 63 8a 08 06  	beqz	a7, 0x800069c4 <__gtdf2+0xe8>
80006954: 33 f7 b6 00  	and	a4, a3, a1
80006958: b3 48 c5 00  	xor	a7, a0, a2
8000695c: b3 c2 d5 00  	xor	t0, a1, a3
80006960: b3 e8 58 00  	or	a7, a7, t0
80006964: b3 38 10 01  	snez	a7, a7
80006968: 13 5e f7 01  	srli	t3, a4, 0x1f
8000696c: 0b 23 1e 00  	vx_split_n	t1, t3
80006970: 93 03 10 00  	li	t2, 0x1
80006974: 63 02 0e 02  	beqz	t3, 0x80006998 <__gtdf2+0xbc>
80006978: 93 03 00 00  	li	t2, 0x0
8000697c: 33 a7 b6 00  	slt	a4, a3, a1
80006980: 33 57 57 0e  	czero.eqz	a4, a4, t0
80006984: 33 3e a6 00  	sltu	t3, a2, a0
80006988: 33 7e 5e 0e  	czero.nez	t3, t3, t0
8000698c: 33 67 ee 00  	or	a4, t3, a4
80006990: 33 07 e0 40  	neg	a4, a4
80006994: 33 67 17 01  	or	a4, a4, a7
80006998: 0b 30 03 00  	vx_join	t1
8000699c: 0b a3 13 00  	vx_split_n	t1, t2
800069a0: 63 80 03 02  	beqz	t2, 0x800069c0 <__gtdf2+0xe4>
800069a4: b3 a5 d5 00  	slt	a1, a1, a3
800069a8: b3 d5 55 0e  	czero.eqz	a1, a1, t0
800069ac: 33 35 c5 00  	sltu	a0, a0, a2
800069b0: 33 75 55 0e  	czero.nez	a0, a0, t0
800069b4: 33 65 b5 00  	or	a0, a0, a1
800069b8: 33 05 a0 40  	neg	a0, a0
800069bc: 33 67 15 01  	or	a4, a0, a7
800069c0: 0b 30 03 00  	vx_join	t1
800069c4: 0b 30 08 00  	vx_join	a6
800069c8: 0b b0 07 00  	vx_join	a5
800069cc: 13 05 07 00  	mv	a0, a4
800069d0: 67 80 00 00  	ret

800069d4 <__divdf3>:
800069d4: 13 01 01 fc  	addi	sp, sp, -0x40
800069d8: 23 2e 11 02  	sw	ra, 0x3c(sp)
800069dc: 23 2c 81 02  	sw	s0, 0x38(sp)
800069e0: 23 2a 91 02  	sw	s1, 0x34(sp)
800069e4: 23 28 21 03  	sw	s2, 0x30(sp)
800069e8: 23 26 31 03  	sw	s3, 0x2c(sp)
800069ec: 23 24 41 03  	sw	s4, 0x28(sp)
800069f0: 23 22 51 03  	sw	s5, 0x24(sp)
800069f4: 23 20 61 03  	sw	s6, 0x20(sp)
800069f8: 23 2e 71 01  	sw	s7, 0x1c(sp)
800069fc: 23 2c 81 01  	sw	s8, 0x18(sp)
80006a00: 23 2a 91 01  	sw	s9, 0x14(sp)
80006a04: 23 28 a1 01  	sw	s10, 0x10(sp)
80006a08: 23 26 b1 01  	sw	s11, 0xc(sp)
80006a0c: 93 04 00 00  	li	s1, 0x0
80006a10: b7 08 10 00  	lui	a7, 0x100
80006a14: 93 88 f8 ff  	addi	a7, a7, -0x1
80006a18: 13 97 15 00  	slli	a4, a1, 0x1
80006a1c: 93 52 57 01  	srli	t0, a4, 0x15
80006a20: 13 97 16 00  	slli	a4, a3, 0x1
80006a24: 13 53 57 01  	srli	t1, a4, 0x15
80006a28: 33 c7 b6 00  	xor	a4, a3, a1
80006a2c: 37 04 00 80  	lui	s0, 0x80000
80006a30: 33 78 87 00  	and	a6, a4, s0
80006a34: 33 fe 15 01  	and	t3, a1, a7
80006a38: b3 f3 16 01  	and	t2, a3, a7
80006a3c: 13 87 12 80  	addi	a4, t0, -0x7ff
80006a40: 13 37 27 80  	sltiu	a4, a4, -0x7fe
80006a44: 93 07 13 80  	addi	a5, t1, -0x7ff
80006a48: 93 b7 27 80  	sltiu	a5, a5, -0x7fe
80006a4c: 33 6f f7 00  	or	t5, a4, a5
80006a50: 8b 2e 1f 00  	vx_split_n	t4, t5
80006a54: 13 0c 10 00  	li	s8, 0x1
80006a58: 63 0a 0f 54  	beqz	t5, 0x80006fac <__divdf3+0x5d8>
80006a5c: 13 04 f4 ff  	addi	s0, s0, -0x1
80006a60: 33 fb 85 00  	and	s6, a1, s0
80006a64: 37 09 f0 7f  	lui	s2, 0x7ff00
80006a68: 33 47 2b 01  	xor	a4, s6, s2
80006a6c: 93 50 4b 01  	srli	ra, s6, 0x14
80006a70: 93 b7 f0 7f  	sltiu	a5, ra, 0x7ff
80006a74: b3 d7 e7 0e  	czero.eqz	a5, a5, a4
80006a78: 13 3f 15 00  	seqz	t5, a0
80006a7c: 33 77 ef 0e  	czero.nez	a4, t5, a4
80006a80: 33 6a f7 00  	or	s4, a4, a5
80006a84: 0b 2f 1a 00  	vx_split_n	t5, s4
80006a88: 93 0f 10 00  	li	t6, 0x1
80006a8c: 63 0e 0a 4c  	beqz	s4, 0x80006f68 <__divdf3+0x594>
80006a90: 33 f4 86 00  	and	s0, a3, s0
80006a94: 33 47 24 01  	xor	a4, s0, s2
80006a98: 93 37 16 00  	seqz	a5, a2
80006a9c: b3 f7 e7 0e  	czero.nez	a5, a5, a4
80006aa0: 93 5d 44 01  	srli	s11, s0, 0x14
80006aa4: 93 bf fd 7f  	sltiu	t6, s11, 0x7ff
80006aa8: 33 d7 ef 0e  	czero.eqz	a4, t6, a4
80006aac: 33 ea e7 00  	or	s4, a5, a4
80006ab0: 8b 2f 1a 00  	vx_split_n	t6, s4
80006ab4: 13 09 10 00  	li	s2, 0x1
80006ab8: 63 0c 0a 46  	beqz	s4, 0x80006f30 <__divdf3+0x55c>
80006abc: b7 0b f0 7f  	lui	s7, 0x7ff00
80006ac0: 33 47 7b 01  	xor	a4, s6, s7
80006ac4: 33 67 e5 00  	or	a4, a0, a4
80006ac8: 33 39 e0 00  	snez	s2, a4
80006acc: 0b 27 19 00  	vx_split_n	a4, s2
80006ad0: 23 24 e1 00  	sw	a4, 0x8(sp)
80006ad4: 13 0a 10 00  	li	s4, 0x1
80006ad8: 63 02 09 40  	beqz	s2, 0x80006edc <__divdf3+0x508>
80006adc: 33 47 74 01  	xor	a4, s0, s7
80006ae0: 33 67 e6 00  	or	a4, a2, a4
80006ae4: 33 39 e0 00  	snez	s2, a4
80006ae8: 0b 27 19 00  	vx_split_n	a4, s2
80006aec: 23 22 e1 00  	sw	a4, 0x4(sp)
80006af0: 13 0a 10 00  	li	s4, 0x1
80006af4: 63 08 09 3a  	beqz	s2, 0x80006ea4 <__divdf3+0x4d0>
80006af8: 33 67 65 01  	or	a4, a0, s6
80006afc: 33 39 e0 00  	snez	s2, a4
80006b00: 8b 2b 19 00  	vx_split_n	s7, s2
80006b04: 13 0a 10 00  	li	s4, 0x1
80006b08: 33 6b 86 00  	or	s6, a2, s0
80006b0c: 63 0c 09 34  	beqz	s2, 0x80006e64 <__divdf3+0x490>
80006b10: 23 20 71 01  	sw	s7, 0x0(sp)
80006b14: b3 37 60 01  	snez	a5, s6
80006b18: 0b a7 17 00  	vx_split_n	a4, a5
80006b1c: 93 0b 10 00  	li	s7, 0x1
80006b20: 63 84 07 30  	beqz	a5, 0x80006e28 <__divdf3+0x454>
80006b24: 93 04 00 00  	li	s1, 0x0
80006b28: 13 b9 10 00  	seqz	s2, ra
80006b2c: 8b 27 19 00  	vx_split_n	a5, s2
80006b30: 93 09 05 00  	mv	s3, a0
80006b34: 93 0a 0e 00  	mv	s5, t3
80006b38: 63 04 09 16  	beqz	s2, 0x80006ca0 <__divdf3+0x2cc>
80006b3c: 33 39 c0 01  	snez	s2, t3
80006b40: 8b 24 19 00  	vx_split_n	s1, s2
80006b44: 93 09 10 00  	li	s3, 0x1
80006b48: 63 02 09 08  	beqz	s2, 0x80006bcc <__divdf3+0x1f8>
80006b4c: 93 09 00 00  	li	s3, 0x0
80006b50: 13 59 1e 00  	srli	s2, t3, 0x1
80006b54: 33 69 2e 01  	or	s2, t3, s2
80006b58: 13 5a 29 00  	srli	s4, s2, 0x2
80006b5c: 33 69 49 01  	or	s2, s2, s4
80006b60: 13 5a 49 00  	srli	s4, s2, 0x4
80006b64: 33 69 49 01  	or	s2, s2, s4
80006b68: 13 5a 89 00  	srli	s4, s2, 0x8
80006b6c: 33 69 49 01  	or	s2, s2, s4
80006b70: 13 5a 09 01  	srli	s4, s2, 0x10
80006b74: 33 69 49 01  	or	s2, s2, s4
80006b78: 13 49 f9 ff  	not	s2, s2
80006b7c: 13 5a 19 00  	srli	s4, s2, 0x1
80006b80: b7 5a 55 55  	lui	s5, 0x55555
80006b84: 93 8a 5a 55  	addi	s5, s5, 0x555
80006b88: 33 7a 5a 01  	and	s4, s4, s5
80006b8c: 33 09 49 41  	sub	s2, s2, s4
80006b90: 37 3a 33 33  	lui	s4, 0x33333
80006b94: 13 0a 3a 33  	addi	s4, s4, 0x333
80006b98: b3 7a 49 01  	and	s5, s2, s4
80006b9c: 13 59 29 00  	srli	s2, s2, 0x2
80006ba0: 33 79 49 01  	and	s2, s2, s4
80006ba4: 33 89 2a 01  	add	s2, s5, s2
80006ba8: 13 5a 49 00  	srli	s4, s2, 0x4
80006bac: 33 09 49 01  	add	s2, s2, s4
80006bb0: 37 1a 0f 0f  	lui	s4, 0xf0f1
80006bb4: 13 0a fa f0  	addi	s4, s4, -0xf1
80006bb8: 33 79 49 01  	and	s2, s2, s4
80006bbc: 37 0a 01 01  	lui	s4, 0x1010
80006bc0: 13 0a 1a 10  	addi	s4, s4, 0x101
80006bc4: 33 09 49 03  	mul	s2, s2, s4
80006bc8: 13 5a 89 01  	srli	s4, s2, 0x18
80006bcc: 0b b0 04 00  	vx_join	s1
80006bd0: 8b a4 19 00  	vx_split_n	s1, s3
80006bd4: 63 82 09 08  	beqz	s3, 0x80006c58 <__divdf3+0x284>
80006bd8: 13 59 15 00  	srli	s2, a0, 0x1
80006bdc: 33 69 25 01  	or	s2, a0, s2
80006be0: 93 59 29 00  	srli	s3, s2, 0x2
80006be4: 33 69 39 01  	or	s2, s2, s3
80006be8: 93 59 49 00  	srli	s3, s2, 0x4
80006bec: 33 69 39 01  	or	s2, s2, s3
80006bf0: 93 59 89 00  	srli	s3, s2, 0x8
80006bf4: 33 69 39 01  	or	s2, s2, s3
80006bf8: 93 59 09 01  	srli	s3, s2, 0x10
80006bfc: 33 69 39 01  	or	s2, s2, s3
80006c00: 13 49 f9 ff  	not	s2, s2
80006c04: 93 59 19 00  	srli	s3, s2, 0x1
80006c08: 37 5a 55 55  	lui	s4, 0x55555
80006c0c: 13 0a 5a 55  	addi	s4, s4, 0x555
80006c10: b3 f9 49 01  	and	s3, s3, s4
80006c14: 33 09 39 41  	sub	s2, s2, s3
80006c18: b7 39 33 33  	lui	s3, 0x33333
80006c1c: 93 89 39 33  	addi	s3, s3, 0x333
80006c20: 33 7a 39 01  	and	s4, s2, s3
80006c24: 13 59 29 00  	srli	s2, s2, 0x2
80006c28: 33 79 39 01  	and	s2, s2, s3
80006c2c: 33 09 2a 01  	add	s2, s4, s2
80006c30: 93 59 49 00  	srli	s3, s2, 0x4
80006c34: 33 09 39 01  	add	s2, s2, s3
80006c38: b7 19 0f 0f  	lui	s3, 0xf0f1
80006c3c: 93 89 f9 f0  	addi	s3, s3, -0xf1
80006c40: 33 79 39 01  	and	s2, s2, s3
80006c44: b7 09 01 01  	lui	s3, 0x1010
80006c48: 93 89 19 10  	addi	s3, s3, 0x101
80006c4c: 33 09 39 03  	mul	s2, s2, s3
80006c50: 13 59 89 01  	srli	s2, s2, 0x18
80006c54: 13 6a 09 02  	ori	s4, s2, 0x20
80006c58: 0b b0 04 00  	vx_join	s1
80006c5c: 93 04 5a ff  	addi	s1, s4, -0xb
80006c60: 13 09 a0 02  	li	s2, 0x2a
80006c64: 33 09 49 41  	sub	s2, s2, s4
80006c68: 93 59 15 00  	srli	s3, a0, 0x1
80006c6c: 33 d9 29 01  	srl	s2, s3, s2
80006c70: b3 19 9e 00  	sll	s3, t3, s1
80006c74: 33 e9 29 01  	or	s2, s3, s2
80006c78: 93 09 5a fd  	addi	s3, s4, -0x2b
80006c7c: 93 ab 09 00  	slti	s7, s3, 0x0
80006c80: 33 59 79 0f  	czero.eqz	s2, s2, s7
80006c84: b3 19 35 01  	sll	s3, a0, s3
80006c88: b3 f9 79 0f  	czero.nez	s3, s3, s7
80006c8c: b3 6a 39 01  	or	s5, s2, s3
80006c90: b3 14 95 00  	sll	s1, a0, s1
80006c94: b3 d9 74 0f  	czero.eqz	s3, s1, s7
80006c98: 93 04 c0 00  	li	s1, 0xc
80006c9c: b3 84 44 41  	sub	s1, s1, s4
80006ca0: 0b b0 07 00  	vx_join	a5
80006ca4: 13 b9 1d 00  	seqz	s2, s11
80006ca8: 8b 27 19 00  	vx_split_n	a5, s2
80006cac: 93 0c 06 00  	mv	s9, a2
80006cb0: 13 8d 03 00  	mv	s10, t2
80006cb4: 63 04 09 16  	beqz	s2, 0x80006e1c <__divdf3+0x448>
80006cb8: 33 39 70 00  	snez	s2, t2
80006cbc: 0b 2c 19 00  	vx_split_n	s8, s2
80006cc0: 93 0c 10 00  	li	s9, 0x1
80006cc4: 63 02 09 08  	beqz	s2, 0x80006d48 <__divdf3+0x374>
80006cc8: 93 0c 00 00  	li	s9, 0x0
80006ccc: 13 d9 13 00  	srli	s2, t2, 0x1
80006cd0: 33 e9 23 01  	or	s2, t2, s2
80006cd4: 13 5a 29 00  	srli	s4, s2, 0x2
80006cd8: 33 69 49 01  	or	s2, s2, s4
80006cdc: 13 5a 49 00  	srli	s4, s2, 0x4
80006ce0: 33 69 49 01  	or	s2, s2, s4
80006ce4: 13 5a 89 00  	srli	s4, s2, 0x8
80006ce8: 33 69 49 01  	or	s2, s2, s4
80006cec: 13 5a 09 01  	srli	s4, s2, 0x10
80006cf0: 33 69 49 01  	or	s2, s2, s4
80006cf4: 13 49 f9 ff  	not	s2, s2
80006cf8: 13 5a 19 00  	srli	s4, s2, 0x1
80006cfc: b7 5b 55 55  	lui	s7, 0x55555
80006d00: 93 8b 5b 55  	addi	s7, s7, 0x555
80006d04: 33 7a 7a 01  	and	s4, s4, s7
80006d08: 33 09 49 41  	sub	s2, s2, s4
80006d0c: 37 3a 33 33  	lui	s4, 0x33333
80006d10: 13 0a 3a 33  	addi	s4, s4, 0x333
80006d14: b3 7b 49 01  	and	s7, s2, s4
80006d18: 13 59 29 00  	srli	s2, s2, 0x2
80006d1c: 33 79 49 01  	and	s2, s2, s4
80006d20: 33 89 2b 01  	add	s2, s7, s2
80006d24: 13 5a 49 00  	srli	s4, s2, 0x4
80006d28: 33 09 49 01  	add	s2, s2, s4
80006d2c: 37 1a 0f 0f  	lui	s4, 0xf0f1
80006d30: 13 0a fa f0  	addi	s4, s4, -0xf1
80006d34: 33 79 49 01  	and	s2, s2, s4
80006d38: 37 0a 01 01  	lui	s4, 0x1010
80006d3c: 13 0a 1a 10  	addi	s4, s4, 0x101
80006d40: 33 09 49 03  	mul	s2, s2, s4
80006d44: 93 5b 89 01  	srli	s7, s2, 0x18
80006d48: 0b 30 0c 00  	vx_join	s8
80006d4c: 0b aa 1c 00  	vx_split_n	s4, s9
80006d50: 63 82 0c 08  	beqz	s9, 0x80006dd4 <__divdf3+0x400>
80006d54: 13 59 16 00  	srli	s2, a2, 0x1
80006d58: 33 69 26 01  	or	s2, a2, s2
80006d5c: 93 5b 29 00  	srli	s7, s2, 0x2
80006d60: 33 69 79 01  	or	s2, s2, s7
80006d64: 93 5b 49 00  	srli	s7, s2, 0x4
80006d68: 33 69 79 01  	or	s2, s2, s7
80006d6c: 93 5b 89 00  	srli	s7, s2, 0x8
80006d70: 33 69 79 01  	or	s2, s2, s7
80006d74: 93 5b 09 01  	srli	s7, s2, 0x10
80006d78: 33 69 79 01  	or	s2, s2, s7
80006d7c: 13 49 f9 ff  	not	s2, s2
80006d80: 93 5b 19 00  	srli	s7, s2, 0x1
80006d84: 37 5c 55 55  	lui	s8, 0x55555
80006d88: 13 0c 5c 55  	addi	s8, s8, 0x555
80006d8c: b3 fb 8b 01  	and	s7, s7, s8
80006d90: 33 09 79 41  	sub	s2, s2, s7
80006d94: b7 3b 33 33  	lui	s7, 0x33333
80006d98: 93 8b 3b 33  	addi	s7, s7, 0x333
80006d9c: 33 7c 79 01  	and	s8, s2, s7
80006da0: 13 59 29 00  	srli	s2, s2, 0x2
80006da4: 33 79 79 01  	and	s2, s2, s7
80006da8: 33 09 2c 01  	add	s2, s8, s2
80006dac: 93 5b 49 00  	srli	s7, s2, 0x4
80006db0: 33 09 79 01  	add	s2, s2, s7
80006db4: b7 1b 0f 0f  	lui	s7, 0xf0f1
80006db8: 93 8b fb f0  	addi	s7, s7, -0xf1
80006dbc: 33 79 79 01  	and	s2, s2, s7
80006dc0: b7 0b 01 01  	lui	s7, 0x1010
80006dc4: 93 8b 1b 10  	addi	s7, s7, 0x101
80006dc8: 33 09 79 03  	mul	s2, s2, s7
80006dcc: 13 59 89 01  	srli	s2, s2, 0x18
80006dd0: 93 6b 09 02  	ori	s7, s2, 0x20
80006dd4: 0b 30 0a 00  	vx_join	s4
80006dd8: 13 89 5b ff  	addi	s2, s7, -0xb
80006ddc: 13 0a a0 02  	li	s4, 0x2a
80006de0: 33 0a 7a 41  	sub	s4, s4, s7
80006de4: 13 5c 16 00  	srli	s8, a2, 0x1
80006de8: 33 5a 4c 01  	srl	s4, s8, s4
80006dec: 33 9c 23 01  	sll	s8, t2, s2
80006df0: 33 6a 4c 01  	or	s4, s8, s4
80006df4: 13 8c 5b fd  	addi	s8, s7, -0x2b
80006df8: 93 2c 0c 00  	slti	s9, s8, 0x0
80006dfc: 33 5a 9a 0f  	czero.eqz	s4, s4, s9
80006e00: 33 1c 86 01  	sll	s8, a2, s8
80006e04: 33 7c 9c 0f  	czero.nez	s8, s8, s9
80006e08: 33 6d 8a 01  	or	s10, s4, s8
80006e0c: 33 19 26 01  	sll	s2, a2, s2
80006e10: b3 5c 99 0f  	czero.eqz	s9, s2, s9
80006e14: b3 84 74 01  	add	s1, s1, s7
80006e18: 93 84 44 ff  	addi	s1, s1, -0xc
80006e1c: 0b b0 07 00  	vx_join	a5
80006e20: 93 0b 00 00  	li	s7, 0x0
80006e24: 13 0c 10 00  	li	s8, 0x1
80006e28: 0b 30 07 00  	vx_join	a4
80006e2c: 0b aa 1b 00  	vx_split_n	s4, s7
80006e30: 63 84 0b 02  	beqz	s7, 0x80006e58 <__divdf3+0x484>
80006e34: 13 0c 00 00  	li	s8, 0x0
80006e38: 93 04 00 00  	li	s1, 0x0
80006e3c: 13 07 00 00  	li	a4, 0x0
80006e40: b7 07 f0 7f  	lui	a5, 0x7ff00
80006e44: b3 67 f8 00  	or	a5, a6, a5
80006e48: 93 0c 06 00  	mv	s9, a2
80006e4c: 13 8d 03 00  	mv	s10, t2
80006e50: 93 09 05 00  	mv	s3, a0
80006e54: 93 0a 0e 00  	mv	s5, t3
80006e58: 0b 30 0a 00  	vx_join	s4
80006e5c: 13 0a 00 00  	li	s4, 0x0
80006e60: 83 2b 01 00  	lw	s7, 0x0(sp)
80006e64: 0b b0 0b 00  	vx_join	s7
80006e68: 8b 2b 1a 00  	vx_split_n	s7, s4
80006e6c: 63 08 0a 02  	beqz	s4, 0x80006e9c <__divdf3+0x4c8>
80006e70: 13 0c 00 00  	li	s8, 0x0
80006e74: 93 04 00 00  	li	s1, 0x0
80006e78: 13 07 00 00  	li	a4, 0x0
80006e7c: b3 57 68 0f  	czero.eqz	a5, a6, s6
80006e80: 37 09 f8 7f  	lui	s2, 0x7ff80
80006e84: 33 79 69 0f  	czero.nez	s2, s2, s6
80006e88: b3 67 f9 00  	or	a5, s2, a5
80006e8c: 93 0c 06 00  	mv	s9, a2
80006e90: 13 8d 03 00  	mv	s10, t2
80006e94: 93 09 05 00  	mv	s3, a0
80006e98: 93 0a 0e 00  	mv	s5, t3
80006e9c: 0b b0 0b 00  	vx_join	s7
80006ea0: 13 0a 00 00  	li	s4, 0x0
80006ea4: 03 29 41 00  	lw	s2, 0x4(sp)
80006ea8: 0b 30 09 00  	vx_join	s2
80006eac: 0b 2b 1a 00  	vx_split_n	s6, s4
80006eb0: 63 02 0a 02  	beqz	s4, 0x80006ed4 <__divdf3+0x500>
80006eb4: 13 0c 00 00  	li	s8, 0x0
80006eb8: 93 04 00 00  	li	s1, 0x0
80006ebc: 13 07 00 00  	li	a4, 0x0
80006ec0: 93 0c 06 00  	mv	s9, a2
80006ec4: 13 8d 03 00  	mv	s10, t2
80006ec8: 93 09 05 00  	mv	s3, a0
80006ecc: 93 0a 0e 00  	mv	s5, t3
80006ed0: 93 07 08 00  	mv	a5, a6
80006ed4: 0b 30 0b 00  	vx_join	s6
80006ed8: 13 0a 00 00  	li	s4, 0x0
80006edc: 03 29 81 00  	lw	s2, 0x8(sp)
80006ee0: 0b 30 09 00  	vx_join	s2
80006ee4: 0b 29 1a 00  	vx_split_n	s2, s4
80006ee8: 63 00 0a 04  	beqz	s4, 0x80006f28 <__divdf3+0x554>
80006eec: 13 0c 00 00  	li	s8, 0x0
80006ef0: 93 04 00 00  	li	s1, 0x0
80006ef4: 13 07 00 00  	li	a4, 0x0
80006ef8: b7 07 f0 7f  	lui	a5, 0x7ff00
80006efc: 33 44 f4 00  	xor	s0, s0, a5
80006f00: 33 64 86 00  	or	s0, a2, s0
80006f04: b3 67 f8 00  	or	a5, a6, a5
80006f08: b3 d7 87 0e  	czero.eqz	a5, a5, s0
80006f0c: b7 09 f8 7f  	lui	s3, 0x7ff80
80006f10: 33 f4 89 0e  	czero.nez	s0, s3, s0
80006f14: b3 67 f4 00  	or	a5, s0, a5
80006f18: 93 0c 06 00  	mv	s9, a2
80006f1c: 13 8d 03 00  	mv	s10, t2
80006f20: 93 09 05 00  	mv	s3, a0
80006f24: 93 0a 0e 00  	mv	s5, t3
80006f28: 0b 30 09 00  	vx_join	s2
80006f2c: 13 09 00 00  	li	s2, 0x0
80006f30: 0b b0 0f 00  	vx_join	t6
80006f34: 8b 2f 19 00  	vx_split_n	t6, s2
80006f38: 63 04 09 02  	beqz	s2, 0x80006f60 <__divdf3+0x58c>
80006f3c: 13 0c 00 00  	li	s8, 0x0
80006f40: 93 04 00 00  	li	s1, 0x0
80006f44: b7 07 08 00  	lui	a5, 0x80
80006f48: b3 e7 f6 00  	or	a5, a3, a5
80006f4c: 93 0c 06 00  	mv	s9, a2
80006f50: 13 8d 03 00  	mv	s10, t2
80006f54: 93 09 05 00  	mv	s3, a0
80006f58: 93 0a 0e 00  	mv	s5, t3
80006f5c: 13 07 06 00  	mv	a4, a2
80006f60: 0b b0 0f 00  	vx_join	t6
80006f64: 93 0f 00 00  	li	t6, 0x0
80006f68: 0b 30 0f 00  	vx_join	t5
80006f6c: 8b a6 1f 00  	vx_split_n	a3, t6
80006f70: 63 84 0f 02  	beqz	t6, 0x80006f98 <__divdf3+0x5c4>
80006f74: 93 04 00 00  	li	s1, 0x0
80006f78: 13 0c 00 00  	li	s8, 0x0
80006f7c: b7 07 08 00  	lui	a5, 0x80
80006f80: b3 e7 f5 00  	or	a5, a1, a5
80006f84: 13 07 05 00  	mv	a4, a0
80006f88: 93 09 05 00  	mv	s3, a0
80006f8c: 93 0a 0e 00  	mv	s5, t3
80006f90: 93 0c 06 00  	mv	s9, a2
80006f94: 13 8d 03 00  	mv	s10, t2
80006f98: 0b b0 06 00  	vx_join	a3
80006f9c: 13 86 0c 00  	mv	a2, s9
80006fa0: 93 03 0d 00  	mv	t2, s10
80006fa4: 13 85 09 00  	mv	a0, s3
80006fa8: 13 8e 0a 00  	mv	t3, s5
80006fac: 13 0f f0 ff  	li	t5, -0x1
80006fb0: 0b b0 0e 00  	vx_join	t4
80006fb4: 93 76 1c 00  	andi	a3, s8, 0x1
80006fb8: 8b a5 16 00  	vx_split_n	a1, a3
80006fbc: 63 86 06 3c  	beqz	a3, 0x80007388 <__divdf3+0x9b4>
80006fc0: 93 06 1f 00  	addi	a3, t5, 0x1
80006fc4: 13 b7 16 00  	seqz	a4, a3
80006fc8: 33 87 e8 00  	add	a4, a7, a4
80006fcc: b3 6e ee 00  	or	t4, t3, a4
80006fd0: 33 6e d5 00  	or	t3, a0, a3
80006fd4: b3 e3 e3 00  	or	t2, t2, a4
80006fd8: b3 66 d6 00  	or	a3, a2, a3
80006fdc: 33 87 62 40  	sub	a4, t0, t1
80006fe0: b3 84 e4 00  	add	s1, s1, a4
80006fe4: 13 16 b6 00  	slli	a2, a2, 0xb
80006fe8: 13 d7 56 01  	srli	a4, a3, 0x15
80006fec: 93 97 b3 00  	slli	a5, t2, 0xb
80006ff0: 33 67 f7 00  	or	a4, a4, a5
80006ff4: b7 f7 04 75  	lui	a5, 0x7504f
80006ff8: 93 87 37 33  	addi	a5, a5, 0x333
80006ffc: b3 87 e7 40  	sub	a5, a5, a4
80007000: b3 32 f7 02  	mulhu	t0, a4, a5
80007004: b3 02 50 40  	neg	t0, t0
80007008: 33 83 f2 02  	mul	t1, t0, a5
8000700c: b3 b7 f2 02  	mulhu	a5, t0, a5
80007010: 93 97 17 00  	slli	a5, a5, 0x1
80007014: 93 52 f3 01  	srli	t0, t1, 0x1f
80007018: b3 e7 f2 00  	or	a5, t0, a5
8000701c: b3 b2 e7 02  	mulhu	t0, a5, a4
80007020: b3 02 50 40  	neg	t0, t0
80007024: 33 83 57 02  	mul	t1, a5, t0
80007028: b3 b7 57 02  	mulhu	a5, a5, t0
8000702c: 93 97 17 00  	slli	a5, a5, 0x1
80007030: 93 52 f3 01  	srli	t0, t1, 0x1f
80007034: b3 e7 f2 00  	or	a5, t0, a5
80007038: b3 b2 e7 02  	mulhu	t0, a5, a4
8000703c: b3 02 50 40  	neg	t0, t0
80007040: 33 83 57 02  	mul	t1, a5, t0
80007044: b3 b7 57 02  	mulhu	a5, a5, t0
80007048: 93 97 17 00  	slli	a5, a5, 0x1
8000704c: 93 52 f3 01  	srli	t0, t1, 0x1f
80007050: b3 e7 f2 00  	or	a5, t0, a5
80007054: 93 87 f7 ff  	addi	a5, a5, -0x1
80007058: b3 32 f7 02  	mulhu	t0, a4, a5
8000705c: 33 07 f7 02  	mul	a4, a4, a5
80007060: 33 36 f6 02  	mulhu	a2, a2, a5
80007064: 33 06 c7 00  	add	a2, a4, a2
80007068: 33 37 e6 00  	sltu	a4, a2, a4
8000706c: 33 87 e2 00  	add	a4, t0, a4
80007070: 93 32 26 00  	sltiu	t0, a2, 0x2
80007074: 93 c2 12 00  	xori	t0, t0, 0x1
80007078: 33 07 57 00  	add	a4, a4, t0
8000707c: 33 07 e0 40  	neg	a4, a4
80007080: 13 09 10 00  	li	s2, 0x1
80007084: 33 06 c9 40  	sub	a2, s2, a2
80007088: b3 82 e7 02  	mul	t0, a5, a4
8000708c: 13 d3 f2 01  	srli	t1, t0, 0x1f
80007090: 33 b7 e7 02  	mulhu	a4, a5, a4
80007094: 13 17 17 00  	slli	a4, a4, 0x1
80007098: 33 67 67 00  	or	a4, a4, t1
8000709c: 93 92 12 00  	slli	t0, t0, 0x1
800070a0: 33 03 f6 02  	mul	t1, a2, a5
800070a4: 33 36 f6 02  	mulhu	a2, a2, a5
800070a8: 93 17 16 00  	slli	a5, a2, 0x1
800070ac: 13 53 f3 01  	srli	t1, t1, 0x1f
800070b0: b3 67 f3 00  	or	a5, t1, a5
800070b4: 13 56 f6 01  	srli	a2, a2, 0x1f
800070b8: b3 87 f2 00  	add	a5, t0, a5
800070bc: b3 b2 57 00  	sltu	t0, a5, t0
800070c0: 33 06 c7 00  	add	a2, a4, a2
800070c4: 33 06 56 00  	add	a2, a2, t0
800070c8: 93 82 f7 f1  	addi	t0, a5, -0xe1
800070cc: 33 b7 f2 00  	sltu	a4, t0, a5
800070d0: 33 06 e6 00  	add	a2, a2, a4
800070d4: 13 06 f6 ff  	addi	a2, a2, -0x1
800070d8: 13 57 fe 01  	srli	a4, t3, 0x1f
800070dc: 93 97 1e 00  	slli	a5, t4, 0x1
800070e0: 33 e7 e7 00  	or	a4, a5, a4
800070e4: 93 17 1e 00  	slli	a5, t3, 0x1
800070e8: 33 b3 f2 02  	mulhu	t1, t0, a5
800070ec: b3 bf e2 02  	mulhu	t6, t0, a4
800070f0: b3 82 e2 02  	mul	t0, t0, a4
800070f4: 33 34 f6 02  	mulhu	s0, a2, a5
800070f8: b3 09 f6 02  	mul	s3, a2, a5
800070fc: 33 3a e6 02  	mulhu	s4, a2, a4
80007100: 33 06 e6 02  	mul	a2, a2, a4
80007104: b3 02 53 00  	add	t0, t1, t0
80007108: 33 b3 62 00  	sltu	t1, t0, t1
8000710c: b3 89 32 01  	add	s3, t0, s3
80007110: b3 b2 59 00  	sltu	t0, s3, t0
80007114: b3 02 53 00  	add	t0, t1, t0
80007118: 33 06 c4 00  	add	a2, s0, a2
8000711c: 33 33 86 00  	sltu	t1, a2, s0
80007120: 33 03 6a 00  	add	t1, s4, t1
80007124: b3 0f f6 01  	add	t6, a2, t6
80007128: 33 b6 cf 00  	sltu	a2, t6, a2
8000712c: 33 06 c3 00  	add	a2, t1, a2
80007130: b3 89 5f 00  	add	s3, t6, t0
80007134: 33 ba f9 01  	sltu	s4, s3, t6
80007138: 33 0a 46 01  	add	s4, a2, s4
8000713c: 13 56 5a 01  	srli	a2, s4, 0x15
80007140: 33 3b c0 00  	snez	s6, a2
80007144: 8b 2a 1b 00  	vx_split_n	s5, s6
80007148: 63 04 0b 04  	beqz	s6, 0x80007190 <__divdf3+0x7bc>
8000714c: 13 09 00 00  	li	s2, 0x0
80007150: 13 86 f4 3f  	addi	a2, s1, 0x3ff
80007154: 93 d2 19 00  	srli	t0, s3, 0x1
80007158: 13 13 fa 01  	slli	t1, s4, 0x1f
8000715c: b3 e2 62 00  	or	t0, t0, t1
80007160: 13 53 1a 00  	srli	t1, s4, 0x1
80007164: 93 1f 45 01  	slli	t6, a0, 0x14
80007168: 33 84 72 02  	mul	s0, t0, t2
8000716c: 33 bb d2 02  	mulhu	s6, t0, a3
80007170: 33 04 8b 00  	add	s0, s6, s0
80007174: 33 0b d3 02  	mul	s6, t1, a3
80007178: b3 8f 6f 41  	sub	t6, t6, s6
8000717c: 33 8b d2 02  	mul	s6, t0, a3
80007180: b3 8f 8f 40  	sub	t6, t6, s0
80007184: 33 34 60 01  	snez	s0, s6
80007188: 33 84 8f 40  	sub	s0, t6, s0
8000718c: b3 0f 60 41  	neg	t6, s6
80007190: 0b b0 0a 00  	vx_join	s5
80007194: 8b 2a 19 00  	vx_split_n	s5, s2
80007198: 63 02 09 04  	beqz	s2, 0x800071dc <__divdf3+0x808>
8000719c: 13 15 55 01  	slli	a0, a0, 0x15
800071a0: 33 b6 d9 02  	mulhu	a2, s3, a3
800071a4: b3 82 79 02  	mul	t0, s3, t2
800071a8: 33 06 56 00  	add	a2, a2, t0
800071ac: b3 02 da 02  	mul	t0, s4, a3
800071b0: 33 83 d9 02  	mul	t1, s3, a3
800071b4: 33 05 c5 40  	sub	a0, a0, a2
800071b8: 33 05 55 40  	sub	a0, a0, t0
800071bc: 33 36 60 00  	snez	a2, t1
800071c0: 33 04 c5 40  	sub	s0, a0, a2
800071c4: b3 0f 60 40  	neg	t6, t1
800071c8: 13 86 e4 3f  	addi	a2, s1, 0x3fe
800071cc: 13 8e 07 00  	mv	t3, a5
800071d0: 93 0e 07 00  	mv	t4, a4
800071d4: 93 82 09 00  	mv	t0, s3
800071d8: 13 03 0a 00  	mv	t1, s4
800071dc: 0b b0 0a 00  	vx_join	s5
800071e0: 13 29 f6 7f  	slti	s2, a2, 0x7ff
800071e4: 0b 25 19 00  	vx_split_n	a0, s2
800071e8: 93 04 10 00  	li	s1, 0x1
800071ec: 63 00 09 18  	beqz	s2, 0x8000736c <__divdf3+0x998>
800071f0: 13 09 00 00  	li	s2, 0x0
800071f4: 13 2c 16 00  	slti	s8, a2, 0x1
800071f8: 8b 24 1c 00  	vx_split_n	s1, s8
800071fc: 93 0b 10 00  	li	s7, 0x1
80007200: 63 08 0c 0e  	beqz	s8, 0x800072f0 <__divdf3+0x91c>
80007204: 13 09 00 00  	li	s2, 0x0
80007208: 13 27 c6 fc  	slti	a4, a2, -0x34
8000720c: 93 47 17 00  	xori	a5, a4, 0x1
80007210: 0b a7 17 00  	vx_split_n	a4, a5
80007214: 93 0b 10 00  	li	s7, 0x1
80007218: 63 8e 07 0a  	beqz	a5, 0x800072d4 <__divdf3+0x900>
8000721c: 93 0b 00 00  	li	s7, 0x0
80007220: 93 07 46 03  	addi	a5, a2, 0x34
80007224: 13 09 10 00  	li	s2, 0x1
80007228: 33 0a c9 40  	sub	s4, s2, a2
8000722c: 93 09 10 fe  	li	s3, -0x1f
80007230: b3 89 c9 40  	sub	s3, s3, a2
80007234: b3 5a 33 01  	srl	s5, t1, s3
80007238: 13 ab 09 00  	slti	s6, s3, 0x0
8000723c: b3 f9 6a 0f  	czero.nez	s3, s5, s6
80007240: 93 4a fa ff  	not	s5, s4
80007244: 13 1c 13 00  	slli	s8, t1, 0x1
80007248: b3 1a 5c 01  	sll	s5, s8, s5
8000724c: 33 dc 42 01  	srl	s8, t0, s4
80007250: b3 6a 5c 01  	or	s5, s8, s5
80007254: b3 da 6a 0f  	czero.eqz	s5, s5, s6
80007258: b3 e9 3a 01  	or	s3, s5, s3
8000725c: 33 5a 43 01  	srl	s4, t1, s4
80007260: 33 5a 6a 0f  	czero.eqz	s4, s4, s6
80007264: 93 0a b0 fe  	li	s5, -0x15
80007268: b3 8a ca 40  	sub	s5, s5, a2
8000726c: 13 5b 1e 00  	srli	s6, t3, 0x1
80007270: b3 5a 5b 01  	srl	s5, s6, s5
80007274: b3 9e fe 00  	sll	t4, t4, a5
80007278: b3 ee 5e 01  	or	t4, t4, s5
8000727c: 93 0a 46 01  	addi	s5, a2, 0x14
80007280: 13 ab 0a 00  	slti	s6, s5, 0x0
80007284: b3 de 6e 0f  	czero.eqz	t4, t4, s6
80007288: b3 1a 5e 01  	sll	s5, t3, s5
8000728c: b3 fa 6a 0f  	czero.nez	s5, s5, s6
80007290: b3 ee 5e 01  	or	t4, t4, s5
80007294: b3 17 fe 00  	sll	a5, t3, a5
80007298: b3 d7 67 0f  	czero.eqz	a5, a5, s6
8000729c: 33 8e 33 03  	mul	t3, t2, s3
800072a0: b3 ba 36 03  	mulhu	s5, a3, s3
800072a4: 33 8b 46 03  	mul	s6, a3, s4
800072a8: b3 8a 6a 01  	add	s5, s5, s6
800072ac: 33 8e ca 01  	add	t3, s5, t3
800072b0: 13 1e 1e 00  	slli	t3, t3, 0x1
800072b4: b3 8a 36 03  	mul	s5, a3, s3
800072b8: 13 db fa 01  	srli	s6, s5, 0x1f
800072bc: 33 6e 6e 01  	or	t3, t3, s6
800072c0: 13 9b 1a 00  	slli	s6, s5, 0x1
800072c4: b3 ba 67 01  	sltu	s5, a5, s6
800072c8: b3 8e 5e 41  	sub	t4, t4, s5
800072cc: b3 8a ce 41  	sub	s5, t4, t3
800072d0: 33 8b 67 41  	sub	s6, a5, s6
800072d4: 0b 30 07 00  	vx_join	a4
800072d8: 0b ae 1b 00  	vx_split_n	t3, s7
800072dc: 63 86 0b 00  	beqz	s7, 0x800072e8 <__divdf3+0x914>
800072e0: 13 07 00 00  	li	a4, 0x0
800072e4: 93 07 08 00  	mv	a5, a6
800072e8: 0b 30 0e 00  	vx_join	t3
800072ec: 93 0b 00 00  	li	s7, 0x0
800072f0: 0b b0 04 00  	vx_join	s1
800072f4: 0b ae 1b 00  	vx_split_n	t3, s7
800072f8: 63 84 0b 02  	beqz	s7, 0x80007320 <__divdf3+0x94c>
800072fc: b3 f9 e2 01  	and	s3, t0, t5
80007300: 33 77 13 01  	and	a4, t1, a7
80007304: 13 16 46 01  	slli	a2, a2, 0x14
80007308: 33 6a e6 00  	or	s4, a2, a4
8000730c: 13 d6 ff 01  	srli	a2, t6, 0x1f
80007310: 13 14 14 00  	slli	s0, s0, 0x1
80007314: b3 6a c4 00  	or	s5, s0, a2
80007318: 13 9b 1f 00  	slli	s6, t6, 0x1
8000731c: 13 09 10 00  	li	s2, 0x1
80007320: 0b 30 0e 00  	vx_join	t3
80007324: 0b 26 19 00  	vx_split_n	a2, s2
80007328: 63 0e 09 02  	beqz	s2, 0x80007364 <__divdf3+0x990>
8000732c: 13 f7 19 00  	andi	a4, s3, 0x1
80007330: 33 0b 67 01  	add	s6, a4, s6
80007334: 33 37 eb 00  	sltu	a4, s6, a4
80007338: 33 87 ea 00  	add	a4, s5, a4
8000733c: b3 47 77 00  	xor	a5, a4, t2
80007340: 33 b7 e3 00  	sltu	a4, t2, a4
80007344: 33 57 f7 0e  	czero.eqz	a4, a4, a5
80007348: b3 b6 66 01  	sltu	a3, a3, s6
8000734c: b3 f6 f6 0e  	czero.nez	a3, a3, a5
80007350: b3 e6 e6 00  	or	a3, a3, a4
80007354: 33 87 d9 00  	add	a4, s3, a3
80007358: b3 36 37 01  	sltu	a3, a4, s3
8000735c: b3 06 da 00  	add	a3, s4, a3
80007360: b3 e7 06 01  	or	a5, a3, a6
80007364: 0b 30 06 00  	vx_join	a2
80007368: 93 04 00 00  	li	s1, 0x0
8000736c: 0b 30 05 00  	vx_join	a0
80007370: 0b a5 14 00  	vx_split_n	a0, s1
80007374: 63 88 04 00  	beqz	s1, 0x80007384 <__divdf3+0x9b0>
80007378: 13 07 00 00  	li	a4, 0x0
8000737c: 37 06 f0 7f  	lui	a2, 0x7ff00
80007380: b3 67 c8 00  	or	a5, a6, a2
80007384: 0b 30 05 00  	vx_join	a0
80007388: 0b b0 05 00  	vx_join	a1
8000738c: 13 05 07 00  	mv	a0, a4
80007390: 93 85 07 00  	mv	a1, a5
80007394: 83 20 c1 03  	lw	ra, 0x3c(sp)
80007398: 03 24 81 03  	lw	s0, 0x38(sp)
8000739c: 83 24 41 03  	lw	s1, 0x34(sp)
800073a0: 03 29 01 03  	lw	s2, 0x30(sp)
800073a4: 83 29 c1 02  	lw	s3, 0x2c(sp)
800073a8: 03 2a 81 02  	lw	s4, 0x28(sp)
800073ac: 83 2a 41 02  	lw	s5, 0x24(sp)
800073b0: 03 2b 01 02  	lw	s6, 0x20(sp)
800073b4: 83 2b c1 01  	lw	s7, 0x1c(sp)
800073b8: 03 2c 81 01  	lw	s8, 0x18(sp)
800073bc: 83 2c 41 01  	lw	s9, 0x14(sp)
800073c0: 03 2d 01 01  	lw	s10, 0x10(sp)
800073c4: 83 2d c1 00  	lw	s11, 0xc(sp)
800073c8: 13 01 01 04  	addi	sp, sp, 0x40
800073cc: 67 80 00 00  	ret

800073d0 <__extendsfdf2>:
800073d0: d3 05 05 e0  	fmv.x.w	a1, fa0
800073d4: 13 d5 75 01  	srli	a0, a1, 0x17
800073d8: 13 96 95 00  	slli	a2, a1, 0x9
800073dc: 13 56 96 00  	srli	a2, a2, 0x9
800073e0: 93 78 f5 0f  	andi	a7, a0, 0xff
800073e4: 13 a5 f8 0f  	slti	a0, a7, 0xff
800073e8: 93 47 15 00  	xori	a5, a0, 0x1
800073ec: 8b a6 17 00  	vx_split_n	a3, a5
800073f0: 13 03 10 00  	li	t1, 0x1
800073f4: 63 8a 07 00  	beqz	a5, 0x80007408 <__extendsfdf2+0x38>
800073f8: 13 03 00 00  	li	t1, 0x0
800073fc: 93 52 36 00  	srli	t0, a2, 0x3
80007400: 13 15 d6 01  	slli	a0, a2, 0x1d
80007404: 13 07 f0 7f  	li	a4, 0x7ff
80007408: 13 58 36 00  	srli	a6, a2, 0x3
8000740c: 93 17 d6 01  	slli	a5, a2, 0x1d
80007410: 0b b0 06 00  	vx_join	a3
80007414: 8b 26 13 00  	vx_split_n	a3, t1
80007418: 63 06 03 10  	beqz	t1, 0x80007524 <__extendsfdf2+0x154>
8000741c: 33 33 10 01  	snez	t1, a7
80007420: 0b 25 13 00  	vx_split_n	a0, t1
80007424: 93 02 10 00  	li	t0, 0x1
80007428: 63 06 03 00  	beqz	t1, 0x80007434 <__extendsfdf2+0x64>
8000742c: 93 02 00 00  	li	t0, 0x0
80007430: 13 87 08 38  	addi	a4, a7, 0x380
80007434: 0b 30 05 00  	vx_join	a0
80007438: 0b a5 12 00  	vx_split_n	a0, t0
8000743c: 63 8e 02 0c  	beqz	t0, 0x80007518 <__extendsfdf2+0x148>
80007440: 93 07 00 00  	li	a5, 0x0
80007444: 13 08 00 00  	li	a6, 0x0
80007448: 13 07 00 00  	li	a4, 0x0
8000744c: b3 32 c0 00  	snez	t0, a2
80007450: 8b a8 12 00  	vx_split_n	a7, t0
80007454: 63 80 02 0c  	beqz	t0, 0x80007514 <__extendsfdf2+0x144>
80007458: 93 57 16 00  	srli	a5, a2, 0x1
8000745c: 33 67 f6 00  	or	a4, a2, a5
80007460: 13 58 27 00  	srli	a6, a4, 0x2
80007464: 33 67 07 01  	or	a4, a4, a6
80007468: 13 58 47 00  	srli	a6, a4, 0x4
8000746c: 33 67 07 01  	or	a4, a4, a6
80007470: 13 58 87 00  	srli	a6, a4, 0x8
80007474: 33 67 07 01  	or	a4, a4, a6
80007478: 13 58 07 01  	srli	a6, a4, 0x10
8000747c: 33 67 07 01  	or	a4, a4, a6
80007480: 13 47 f7 ff  	not	a4, a4
80007484: 13 58 17 00  	srli	a6, a4, 0x1
80007488: b7 52 55 55  	lui	t0, 0x55555
8000748c: 93 82 52 55  	addi	t0, t0, 0x555
80007490: 33 78 58 00  	and	a6, a6, t0
80007494: 33 07 07 41  	sub	a4, a4, a6
80007498: 37 38 33 33  	lui	a6, 0x33333
8000749c: 13 08 38 33  	addi	a6, a6, 0x333
800074a0: b3 72 07 01  	and	t0, a4, a6
800074a4: 13 57 27 00  	srli	a4, a4, 0x2
800074a8: 33 77 07 01  	and	a4, a4, a6
800074ac: 33 87 e2 00  	add	a4, t0, a4
800074b0: 13 58 47 00  	srli	a6, a4, 0x4
800074b4: 33 07 07 01  	add	a4, a4, a6
800074b8: 37 18 0f 0f  	lui	a6, 0xf0f1
800074bc: 13 08 f8 f0  	addi	a6, a6, -0xf1
800074c0: 33 77 07 01  	and	a4, a4, a6
800074c4: 37 08 01 01  	lui	a6, 0x1010
800074c8: 13 08 18 10  	addi	a6, a6, 0x101
800074cc: 33 07 07 03  	mul	a4, a4, a6
800074d0: 13 58 87 01  	srli	a6, a4, 0x18
800074d4: 13 07 90 38  	li	a4, 0x389
800074d8: 33 07 07 41  	sub	a4, a4, a6
800074dc: 93 02 58 01  	addi	t0, a6, 0x15
800074e0: 13 03 58 ff  	addi	t1, a6, -0xb
800074e4: b3 13 66 00  	sll	t2, a2, t1
800074e8: 13 23 03 00  	slti	t1, t1, 0x0
800074ec: b3 f3 63 0e  	czero.nez	t2, t2, t1
800074f0: 13 0e a0 00  	li	t3, 0xa
800074f4: 33 08 0e 41  	sub	a6, t3, a6
800074f8: b3 d7 07 01  	srl	a5, a5, a6
800074fc: b3 d7 67 0e  	czero.eqz	a5, a5, t1
80007500: 33 e8 77 00  	or	a6, a5, t2
80007504: 33 16 56 00  	sll	a2, a2, t0
80007508: b3 57 66 0e  	czero.eqz	a5, a2, t1
8000750c: 37 06 10 00  	lui	a2, 0x100
80007510: 33 48 c8 00  	xor	a6, a6, a2
80007514: 0b b0 08 00  	vx_join	a7
80007518: 0b 30 05 00  	vx_join	a0
8000751c: 13 85 07 00  	mv	a0, a5
80007520: 93 02 08 00  	mv	t0, a6
80007524: 0b b0 06 00  	vx_join	a3
80007528: 37 06 00 80  	lui	a2, 0x80000
8000752c: b3 f5 c5 00  	and	a1, a1, a2
80007530: 13 17 47 01  	slli	a4, a4, 0x14
80007534: 33 66 57 00  	or	a2, a4, t0
80007538: b3 65 b6 00  	or	a1, a2, a1
8000753c: 67 80 00 00  	ret

80007540 <__fixdfsi>:
80007540: 13 06 00 00  	li	a2, 0x0
80007544: 93 96 15 00  	slli	a3, a1, 0x1
80007548: 13 d8 56 01  	srli	a6, a3, 0x15
8000754c: 93 36 f8 3f  	sltiu	a3, a6, 0x3ff
80007550: 13 c7 16 00  	xori	a4, a3, 0x1
80007554: 8b 26 17 00  	vx_split_n	a3, a4
80007558: 63 08 07 0a  	beqz	a4, 0x80007608 <__fixdfsi+0xc8>
8000755c: 13 06 18 be  	addi	a2, a6, -0x41f
80007560: 13 36 06 fe  	sltiu	a2, a2, -0x20
80007564: 93 42 16 00  	xori	t0, a2, 0x1
80007568: 8b a7 12 00  	vx_split_n	a5, t0
8000756c: 93 08 10 00  	li	a7, 0x1
80007570: 13 a7 05 00  	slti	a4, a1, 0x0
80007574: 63 8c 02 06  	beqz	t0, 0x800075ec <__fixdfsi+0xac>
80007578: 93 08 00 00  	li	a7, 0x0
8000757c: 37 06 10 00  	lui	a2, 0x100
80007580: 13 06 f6 ff  	addi	a2, a2, -0x1
80007584: b3 f5 c5 00  	and	a1, a1, a2
80007588: b3 32 a0 00  	snez	t0, a0
8000758c: b3 85 55 00  	add	a1, a1, t0
80007590: 13 05 f5 ff  	addi	a0, a0, -0x1
80007594: 13 05 15 00  	addi	a0, a0, 0x1
80007598: 93 32 15 00  	seqz	t0, a0
8000759c: 33 86 c2 00  	add	a2, t0, a2
800075a0: b3 85 c5 00  	add	a1, a1, a2
800075a4: 13 06 30 43  	li	a2, 0x433
800075a8: 33 06 06 41  	sub	a2, a2, a6
800075ac: 93 02 30 41  	li	t0, 0x413
800075b0: 33 88 02 41  	sub	a6, t0, a6
800075b4: 33 55 c5 00  	srl	a0, a0, a2
800075b8: 13 46 f6 ff  	not	a2, a2
800075bc: 93 92 15 00  	slli	t0, a1, 0x1
800075c0: 33 96 c2 00  	sll	a2, t0, a2
800075c4: b3 d5 05 01  	srl	a1, a1, a6
800075c8: 13 28 08 00  	slti	a6, a6, 0x0
800075cc: b3 f5 05 0f  	czero.nez	a1, a1, a6
800075d0: 33 65 c5 00  	or	a0, a0, a2
800075d4: 33 55 05 0f  	czero.eqz	a0, a0, a6
800075d8: 33 65 b5 00  	or	a0, a0, a1
800075dc: b3 05 a0 40  	neg	a1, a0
800075e0: 33 75 e5 0e  	czero.nez	a0, a0, a4
800075e4: 33 d6 e5 0e  	czero.eqz	a2, a1, a4
800075e8: 33 66 c5 00  	or	a2, a0, a2
800075ec: 0b b0 07 00  	vx_join	a5
800075f0: 0b a5 18 00  	vx_split_n	a0, a7
800075f4: 63 88 08 00  	beqz	a7, 0x80007604 <__fixdfsi+0xc4>
800075f8: 93 45 17 00  	xori	a1, a4, 0x1
800075fc: 37 06 00 80  	lui	a2, 0x80000
80007600: 33 06 b6 40  	sub	a2, a2, a1
80007604: 0b 30 05 00  	vx_join	a0
80007608: 0b b0 06 00  	vx_join	a3
8000760c: 13 05 06 00  	mv	a0, a2
80007610: 67 80 00 00  	ret

80007614 <__fixunsdfsi>:
80007614: 13 06 00 00  	li	a2, 0x0
80007618: 93 a6 05 00  	slti	a3, a1, 0x0
8000761c: 13 97 15 00  	slli	a4, a1, 0x1
80007620: 13 57 57 01  	srli	a4, a4, 0x15
80007624: 93 37 f7 3f  	sltiu	a5, a4, 0x3ff
80007628: b3 e6 f6 00  	or	a3, a3, a5
8000762c: 93 c7 16 00  	xori	a5, a3, 0x1
80007630: 8b a6 17 00  	vx_split_n	a3, a5
80007634: 63 8a 07 06  	beqz	a5, 0x800076a8 <__fixunsdfsi+0x94>
80007638: 37 06 10 00  	lui	a2, 0x100
8000763c: 13 06 f6 ff  	addi	a2, a2, -0x1
80007640: b3 f5 c5 00  	and	a1, a1, a2
80007644: b3 37 a0 00  	snez	a5, a0
80007648: b3 85 f5 00  	add	a1, a1, a5
8000764c: 13 05 f5 ff  	addi	a0, a0, -0x1
80007650: 13 05 15 00  	addi	a0, a0, 0x1
80007654: 93 37 15 00  	seqz	a5, a0
80007658: 33 86 c7 00  	add	a2, a5, a2
8000765c: b3 85 c5 00  	add	a1, a1, a2
80007660: 13 06 17 be  	addi	a2, a4, -0x41f
80007664: 13 36 06 fe  	sltiu	a2, a2, -0x20
80007668: 93 07 30 43  	li	a5, 0x433
8000766c: b3 87 e7 40  	sub	a5, a5, a4
80007670: 13 08 30 41  	li	a6, 0x413
80007674: 33 07 e8 40  	sub	a4, a6, a4
80007678: 33 d8 e5 00  	srl	a6, a1, a4
8000767c: 13 27 07 00  	slti	a4, a4, 0x0
80007680: 33 78 e8 0e  	czero.nez	a6, a6, a4
80007684: 93 c8 f7 ff  	not	a7, a5
80007688: 93 95 15 00  	slli	a1, a1, 0x1
8000768c: b3 95 15 01  	sll	a1, a1, a7
80007690: 33 55 f5 00  	srl	a0, a0, a5
80007694: 33 65 b5 00  	or	a0, a0, a1
80007698: 33 55 e5 0e  	czero.eqz	a0, a0, a4
8000769c: b3 05 c0 40  	neg	a1, a2
800076a0: 33 e6 05 01  	or	a2, a1, a6
800076a4: 33 66 a6 00  	or	a2, a2, a0
800076a8: 0b b0 06 00  	vx_join	a3
800076ac: 13 05 06 00  	mv	a0, a2
800076b0: 67 80 00 00  	ret

800076b4 <__floatsidf>:
800076b4: 13 06 05 00  	mv	a2, a0
800076b8: 13 05 00 00  	li	a0, 0x0
800076bc: 93 05 00 00  	li	a1, 0x0
800076c0: 33 37 c0 00  	snez	a4, a2
800076c4: 8b 26 17 00  	vx_split_n	a3, a4
800076c8: 63 04 07 0e  	beqz	a4, 0x800077b0 <__floatsidf+0xfc>
800076cc: 13 55 f6 41  	srai	a0, a2, 0x1f
800076d0: b3 45 a6 00  	xor	a1, a2, a0
800076d4: b3 85 a5 40  	sub	a1, a1, a0
800076d8: 37 05 00 80  	lui	a0, 0x80000
800076dc: 33 76 a6 00  	and	a2, a2, a0
800076e0: 13 d5 15 00  	srli	a0, a1, 0x1
800076e4: 33 e7 a5 00  	or	a4, a1, a0
800076e8: 93 57 27 00  	srli	a5, a4, 0x2
800076ec: 33 67 f7 00  	or	a4, a4, a5
800076f0: 93 57 47 00  	srli	a5, a4, 0x4
800076f4: 33 67 f7 00  	or	a4, a4, a5
800076f8: 93 57 87 00  	srli	a5, a4, 0x8
800076fc: 33 67 f7 00  	or	a4, a4, a5
80007700: 93 57 07 01  	srli	a5, a4, 0x10
80007704: 33 67 f7 00  	or	a4, a4, a5
80007708: 13 47 f7 ff  	not	a4, a4
8000770c: 93 57 17 00  	srli	a5, a4, 0x1
80007710: 37 58 55 55  	lui	a6, 0x55555
80007714: 13 08 58 55  	addi	a6, a6, 0x555
80007718: b3 f7 07 01  	and	a5, a5, a6
8000771c: 33 07 f7 40  	sub	a4, a4, a5
80007720: b7 37 33 33  	lui	a5, 0x33333
80007724: 93 87 37 33  	addi	a5, a5, 0x333
80007728: 33 78 f7 00  	and	a6, a4, a5
8000772c: 13 57 27 00  	srli	a4, a4, 0x2
80007730: 33 77 f7 00  	and	a4, a4, a5
80007734: 33 07 e8 00  	add	a4, a6, a4
80007738: 93 57 47 00  	srli	a5, a4, 0x4
8000773c: 33 07 f7 00  	add	a4, a4, a5
80007740: b7 17 0f 0f  	lui	a5, 0xf0f1
80007744: 93 87 f7 f0  	addi	a5, a5, -0xf1
80007748: 33 77 f7 00  	and	a4, a4, a5
8000774c: b7 07 01 01  	lui	a5, 0x1010
80007750: 93 87 17 10  	addi	a5, a5, 0x101
80007754: 33 07 f7 02  	mul	a4, a4, a5
80007758: 13 57 87 01  	srli	a4, a4, 0x18
8000775c: 93 47 f7 01  	xori	a5, a4, 0x1f
80007760: 13 08 40 03  	li	a6, 0x34
80007764: 33 08 f8 40  	sub	a6, a6, a5
80007768: 93 08 40 01  	li	a7, 0x14
8000776c: b3 87 f8 40  	sub	a5, a7, a5
80007770: b3 98 f5 00  	sll	a7, a1, a5
80007774: 93 a7 07 00  	slti	a5, a5, 0x0
80007778: b3 f8 f8 0e  	czero.nez	a7, a7, a5
8000777c: 93 42 f8 ff  	not	t0, a6
80007780: 33 55 55 00  	srl	a0, a0, t0
80007784: 33 55 f5 0e  	czero.eqz	a0, a0, a5
80007788: b3 68 15 01  	or	a7, a0, a7
8000778c: 33 95 05 01  	sll	a0, a1, a6
80007790: 33 55 f5 0e  	czero.eqz	a0, a0, a5
80007794: b7 05 10 00  	lui	a1, 0x100
80007798: b3 c5 b8 00  	xor	a1, a7, a1
8000779c: 93 07 e0 41  	li	a5, 0x41e
800077a0: b3 87 e7 40  	sub	a5, a5, a4
800077a4: 93 97 47 01  	slli	a5, a5, 0x14
800077a8: b3 85 f5 00  	add	a1, a1, a5
800077ac: b3 e5 c5 00  	or	a1, a1, a2
800077b0: 0b b0 06 00  	vx_join	a3
800077b4: 67 80 00 00  	ret

800077b8 <__floatunsidf>:
800077b8: 13 06 00 00  	li	a2, 0x0
800077bc: 93 05 00 00  	li	a1, 0x0
800077c0: 33 37 a0 00  	snez	a4, a0
800077c4: 8b 26 17 00  	vx_split_n	a3, a4
800077c8: 63 08 07 0c  	beqz	a4, 0x80007898 <__floatunsidf+0xe0>
800077cc: 93 55 15 00  	srli	a1, a0, 0x1
800077d0: 33 66 b5 00  	or	a2, a0, a1
800077d4: 13 57 26 00  	srli	a4, a2, 0x2
800077d8: 33 66 e6 00  	or	a2, a2, a4
800077dc: 13 57 46 00  	srli	a4, a2, 0x4
800077e0: 33 66 e6 00  	or	a2, a2, a4
800077e4: 13 57 86 00  	srli	a4, a2, 0x8
800077e8: 33 66 e6 00  	or	a2, a2, a4
800077ec: 13 57 06 01  	srli	a4, a2, 0x10
800077f0: 33 66 e6 00  	or	a2, a2, a4
800077f4: 13 46 f6 ff  	not	a2, a2
800077f8: 13 57 16 00  	srli	a4, a2, 0x1
800077fc: b7 57 55 55  	lui	a5, 0x55555
80007800: 93 87 57 55  	addi	a5, a5, 0x555
80007804: 33 77 f7 00  	and	a4, a4, a5
80007808: 33 06 e6 40  	sub	a2, a2, a4
8000780c: 37 37 33 33  	lui	a4, 0x33333
80007810: 13 07 37 33  	addi	a4, a4, 0x333
80007814: b3 77 e6 00  	and	a5, a2, a4
80007818: 13 56 26 00  	srli	a2, a2, 0x2
8000781c: 33 76 e6 00  	and	a2, a2, a4
80007820: 33 86 c7 00  	add	a2, a5, a2
80007824: 13 57 46 00  	srli	a4, a2, 0x4
80007828: 33 06 e6 00  	add	a2, a2, a4
8000782c: 37 17 0f 0f  	lui	a4, 0xf0f1
80007830: 13 07 f7 f0  	addi	a4, a4, -0xf1
80007834: 33 76 e6 00  	and	a2, a2, a4
80007838: 37 07 01 01  	lui	a4, 0x1010
8000783c: 13 07 17 10  	addi	a4, a4, 0x101
80007840: 33 06 e6 02  	mul	a2, a2, a4
80007844: 13 57 86 01  	srli	a4, a2, 0x18
80007848: 13 46 f7 01  	xori	a2, a4, 0x1f
8000784c: 93 07 40 03  	li	a5, 0x34
80007850: b3 87 c7 40  	sub	a5, a5, a2
80007854: 13 08 40 01  	li	a6, 0x14
80007858: 33 06 c8 40  	sub	a2, a6, a2
8000785c: 33 18 c5 00  	sll	a6, a0, a2
80007860: 13 26 06 00  	slti	a2, a2, 0x0
80007864: 33 78 c8 0e  	czero.nez	a6, a6, a2
80007868: 93 c8 f7 ff  	not	a7, a5
8000786c: b3 d5 15 01  	srl	a1, a1, a7
80007870: b3 d5 c5 0e  	czero.eqz	a1, a1, a2
80007874: b3 e5 05 01  	or	a1, a1, a6
80007878: 33 15 f5 00  	sll	a0, a0, a5
8000787c: 33 56 c5 0e  	czero.eqz	a2, a0, a2
80007880: 37 05 10 00  	lui	a0, 0x100
80007884: 33 c5 a5 00  	xor	a0, a1, a0
80007888: 93 05 e0 41  	li	a1, 0x41e
8000788c: b3 85 e5 40  	sub	a1, a1, a4
80007890: 93 95 45 01  	slli	a1, a1, 0x14
80007894: b3 05 b5 00  	add	a1, a0, a1
80007898: 0b b0 06 00  	vx_join	a3
8000789c: 13 05 06 00  	mv	a0, a2
800078a0: 67 80 00 00  	ret

800078a4 <__muldf3>:
800078a4: 13 01 01 fc  	addi	sp, sp, -0x40
800078a8: 23 2e 11 02  	sw	ra, 0x3c(sp)
800078ac: 23 2c 81 02  	sw	s0, 0x38(sp)
800078b0: 23 2a 91 02  	sw	s1, 0x34(sp)
800078b4: 23 28 21 03  	sw	s2, 0x30(sp)
800078b8: 23 26 31 03  	sw	s3, 0x2c(sp)
800078bc: 23 24 41 03  	sw	s4, 0x28(sp)
800078c0: 23 22 51 03  	sw	s5, 0x24(sp)
800078c4: 23 20 61 03  	sw	s6, 0x20(sp)
800078c8: 23 2e 71 01  	sw	s7, 0x1c(sp)
800078cc: 23 2c 81 01  	sw	s8, 0x18(sp)
800078d0: 23 2a 91 01  	sw	s9, 0x14(sp)
800078d4: 23 28 a1 01  	sw	s10, 0x10(sp)
800078d8: 23 26 b1 01  	sw	s11, 0xc(sp)
800078dc: 93 04 00 00  	li	s1, 0x0
800078e0: b7 08 10 00  	lui	a7, 0x100
800078e4: 93 88 f8 ff  	addi	a7, a7, -0x1
800078e8: 13 97 15 00  	slli	a4, a1, 0x1
800078ec: 93 52 57 01  	srli	t0, a4, 0x15
800078f0: 13 97 16 00  	slli	a4, a3, 0x1
800078f4: 13 53 57 01  	srli	t1, a4, 0x15
800078f8: 33 c7 b6 00  	xor	a4, a3, a1
800078fc: 37 04 00 80  	lui	s0, 0x80000
80007900: 33 78 87 00  	and	a6, a4, s0
80007904: b3 f3 15 01  	and	t2, a1, a7
80007908: b3 fe 16 01  	and	t4, a3, a7
8000790c: 13 87 12 80  	addi	a4, t0, -0x7ff
80007910: 13 37 27 80  	sltiu	a4, a4, -0x7fe
80007914: 93 07 13 80  	addi	a5, t1, -0x7ff
80007918: 93 b7 27 80  	sltiu	a5, a5, -0x7fe
8000791c: 33 6f f7 00  	or	t5, a4, a5
80007920: 0b 2e 1f 00  	vx_split_n	t3, t5
80007924: 13 0c 10 00  	li	s8, 0x1
80007928: 63 06 0f 54  	beqz	t5, 0x80007e74 <__muldf3+0x5d0>
8000792c: 13 04 f4 ff  	addi	s0, s0, -0x1
80007930: b3 f9 85 00  	and	s3, a1, s0
80007934: 37 09 f0 7f  	lui	s2, 0x7ff00
80007938: 33 c7 29 01  	xor	a4, s3, s2
8000793c: 93 d0 49 01  	srli	ra, s3, 0x14
80007940: 93 b7 f0 7f  	sltiu	a5, ra, 0x7ff
80007944: b3 d7 e7 0e  	czero.eqz	a5, a5, a4
80007948: 13 3f 15 00  	seqz	t5, a0
8000794c: 33 77 ef 0e  	czero.nez	a4, t5, a4
80007950: 33 6b f7 00  	or	s6, a4, a5
80007954: 0b 2f 1b 00  	vx_split_n	t5, s6
80007958: 93 0f 10 00  	li	t6, 0x1
8000795c: 63 0a 0b 4c  	beqz	s6, 0x80007e30 <__muldf3+0x58c>
80007960: 33 f4 86 00  	and	s0, a3, s0
80007964: 33 47 24 01  	xor	a4, s0, s2
80007968: 93 37 16 00  	seqz	a5, a2
8000796c: b3 f7 e7 0e  	czero.nez	a5, a5, a4
80007970: 93 5d 44 01  	srli	s11, s0, 0x14
80007974: 93 bf fd 7f  	sltiu	t6, s11, 0x7ff
80007978: 33 d7 ef 0e  	czero.eqz	a4, t6, a4
8000797c: 33 eb e7 00  	or	s6, a5, a4
80007980: 8b 2f 1b 00  	vx_split_n	t6, s6
80007984: 13 09 10 00  	li	s2, 0x1
80007988: 63 08 0b 46  	beqz	s6, 0x80007df8 <__muldf3+0x554>
8000798c: b7 0b f0 7f  	lui	s7, 0x7ff00
80007990: 33 c7 79 01  	xor	a4, s3, s7
80007994: 33 67 e5 00  	or	a4, a0, a4
80007998: 33 39 e0 00  	snez	s2, a4
8000799c: 0b 27 19 00  	vx_split_n	a4, s2
800079a0: 23 24 e1 00  	sw	a4, 0x8(sp)
800079a4: 13 0b 10 00  	li	s6, 0x1
800079a8: 63 00 09 40  	beqz	s2, 0x80007da8 <__muldf3+0x504>
800079ac: 33 47 74 01  	xor	a4, s0, s7
800079b0: 33 67 e6 00  	or	a4, a2, a4
800079b4: 33 39 e0 00  	snez	s2, a4
800079b8: 0b 2b 19 00  	vx_split_n	s6, s2
800079bc: 93 0b 10 00  	li	s7, 0x1
800079c0: b3 69 35 01  	or	s3, a0, s3
800079c4: 63 0e 09 38  	beqz	s2, 0x80007d60 <__muldf3+0x4bc>
800079c8: 33 39 30 01  	snez	s2, s3
800079cc: 0b 27 19 00  	vx_split_n	a4, s2
800079d0: 23 22 e1 00  	sw	a4, 0x4(sp)
800079d4: 93 0b 10 00  	li	s7, 0x1
800079d8: 63 08 09 34  	beqz	s2, 0x80007d28 <__muldf3+0x484>
800079dc: 33 67 86 00  	or	a4, a2, s0
800079e0: b3 37 e0 00  	snez	a5, a4
800079e4: 0b a7 17 00  	vx_split_n	a4, a5
800079e8: 93 0b 10 00  	li	s7, 0x1
800079ec: 63 84 07 30  	beqz	a5, 0x80007cf4 <__muldf3+0x450>
800079f0: 93 04 00 00  	li	s1, 0x0
800079f4: 13 b9 10 00  	seqz	s2, ra
800079f8: 8b 27 19 00  	vx_split_n	a5, s2
800079fc: 13 0a 05 00  	mv	s4, a0
80007a00: 93 8a 03 00  	mv	s5, t2
80007a04: 63 04 09 16  	beqz	s2, 0x80007b6c <__muldf3+0x2c8>
80007a08: 33 39 70 00  	snez	s2, t2
80007a0c: 8b 24 19 00  	vx_split_n	s1, s2
80007a10: 13 0a 10 00  	li	s4, 0x1
80007a14: 63 02 09 08  	beqz	s2, 0x80007a98 <__muldf3+0x1f4>
80007a18: 13 0a 00 00  	li	s4, 0x0
80007a1c: 13 d9 13 00  	srli	s2, t2, 0x1
80007a20: 33 e9 23 01  	or	s2, t2, s2
80007a24: 93 5a 29 00  	srli	s5, s2, 0x2
80007a28: 33 69 59 01  	or	s2, s2, s5
80007a2c: 93 5a 49 00  	srli	s5, s2, 0x4
80007a30: 33 69 59 01  	or	s2, s2, s5
80007a34: 93 5a 89 00  	srli	s5, s2, 0x8
80007a38: 33 69 59 01  	or	s2, s2, s5
80007a3c: 93 5a 09 01  	srli	s5, s2, 0x10
80007a40: 33 69 59 01  	or	s2, s2, s5
80007a44: 13 49 f9 ff  	not	s2, s2
80007a48: 93 5a 19 00  	srli	s5, s2, 0x1
80007a4c: b7 5b 55 55  	lui	s7, 0x55555
80007a50: 93 8b 5b 55  	addi	s7, s7, 0x555
80007a54: b3 fa 7a 01  	and	s5, s5, s7
80007a58: 33 09 59 41  	sub	s2, s2, s5
80007a5c: b7 3a 33 33  	lui	s5, 0x33333
80007a60: 93 8a 3a 33  	addi	s5, s5, 0x333
80007a64: b3 7b 59 01  	and	s7, s2, s5
80007a68: 13 59 29 00  	srli	s2, s2, 0x2
80007a6c: 33 79 59 01  	and	s2, s2, s5
80007a70: 33 89 2b 01  	add	s2, s7, s2
80007a74: 93 5a 49 00  	srli	s5, s2, 0x4
80007a78: 33 09 59 01  	add	s2, s2, s5
80007a7c: b7 1a 0f 0f  	lui	s5, 0xf0f1
80007a80: 93 8a fa f0  	addi	s5, s5, -0xf1
80007a84: 33 79 59 01  	and	s2, s2, s5
80007a88: b7 0a 01 01  	lui	s5, 0x1010
80007a8c: 93 8a 1a 10  	addi	s5, s5, 0x101
80007a90: 33 09 59 03  	mul	s2, s2, s5
80007a94: 93 5b 89 01  	srli	s7, s2, 0x18
80007a98: 0b b0 04 00  	vx_join	s1
80007a9c: 8b 24 1a 00  	vx_split_n	s1, s4
80007aa0: 63 02 0a 08  	beqz	s4, 0x80007b24 <__muldf3+0x280>
80007aa4: 13 59 15 00  	srli	s2, a0, 0x1
80007aa8: 33 69 25 01  	or	s2, a0, s2
80007aac: 13 5a 29 00  	srli	s4, s2, 0x2
80007ab0: 33 69 49 01  	or	s2, s2, s4
80007ab4: 13 5a 49 00  	srli	s4, s2, 0x4
80007ab8: 33 69 49 01  	or	s2, s2, s4
80007abc: 13 5a 89 00  	srli	s4, s2, 0x8
80007ac0: 33 69 49 01  	or	s2, s2, s4
80007ac4: 13 5a 09 01  	srli	s4, s2, 0x10
80007ac8: 33 69 49 01  	or	s2, s2, s4
80007acc: 13 49 f9 ff  	not	s2, s2
80007ad0: 13 5a 19 00  	srli	s4, s2, 0x1
80007ad4: b7 5a 55 55  	lui	s5, 0x55555
80007ad8: 93 8a 5a 55  	addi	s5, s5, 0x555
80007adc: 33 7a 5a 01  	and	s4, s4, s5
80007ae0: 33 09 49 41  	sub	s2, s2, s4
80007ae4: 37 3a 33 33  	lui	s4, 0x33333
80007ae8: 13 0a 3a 33  	addi	s4, s4, 0x333
80007aec: b3 7a 49 01  	and	s5, s2, s4
80007af0: 13 59 29 00  	srli	s2, s2, 0x2
80007af4: 33 79 49 01  	and	s2, s2, s4
80007af8: 33 89 2a 01  	add	s2, s5, s2
80007afc: 13 5a 49 00  	srli	s4, s2, 0x4
80007b00: 33 09 49 01  	add	s2, s2, s4
80007b04: 37 1a 0f 0f  	lui	s4, 0xf0f1
80007b08: 13 0a fa f0  	addi	s4, s4, -0xf1
80007b0c: 33 79 49 01  	and	s2, s2, s4
80007b10: 37 0a 01 01  	lui	s4, 0x1010
80007b14: 13 0a 1a 10  	addi	s4, s4, 0x101
80007b18: 33 09 49 03  	mul	s2, s2, s4
80007b1c: 13 59 89 01  	srli	s2, s2, 0x18
80007b20: 93 6b 09 02  	ori	s7, s2, 0x20
80007b24: 0b b0 04 00  	vx_join	s1
80007b28: 93 84 5b ff  	addi	s1, s7, -0xb
80007b2c: 13 09 a0 02  	li	s2, 0x2a
80007b30: 33 09 79 41  	sub	s2, s2, s7
80007b34: 13 5a 15 00  	srli	s4, a0, 0x1
80007b38: 33 59 2a 01  	srl	s2, s4, s2
80007b3c: 33 9a 93 00  	sll	s4, t2, s1
80007b40: 33 69 2a 01  	or	s2, s4, s2
80007b44: 13 8a 5b fd  	addi	s4, s7, -0x2b
80007b48: 13 2c 0a 00  	slti	s8, s4, 0x0
80007b4c: 33 59 89 0f  	czero.eqz	s2, s2, s8
80007b50: 33 1a 45 01  	sll	s4, a0, s4
80007b54: 33 7a 8a 0f  	czero.nez	s4, s4, s8
80007b58: b3 6a 49 01  	or	s5, s2, s4
80007b5c: b3 14 95 00  	sll	s1, a0, s1
80007b60: 33 da 84 0f  	czero.eqz	s4, s1, s8
80007b64: 93 04 c0 00  	li	s1, 0xc
80007b68: b3 84 74 41  	sub	s1, s1, s7
80007b6c: 0b b0 07 00  	vx_join	a5
80007b70: 13 b9 1d 00  	seqz	s2, s11
80007b74: 8b 27 19 00  	vx_split_n	a5, s2
80007b78: 93 0c 06 00  	mv	s9, a2
80007b7c: 13 8d 0e 00  	mv	s10, t4
80007b80: 63 04 09 16  	beqz	s2, 0x80007ce8 <__muldf3+0x444>
80007b84: 33 39 d0 01  	snez	s2, t4
80007b88: 0b 2c 19 00  	vx_split_n	s8, s2
80007b8c: 93 0c 10 00  	li	s9, 0x1
80007b90: 63 02 09 08  	beqz	s2, 0x80007c14 <__muldf3+0x370>
80007b94: 93 0c 00 00  	li	s9, 0x0
80007b98: 13 d9 1e 00  	srli	s2, t4, 0x1
80007b9c: 33 e9 2e 01  	or	s2, t4, s2
80007ba0: 93 5b 29 00  	srli	s7, s2, 0x2
80007ba4: 33 69 79 01  	or	s2, s2, s7
80007ba8: 93 5b 49 00  	srli	s7, s2, 0x4
80007bac: 33 69 79 01  	or	s2, s2, s7
80007bb0: 93 5b 89 00  	srli	s7, s2, 0x8
80007bb4: 33 69 79 01  	or	s2, s2, s7
80007bb8: 93 5b 09 01  	srli	s7, s2, 0x10
80007bbc: 33 69 79 01  	or	s2, s2, s7
80007bc0: 13 49 f9 ff  	not	s2, s2
80007bc4: 93 5b 19 00  	srli	s7, s2, 0x1
80007bc8: 37 5d 55 55  	lui	s10, 0x55555
80007bcc: 13 0d 5d 55  	addi	s10, s10, 0x555
80007bd0: b3 fb ab 01  	and	s7, s7, s10
80007bd4: 33 09 79 41  	sub	s2, s2, s7
80007bd8: b7 3b 33 33  	lui	s7, 0x33333
80007bdc: 93 8b 3b 33  	addi	s7, s7, 0x333
80007be0: 33 7d 79 01  	and	s10, s2, s7
80007be4: 13 59 29 00  	srli	s2, s2, 0x2
80007be8: 33 79 79 01  	and	s2, s2, s7
80007bec: 33 09 2d 01  	add	s2, s10, s2
80007bf0: 93 5b 49 00  	srli	s7, s2, 0x4
80007bf4: 33 09 79 01  	add	s2, s2, s7
80007bf8: b7 1b 0f 0f  	lui	s7, 0xf0f1
80007bfc: 93 8b fb f0  	addi	s7, s7, -0xf1
80007c00: 33 79 79 01  	and	s2, s2, s7
80007c04: b7 0b 01 01  	lui	s7, 0x1010
80007c08: 93 8b 1b 10  	addi	s7, s7, 0x101
80007c0c: 33 09 79 03  	mul	s2, s2, s7
80007c10: 93 5d 89 01  	srli	s11, s2, 0x18
80007c14: 0b 30 0c 00  	vx_join	s8
80007c18: 8b ab 1c 00  	vx_split_n	s7, s9
80007c1c: 63 82 0c 08  	beqz	s9, 0x80007ca0 <__muldf3+0x3fc>
80007c20: 13 59 16 00  	srli	s2, a2, 0x1
80007c24: 33 69 26 01  	or	s2, a2, s2
80007c28: 13 5c 29 00  	srli	s8, s2, 0x2
80007c2c: 33 69 89 01  	or	s2, s2, s8
80007c30: 13 5c 49 00  	srli	s8, s2, 0x4
80007c34: 33 69 89 01  	or	s2, s2, s8
80007c38: 13 5c 89 00  	srli	s8, s2, 0x8
80007c3c: 33 69 89 01  	or	s2, s2, s8
80007c40: 13 5c 09 01  	srli	s8, s2, 0x10
80007c44: 33 69 89 01  	or	s2, s2, s8
80007c48: 13 49 f9 ff  	not	s2, s2
80007c4c: 13 5c 19 00  	srli	s8, s2, 0x1
80007c50: b7 5c 55 55  	lui	s9, 0x55555
80007c54: 93 8c 5c 55  	addi	s9, s9, 0x555
80007c58: 33 7c 9c 01  	and	s8, s8, s9
80007c5c: 33 09 89 41  	sub	s2, s2, s8
80007c60: 37 3c 33 33  	lui	s8, 0x33333
80007c64: 13 0c 3c 33  	addi	s8, s8, 0x333
80007c68: b3 7c 89 01  	and	s9, s2, s8
80007c6c: 13 59 29 00  	srli	s2, s2, 0x2
80007c70: 33 79 89 01  	and	s2, s2, s8
80007c74: 33 89 2c 01  	add	s2, s9, s2
80007c78: 13 5c 49 00  	srli	s8, s2, 0x4
80007c7c: 33 09 89 01  	add	s2, s2, s8
80007c80: 37 1c 0f 0f  	lui	s8, 0xf0f1
80007c84: 13 0c fc f0  	addi	s8, s8, -0xf1
80007c88: 33 79 89 01  	and	s2, s2, s8
80007c8c: 37 0c 01 01  	lui	s8, 0x1010
80007c90: 13 0c 1c 10  	addi	s8, s8, 0x101
80007c94: 33 09 89 03  	mul	s2, s2, s8
80007c98: 13 59 89 01  	srli	s2, s2, 0x18
80007c9c: 93 6d 09 02  	ori	s11, s2, 0x20
80007ca0: 0b b0 0b 00  	vx_join	s7
80007ca4: 13 89 5d ff  	addi	s2, s11, -0xb
80007ca8: 93 0b a0 02  	li	s7, 0x2a
80007cac: b3 8b bb 41  	sub	s7, s7, s11
80007cb0: 13 5c 16 00  	srli	s8, a2, 0x1
80007cb4: b3 5b 7c 01  	srl	s7, s8, s7
80007cb8: 33 9c 2e 01  	sll	s8, t4, s2
80007cbc: b3 6b 7c 01  	or	s7, s8, s7
80007cc0: 13 8c 5d fd  	addi	s8, s11, -0x2b
80007cc4: 93 2c 0c 00  	slti	s9, s8, 0x0
80007cc8: b3 db 9b 0f  	czero.eqz	s7, s7, s9
80007ccc: 33 1c 86 01  	sll	s8, a2, s8
80007cd0: 33 7c 9c 0f  	czero.nez	s8, s8, s9
80007cd4: 33 ed 8b 01  	or	s10, s7, s8
80007cd8: 33 19 26 01  	sll	s2, a2, s2
80007cdc: b3 5c 99 0f  	czero.eqz	s9, s2, s9
80007ce0: b3 84 b4 41  	sub	s1, s1, s11
80007ce4: 93 84 c4 00  	addi	s1, s1, 0xc
80007ce8: 0b b0 07 00  	vx_join	a5
80007cec: 93 0b 00 00  	li	s7, 0x0
80007cf0: 13 0c 10 00  	li	s8, 0x1
80007cf4: 0b 30 07 00  	vx_join	a4
80007cf8: 8b ad 1b 00  	vx_split_n	s11, s7
80007cfc: 63 82 0b 02  	beqz	s7, 0x80007d20 <__muldf3+0x47c>
80007d00: 93 04 00 00  	li	s1, 0x0
80007d04: 13 0c 00 00  	li	s8, 0x0
80007d08: 13 07 00 00  	li	a4, 0x0
80007d0c: 13 0a 05 00  	mv	s4, a0
80007d10: 93 8a 03 00  	mv	s5, t2
80007d14: 93 0c 06 00  	mv	s9, a2
80007d18: 13 8d 0e 00  	mv	s10, t4
80007d1c: 93 07 08 00  	mv	a5, a6
80007d20: 0b b0 0d 00  	vx_join	s11
80007d24: 93 0b 00 00  	li	s7, 0x0
80007d28: 03 29 41 00  	lw	s2, 0x4(sp)
80007d2c: 0b 30 09 00  	vx_join	s2
80007d30: 8b ad 1b 00  	vx_split_n	s11, s7
80007d34: 63 82 0b 02  	beqz	s7, 0x80007d58 <__muldf3+0x4b4>
80007d38: 93 04 00 00  	li	s1, 0x0
80007d3c: 13 0c 00 00  	li	s8, 0x0
80007d40: 13 07 00 00  	li	a4, 0x0
80007d44: 13 0a 05 00  	mv	s4, a0
80007d48: 93 8a 03 00  	mv	s5, t2
80007d4c: 93 0c 06 00  	mv	s9, a2
80007d50: 13 8d 0e 00  	mv	s10, t4
80007d54: 93 07 08 00  	mv	a5, a6
80007d58: 0b b0 0d 00  	vx_join	s11
80007d5c: 93 0b 00 00  	li	s7, 0x0
80007d60: 0b 30 0b 00  	vx_join	s6
80007d64: 0b ab 1b 00  	vx_split_n	s6, s7
80007d68: 63 8c 0b 02  	beqz	s7, 0x80007da0 <__muldf3+0x4fc>
80007d6c: 93 04 00 00  	li	s1, 0x0
80007d70: 13 0c 00 00  	li	s8, 0x0
80007d74: 13 07 00 00  	li	a4, 0x0
80007d78: b7 07 f0 7f  	lui	a5, 0x7ff00
80007d7c: b3 67 f8 00  	or	a5, a6, a5
80007d80: b3 d7 37 0f  	czero.eqz	a5, a5, s3
80007d84: 37 09 f8 7f  	lui	s2, 0x7ff80
80007d88: 33 79 39 0f  	czero.nez	s2, s2, s3
80007d8c: b3 67 f9 00  	or	a5, s2, a5
80007d90: 13 0a 05 00  	mv	s4, a0
80007d94: 93 8a 03 00  	mv	s5, t2
80007d98: 93 0c 06 00  	mv	s9, a2
80007d9c: 13 8d 0e 00  	mv	s10, t4
80007da0: 0b 30 0b 00  	vx_join	s6
80007da4: 13 0b 00 00  	li	s6, 0x0
80007da8: 03 29 81 00  	lw	s2, 0x8(sp)
80007dac: 0b 30 09 00  	vx_join	s2
80007db0: 0b 29 1b 00  	vx_split_n	s2, s6
80007db4: 63 0e 0b 02  	beqz	s6, 0x80007df0 <__muldf3+0x54c>
80007db8: 93 04 00 00  	li	s1, 0x0
80007dbc: 13 0c 00 00  	li	s8, 0x0
80007dc0: 13 07 00 00  	li	a4, 0x0
80007dc4: 33 64 86 00  	or	s0, a2, s0
80007dc8: b7 07 f0 7f  	lui	a5, 0x7ff00
80007dcc: b3 67 f8 00  	or	a5, a6, a5
80007dd0: b3 d7 87 0e  	czero.eqz	a5, a5, s0
80007dd4: b7 09 f8 7f  	lui	s3, 0x7ff80
80007dd8: 33 f4 89 0e  	czero.nez	s0, s3, s0
80007ddc: b3 67 f4 00  	or	a5, s0, a5
80007de0: 13 0a 05 00  	mv	s4, a0
80007de4: 93 8a 03 00  	mv	s5, t2
80007de8: 93 0c 06 00  	mv	s9, a2
80007dec: 13 8d 0e 00  	mv	s10, t4
80007df0: 0b 30 09 00  	vx_join	s2
80007df4: 13 09 00 00  	li	s2, 0x0
80007df8: 0b b0 0f 00  	vx_join	t6
80007dfc: 8b 2f 19 00  	vx_split_n	t6, s2
80007e00: 63 04 09 02  	beqz	s2, 0x80007e28 <__muldf3+0x584>
80007e04: 93 04 00 00  	li	s1, 0x0
80007e08: 13 0c 00 00  	li	s8, 0x0
80007e0c: b7 07 08 00  	lui	a5, 0x80
80007e10: b3 e7 f6 00  	or	a5, a3, a5
80007e14: 13 0a 05 00  	mv	s4, a0
80007e18: 93 8a 03 00  	mv	s5, t2
80007e1c: 93 0c 06 00  	mv	s9, a2
80007e20: 13 8d 0e 00  	mv	s10, t4
80007e24: 13 07 06 00  	mv	a4, a2
80007e28: 0b b0 0f 00  	vx_join	t6
80007e2c: 93 0f 00 00  	li	t6, 0x0
80007e30: 0b 30 0f 00  	vx_join	t5
80007e34: 8b a6 1f 00  	vx_split_n	a3, t6
80007e38: 63 84 0f 02  	beqz	t6, 0x80007e60 <__muldf3+0x5bc>
80007e3c: 13 0c 00 00  	li	s8, 0x0
80007e40: 93 04 00 00  	li	s1, 0x0
80007e44: b7 07 08 00  	lui	a5, 0x80
80007e48: b3 e7 f5 00  	or	a5, a1, a5
80007e4c: 13 07 05 00  	mv	a4, a0
80007e50: 93 0c 06 00  	mv	s9, a2
80007e54: 13 8d 0e 00  	mv	s10, t4
80007e58: 13 0a 05 00  	mv	s4, a0
80007e5c: 93 8a 03 00  	mv	s5, t2
80007e60: 0b b0 06 00  	vx_join	a3
80007e64: 13 05 0a 00  	mv	a0, s4
80007e68: 93 83 0a 00  	mv	t2, s5
80007e6c: 13 86 0c 00  	mv	a2, s9
80007e70: 93 0e 0d 00  	mv	t4, s10
80007e74: 13 0f f0 ff  	li	t5, -0x1
80007e78: 0b 30 0e 00  	vx_join	t3
80007e7c: 93 76 1c 00  	andi	a3, s8, 0x1
80007e80: 8b a5 16 00  	vx_split_n	a1, a3
80007e84: 63 82 06 2c  	beqz	a3, 0x80008148 <__muldf3+0x8a4>
80007e88: 93 56 56 01  	srli	a3, a2, 0x15
80007e8c: 93 9e be 00  	slli	t4, t4, 0xb
80007e90: 13 1e b6 00  	slli	t3, a2, 0xb
80007e94: 33 06 ae 02  	mul	a2, t3, a0
80007e98: b3 3f ae 02  	mulhu	t6, t3, a0
80007e9c: 37 04 00 80  	lui	s0, 0x80000
80007ea0: b3 e6 86 00  	or	a3, a3, s0
80007ea4: b3 e6 de 00  	or	a3, t4, a3
80007ea8: b3 be a6 02  	mulhu	t4, a3, a0
80007eac: 33 85 a6 02  	mul	a0, a3, a0
80007eb0: 37 04 10 00  	lui	s0, 0x100
80007eb4: b3 e3 83 00  	or	t2, t2, s0
80007eb8: 33 34 7e 02  	mulhu	s0, t3, t2
80007ebc: 33 0e 7e 02  	mul	t3, t3, t2
80007ec0: 33 b9 76 02  	mulhu	s2, a3, t2
80007ec4: b3 86 76 02  	mul	a3, a3, t2
80007ec8: b3 0f fe 01  	add	t6, t3, t6
80007ecc: b3 b3 cf 01  	sltu	t2, t6, t3
80007ed0: 33 85 af 00  	add	a0, t6, a0
80007ed4: 33 3e f5 01  	sltu	t3, a0, t6
80007ed8: b3 83 c3 01  	add	t2, t2, t3
80007edc: b3 06 d4 00  	add	a3, s0, a3
80007ee0: 33 be 86 00  	sltu	t3, a3, s0
80007ee4: 33 0e c9 01  	add	t3, s2, t3
80007ee8: b3 8e d6 01  	add	t4, a3, t4
80007eec: b3 b6 de 00  	sltu	a3, t4, a3
80007ef0: b3 06 de 00  	add	a3, t3, a3
80007ef4: b3 83 7e 00  	add	t2, t4, t2
80007ef8: 33 be d3 01  	sltu	t3, t2, t4
80007efc: b3 86 c6 01  	add	a3, a3, t3
80007f00: b3 82 62 00  	add	t0, t0, t1
80007f04: b3 82 92 00  	add	t0, t0, s1
80007f08: 93 82 12 c0  	addi	t0, t0, -0x3ff
80007f0c: 13 03 1f 00  	addi	t1, t5, 0x1
80007f10: 13 3e 13 00  	seqz	t3, t1
80007f14: 33 8e c8 01  	add	t3, a7, t3
80007f18: 33 fe c6 01  	and	t3, a3, t3
80007f1c: 33 f3 63 00  	and	t1, t2, t1
80007f20: 33 63 c3 01  	or	t1, t1, t3
80007f24: b3 3f 60 00  	snez	t6, t1
80007f28: 0b a3 1f 00  	vx_split_n	t1, t6
80007f2c: 93 0e 10 00  	li	t4, 0x1
80007f30: 63 86 0f 00  	beqz	t6, 0x80007f3c <__muldf3+0x698>
80007f34: 93 0e 00 00  	li	t4, 0x0
80007f38: 13 8e 12 00  	addi	t3, t0, 0x1
80007f3c: 0b 30 03 00  	vx_join	t1
80007f40: 0b a3 1e 00  	vx_split_n	t1, t4
80007f44: 63 88 0e 02  	beqz	t4, 0x80007f74 <__muldf3+0x6d0>
80007f48: 13 de f3 01  	srli	t3, t2, 0x1f
80007f4c: 93 96 16 00  	slli	a3, a3, 0x1
80007f50: b3 e6 c6 01  	or	a3, a3, t3
80007f54: 93 93 13 00  	slli	t2, t2, 0x1
80007f58: 13 5e f5 01  	srli	t3, a0, 0x1f
80007f5c: b3 e3 c3 01  	or	t2, t2, t3
80007f60: 13 5e f6 01  	srli	t3, a2, 0x1f
80007f64: 13 15 15 00  	slli	a0, a0, 0x1
80007f68: 33 65 c5 01  	or	a0, a0, t3
80007f6c: 13 16 16 00  	slli	a2, a2, 0x1
80007f70: 13 8e 02 00  	mv	t3, t0
80007f74: 0b 30 03 00  	vx_join	t1
80007f78: 13 24 fe 7f  	slti	s0, t3, 0x7ff
80007f7c: 8b 22 14 00  	vx_split_n	t0, s0
80007f80: 13 03 10 00  	li	t1, 0x1
80007f84: 63 00 04 1a  	beqz	s0, 0x80008124 <__muldf3+0x880>
80007f88: 13 03 00 00  	li	t1, 0x0
80007f8c: b3 2f c0 01  	sgtz	t6, t3
80007f90: 8b ae 1f 00  	vx_split_n	t4, t6
80007f94: 13 09 10 00  	li	s2, 0x1
80007f98: 63 8e 0f 00  	beqz	t6, 0x80007fb4 <__muldf3+0x710>
80007f9c: 13 09 00 00  	li	s2, 0x0
80007fa0: 33 f4 e3 01  	and	s0, t2, t5
80007fa4: b3 f8 16 01  	and	a7, a3, a7
80007fa8: 13 13 4e 01  	slli	t1, t3, 0x14
80007fac: b3 64 13 01  	or	s1, t1, a7
80007fb0: 13 03 10 00  	li	t1, 0x1
80007fb4: 0b b0 0e 00  	vx_join	t4
80007fb8: 8b 28 19 00  	vx_split_n	a7, s2
80007fbc: 63 08 09 10  	beqz	s2, 0x800080cc <__muldf3+0x828>
80007fc0: 93 04 10 00  	li	s1, 0x1
80007fc4: 33 8f c4 41  	sub	t5, s1, t3
80007fc8: 13 33 0f 04  	sltiu	t1, t5, 0x40
80007fcc: 13 49 13 00  	xori	s2, t1, 0x1
80007fd0: 0b 24 19 00  	vx_split_n	s0, s2
80007fd4: 63 08 09 00  	beqz	s2, 0x80007fe4 <__muldf3+0x740>
80007fd8: 93 04 00 00  	li	s1, 0x0
80007fdc: 93 0e 00 00  	li	t4, 0x0
80007fe0: 93 0f 08 00  	mv	t6, a6
80007fe4: 0b 30 04 00  	vx_join	s0
80007fe8: 0b a4 14 00  	vx_split_n	s0, s1
80007fec: 63 8a 04 0c  	beqz	s1, 0x800080c0 <__muldf3+0x81c>
80007ff0: 93 0e fe 03  	addi	t4, t3, 0x3f
80007ff4: 93 5f 16 00  	srli	t6, a2, 0x1
80007ff8: b3 04 c0 41  	neg	s1, t3
80007ffc: b3 df 9f 00  	srl	t6, t6, s1
80008000: 33 19 d5 01  	sll	s2, a0, t4
80008004: b3 6f f9 01  	or	t6, s2, t6
80008008: 13 0e fe 01  	addi	t3, t3, 0x1f
8000800c: 13 29 0e 00  	slti	s2, t3, 0x0
80008010: b3 df 2f 0f  	czero.eqz	t6, t6, s2
80008014: b3 19 c6 01  	sll	s3, a2, t3
80008018: b3 f9 29 0f  	czero.nez	s3, s3, s2
8000801c: 33 1a d6 01  	sll	s4, a2, t4
80008020: 33 5a 2a 0f  	czero.eqz	s4, s4, s2
80008024: b3 69 3a 01  	or	s3, s4, s3
80008028: b3 ef f9 01  	or	t6, s3, t6
8000802c: b3 3f f0 01  	snez	t6, t6
80008030: 93 d9 13 00  	srli	s3, t2, 0x1
80008034: b3 d4 99 00  	srl	s1, s3, s1
80008038: b3 99 d6 01  	sll	s3, a3, t4
8000803c: b3 e4 99 00  	or	s1, s3, s1
80008040: b3 d4 24 0f  	czero.eqz	s1, s1, s2
80008044: 33 9e c3 01  	sll	t3, t2, t3
80008048: 33 7e 2e 0f  	czero.nez	t3, t3, s2
8000804c: 33 ee c4 01  	or	t3, s1, t3
80008050: b3 9e d3 01  	sll	t4, t2, t4
80008054: b3 de 2e 0f  	czero.eqz	t4, t4, s2
80008058: 33 56 e6 01  	srl	a2, a2, t5
8000805c: 93 14 15 00  	slli	s1, a0, 0x1
80008060: 13 49 ff ff  	not	s2, t5
80008064: b3 94 24 01  	sll	s1, s1, s2
80008068: 33 66 96 00  	or	a2, a2, s1
8000806c: 93 04 0f fe  	addi	s1, t5, -0x20
80008070: 93 a4 04 00  	slti	s1, s1, 0x0
80008074: 33 56 96 0e  	czero.eqz	a2, a2, s1
80008078: 33 55 e5 01  	srl	a0, a0, t5
8000807c: b3 79 95 0e  	czero.nez	s3, a0, s1
80008080: 33 55 95 0e  	czero.eqz	a0, a0, s1
80008084: 33 65 ae 00  	or	a0, t3, a0
80008088: 33 ee 3e 01  	or	t3, t4, s3
8000808c: 33 66 ce 00  	or	a2, t3, a2
80008090: 33 66 f6 01  	or	a2, a2, t6
80008094: b3 d3 e3 01  	srl	t2, t2, t5
80008098: 13 9e 16 00  	slli	t3, a3, 0x1
8000809c: 33 1e 2e 01  	sll	t3, t3, s2
800080a0: b3 e3 c3 01  	or	t2, t2, t3
800080a4: b3 d3 93 0e  	czero.eqz	t2, t2, s1
800080a8: b3 d6 e6 01  	srl	a3, a3, t5
800080ac: 33 fe 96 0e  	czero.nez	t3, a3, s1
800080b0: b3 e3 c3 01  	or	t2, t2, t3
800080b4: b3 d6 96 0e  	czero.eqz	a3, a3, s1
800080b8: 93 0e 07 00  	mv	t4, a4
800080bc: 93 8f 07 00  	mv	t6, a5
800080c0: 0b 30 04 00  	vx_join	s0
800080c4: 13 84 03 00  	mv	s0, t2
800080c8: 93 84 06 00  	mv	s1, a3
800080cc: 0b b0 08 00  	vx_join	a7
800080d0: 8b 26 13 00  	vx_split_n	a3, t1
800080d4: 63 04 03 04  	beqz	t1, 0x8000811c <__muldf3+0x878>
800080d8: 33 e7 04 01  	or	a4, s1, a6
800080dc: b7 07 00 80  	lui	a5, 0x80000
800080e0: b3 48 f5 00  	xor	a7, a0, a5
800080e4: 33 b5 a7 00  	sltu	a0, a5, a0
800080e8: 33 55 15 0f  	czero.eqz	a0, a0, a7
800080ec: b3 37 c0 00  	snez	a5, a2
800080f0: b3 f7 17 0f  	czero.nez	a5, a5, a7
800080f4: 33 e5 a7 00  	or	a0, a5, a0
800080f8: 33 05 a4 00  	add	a0, s0, a0
800080fc: b3 37 85 00  	sltu	a5, a0, s0
80008100: 33 07 f7 00  	add	a4, a4, a5
80008104: 33 66 16 01  	or	a2, a2, a7
80008108: 13 36 16 00  	seqz	a2, a2
8000810c: 33 76 a6 00  	and	a2, a2, a0
80008110: b3 0e a6 00  	add	t4, a2, a0
80008114: b3 bf ce 00  	sltu	t6, t4, a2
80008118: b3 0f f7 01  	add	t6, a4, t6
8000811c: 0b b0 06 00  	vx_join	a3
80008120: 13 03 00 00  	li	t1, 0x0
80008124: 0b b0 02 00  	vx_join	t0
80008128: 0b 25 13 00  	vx_split_n	a0, t1
8000812c: 63 08 03 00  	beqz	t1, 0x8000813c <__muldf3+0x898>
80008130: 93 0e 00 00  	li	t4, 0x0
80008134: 37 06 f0 7f  	lui	a2, 0x7ff00
80008138: b3 6f c8 00  	or	t6, a6, a2
8000813c: 0b 30 05 00  	vx_join	a0
80008140: 13 87 0e 00  	mv	a4, t4
80008144: 93 87 0f 00  	mv	a5, t6
80008148: 0b b0 05 00  	vx_join	a1
8000814c: 13 05 07 00  	mv	a0, a4
80008150: 93 85 07 00  	mv	a1, a5
80008154: 83 20 c1 03  	lw	ra, 0x3c(sp)
80008158: 03 24 81 03  	lw	s0, 0x38(sp)
8000815c: 83 24 41 03  	lw	s1, 0x34(sp)
80008160: 03 29 01 03  	lw	s2, 0x30(sp)
80008164: 83 29 c1 02  	lw	s3, 0x2c(sp)
80008168: 03 2a 81 02  	lw	s4, 0x28(sp)
8000816c: 83 2a 41 02  	lw	s5, 0x24(sp)
80008170: 03 2b 01 02  	lw	s6, 0x20(sp)
80008174: 83 2b c1 01  	lw	s7, 0x1c(sp)
80008178: 03 2c 81 01  	lw	s8, 0x18(sp)
8000817c: 83 2c 41 01  	lw	s9, 0x14(sp)
80008180: 03 2d 01 01  	lw	s10, 0x10(sp)
80008184: 83 2d c1 00  	lw	s11, 0xc(sp)
80008188: 13 01 01 04  	addi	sp, sp, 0x40
8000818c: 67 80 00 00  	ret

80008190 <__subdf3>:
80008190: 37 07 00 80  	lui	a4, 0x80000
80008194: b3 c6 e6 00  	xor	a3, a3, a4
80008198: 6f d0 df b0  	j	0x80005ca4 <__adddf3>

8000819c <__truncdfsf2>:
8000819c: 13 96 15 00  	slli	a2, a1, 0x1
800081a0: 13 56 56 01  	srli	a2, a2, 0x15
800081a4: 93 96 c5 00  	slli	a3, a1, 0xc
800081a8: 13 de c6 00  	srli	t3, a3, 0xc
800081ac: 93 06 f6 c7  	addi	a3, a2, -0x381
800081b0: 93 b6 e6 0f  	sltiu	a3, a3, 0xfe
800081b4: 93 c8 16 00  	xori	a7, a3, 0x1
800081b8: 8b a7 18 00  	vx_split_n	a5, a7
800081bc: 13 08 10 00  	li	a6, 0x1
800081c0: 93 56 d5 01  	srli	a3, a0, 0x1d
800081c4: 13 17 3e 00  	slli	a4, t3, 0x3
800081c8: 63 82 08 1c  	beqz	a7, 0x8000838c <__truncdfsf2+0x1f0>
800081cc: 13 08 16 80  	addi	a6, a2, -0x7ff
800081d0: 33 38 00 01  	snez	a6, a6
800081d4: b3 68 c5 01  	or	a7, a0, t3
800081d8: 93 b8 18 00  	seqz	a7, a7
800081dc: b3 e2 08 01  	or	t0, a7, a6
800081e0: 0b a8 12 00  	vx_split_n	a6, t0
800081e4: 93 08 10 00  	li	a7, 0x1
800081e8: 63 80 02 18  	beqz	t0, 0x80008368 <__truncdfsf2+0x1cc>
800081ec: 13 03 00 00  	li	t1, 0x0
800081f0: 93 32 f6 47  	sltiu	t0, a2, 0x47f
800081f4: 8b a8 12 00  	vx_split_n	a7, t0
800081f8: 93 03 f0 0f  	li	t2, 0xff
800081fc: 63 82 02 16  	beqz	t0, 0x80008360 <__truncdfsf2+0x1c4>
80008200: 13 03 00 00  	li	t1, 0x0
80008204: 93 03 00 00  	li	t2, 0x0
80008208: 93 32 16 00  	seqz	t0, a2
8000820c: 13 cf 12 38  	xori	t5, t0, 0x381
80008210: b3 0e cf 40  	sub	t4, t5, a2
80008214: 93 af 5e 03  	slti	t6, t4, 0x35
80008218: 8b a2 1f 00  	vx_split_n	t0, t6
8000821c: 63 80 0f 14  	beqz	t6, 0x8000835c <__truncdfsf2+0x1c0>
80008220: 13 01 01 ff  	addi	sp, sp, -0x10
80008224: 23 26 81 00  	sw	s0, 0xc(sp)
80008228: 23 24 91 00  	sw	s1, 0x8(sp)
8000822c: 23 22 21 01  	sw	s2, 0x4(sp)
80008230: 23 20 31 01  	sw	s3, 0x0(sp)
80008234: 13 03 f0 ff  	li	t1, -0x1
80008238: b7 03 10 00  	lui	t2, 0x100
8000823c: 93 83 f3 ff  	addi	t2, t2, -0x1
80008240: 13 03 13 00  	addi	t1, t1, 0x1
80008244: 93 3f 13 00  	seqz	t6, t1
80008248: b3 83 f3 01  	add	t2, t2, t6
8000824c: b3 d3 c3 0e  	czero.eqz	t2, t2, a2
80008250: b3 63 7e 00  	or	t2, t3, t2
80008254: 33 53 c3 0e  	czero.eqz	t1, t1, a2
80008258: 33 63 65 00  	or	t1, a0, t1
8000825c: 33 4e cf 00  	xor	t3, t5, a2
80008260: 33 3e c0 01  	snez	t3, t3
80008264: 13 0f 00 04  	li	t5, 0x40
80008268: 33 0f df 41  	sub	t5, t5, t4
8000826c: b3 0f d0 41  	neg	t6, t4
80008270: 33 14 f3 01  	sll	s0, t1, t6
80008274: 93 04 00 02  	li	s1, 0x20
80008278: b3 84 d4 41  	sub	s1, s1, t4
8000827c: 93 a4 04 00  	slti	s1, s1, 0x0
80008280: 33 79 94 0e  	czero.nez	s2, s0, s1
80008284: 13 4f ff ff  	not	t5, t5
80008288: 93 59 13 00  	srli	s3, t1, 0x1
8000828c: 33 df e9 01  	srl	t5, s3, t5
80008290: b3 9f f3 01  	sll	t6, t2, t6
80008294: 33 ef ef 01  	or	t5, t6, t5
80008298: 33 5f 9f 0e  	czero.eqz	t5, t5, s1
8000829c: b3 5f 94 0e  	czero.eqz	t6, s0, s1
800082a0: b3 ef 2f 01  	or	t6, t6, s2
800082a4: 33 ef ef 01  	or	t5, t6, t5
800082a8: 33 3f e0 01  	snez	t5, t5
800082ac: 33 7e ee 01  	and	t3, t3, t5
800082b0: 33 53 d3 01  	srl	t1, t1, t4
800082b4: 13 9f 13 00  	slli	t5, t2, 0x1
800082b8: 93 cf fe ff  	not	t6, t4
800082bc: 33 1f ff 01  	sll	t5, t5, t6
800082c0: 33 63 e3 01  	or	t1, t1, t5
800082c4: 13 8f 0e fe  	addi	t5, t4, -0x20
800082c8: 13 2f 0f 00  	slti	t5, t5, 0x0
800082cc: 33 53 e3 0f  	czero.eqz	t1, t1, t5
800082d0: b3 d3 d3 01  	srl	t2, t2, t4
800082d4: b3 fe e3 0f  	czero.nez	t4, t2, t5
800082d8: b3 6e d3 01  	or	t4, t1, t4
800082dc: 33 d3 e3 0f  	czero.eqz	t1, t2, t5
800082e0: 93 d3 de 01  	srli	t2, t4, 0x1d
800082e4: 13 13 33 00  	slli	t1, t1, 0x3
800082e8: 33 e3 63 00  	or	t1, t2, t1
800082ec: 93 9e 3e 00  	slli	t4, t4, 0x3
800082f0: 93 d3 3e 00  	srli	t2, t4, 0x3
800082f4: 33 ef c3 01  	or	t5, t2, t3
800082f8: b7 0f 00 10  	lui	t6, 0x10000
800082fc: 93 83 1f 00  	addi	t2, t6, 0x1
80008300: 33 34 7f 00  	sltu	s0, t5, t2
80008304: 8b 23 14 00  	vx_split_n	t2, s0
80008308: 93 0e 10 00  	li	t4, 0x1
8000830c: 63 0c 04 00  	beqz	s0, 0x80008324 <__truncdfsf2+0x188>
80008310: 93 0e 00 00  	li	t4, 0x0
80008314: 33 4e ff 01  	xor	t3, t5, t6
80008318: 13 3e 1e 00  	seqz	t3, t3
8000831c: 33 7e 6e 00  	and	t3, t3, t1
80008320: 33 0e 6e 00  	add	t3, t3, t1
80008324: 0b b0 03 00  	vx_join	t2
80008328: 03 24 c1 00  	lw	s0, 0xc(sp)
8000832c: 83 24 81 00  	lw	s1, 0x8(sp)
80008330: 03 29 41 00  	lw	s2, 0x4(sp)
80008334: 83 29 01 00  	lw	s3, 0x0(sp)
80008338: 13 01 01 01  	addi	sp, sp, 0x10
8000833c: 8b a3 1e 00  	vx_split_n	t2, t4
80008340: 63 84 0e 00  	beqz	t4, 0x80008348 <__truncdfsf2+0x1ac>
80008344: 13 0e 13 00  	addi	t3, t1, 0x1
80008348: 0b b0 03 00  	vx_join	t2
8000834c: 13 53 7e 01  	srli	t1, t3, 0x17
80008350: b3 33 60 00  	snez	t2, t1
80008354: 13 93 73 01  	slli	t1, t2, 0x17
80008358: 33 43 6e 00  	xor	t1, t3, t1
8000835c: 0b b0 02 00  	vx_join	t0
80008360: 0b b0 08 00  	vx_join	a7
80008364: 93 08 00 00  	li	a7, 0x0
80008368: 0b 30 08 00  	vx_join	a6
8000836c: 0b a8 18 00  	vx_split_n	a6, a7
80008370: 63 8a 08 00  	beqz	a7, 0x80008384 <__truncdfsf2+0x1e8>
80008374: b3 e8 e6 00  	or	a7, a3, a4
80008378: b7 02 40 00  	lui	t0, 0x400
8000837c: 33 e3 58 00  	or	t1, a7, t0
80008380: 93 03 f0 0f  	li	t2, 0xff
80008384: 0b 30 08 00  	vx_join	a6
80008388: 13 08 00 00  	li	a6, 0x0
8000838c: 0b b0 07 00  	vx_join	a5
80008390: 8b 27 18 00  	vx_split_n	a5, a6
80008394: 63 02 08 06  	beqz	a6, 0x800083f8 <__truncdfsf2+0x25c>
80008398: b3 e6 e6 00  	or	a3, a3, a4
8000839c: 13 15 35 00  	slli	a0, a0, 0x3
800083a0: 93 58 35 00  	srli	a7, a0, 0x3
800083a4: b7 02 00 10  	lui	t0, 0x10000
800083a8: 13 85 12 00  	addi	a0, t0, 0x1
800083ac: 33 b3 a8 00  	sltu	t1, a7, a0
800083b0: 0b 27 13 00  	vx_split_n	a4, t1
800083b4: 13 08 10 00  	li	a6, 0x1
800083b8: 63 0c 03 00  	beqz	t1, 0x800083d0 <__truncdfsf2+0x234>
800083bc: 13 08 00 00  	li	a6, 0x0
800083c0: 33 c5 58 00  	xor	a0, a7, t0
800083c4: 13 35 15 00  	seqz	a0, a0
800083c8: 33 75 d5 00  	and	a0, a0, a3
800083cc: 33 05 d5 00  	add	a0, a0, a3
800083d0: 0b 30 07 00  	vx_join	a4
800083d4: 0b 27 18 00  	vx_split_n	a4, a6
800083d8: 63 04 08 00  	beqz	a6, 0x800083e0 <__truncdfsf2+0x244>
800083dc: 13 85 16 00  	addi	a0, a3, 0x1
800083e0: 0b 30 07 00  	vx_join	a4
800083e4: 93 56 75 01  	srli	a3, a0, 0x17
800083e8: 33 37 d0 00  	snez	a4, a3
800083ec: 33 73 d5 0e  	czero.nez	t1, a0, a3
800083f0: 33 06 e6 00  	add	a2, a2, a4
800083f4: 93 03 06 c8  	addi	t2, a2, -0x380
800083f8: 0b b0 07 00  	vx_join	a5
800083fc: 37 05 00 80  	lui	a0, 0x80000
80008400: 33 f5 a5 00  	and	a0, a1, a0
80008404: 93 93 73 01  	slli	t2, t2, 0x17
80008408: b3 e5 63 00  	or	a1, t2, t1
8000840c: 33 e5 a5 00  	or	a0, a1, a0
80008410: 53 05 05 f0  	fmv.w.x	fa0, a0
80008414: 67 80 00 00  	ret

80008418 <__udivdi3>:
80008418: 33 67 d6 00  	or	a4, a2, a3
8000841c: b3 37 e0 00  	snez	a5, a4
80008420: 0b a7 17 00  	vx_split_n	a4, a5
80008424: 13 08 00 04  	li	a6, 0x40
80008428: 63 86 07 0e  	beqz	a5, 0x80008514 <__udivdi3+0xfc>
8000842c: 93 57 16 00  	srli	a5, a2, 0x1
80008430: b3 67 f6 00  	or	a5, a2, a5
80008434: 13 d8 27 00  	srli	a6, a5, 0x2
80008438: b3 e7 07 01  	or	a5, a5, a6
8000843c: 13 d8 47 00  	srli	a6, a5, 0x4
80008440: b3 e7 07 01  	or	a5, a5, a6
80008444: 13 d8 87 00  	srli	a6, a5, 0x8
80008448: b3 e7 07 01  	or	a5, a5, a6
8000844c: 13 d8 07 01  	srli	a6, a5, 0x10
80008450: b3 e7 07 01  	or	a5, a5, a6
80008454: 93 c7 f7 ff  	not	a5, a5
80008458: 13 d8 17 00  	srli	a6, a5, 0x1
8000845c: b7 58 55 55  	lui	a7, 0x55555
80008460: 93 88 58 55  	addi	a7, a7, 0x555
80008464: 33 78 18 01  	and	a6, a6, a7
80008468: b3 87 07 41  	sub	a5, a5, a6
8000846c: 37 38 33 33  	lui	a6, 0x33333
80008470: 13 08 38 33  	addi	a6, a6, 0x333
80008474: b3 f2 07 01  	and	t0, a5, a6
80008478: 93 d7 27 00  	srli	a5, a5, 0x2
8000847c: b3 f7 07 01  	and	a5, a5, a6
80008480: b3 87 f2 00  	add	a5, t0, a5
80008484: 93 d2 47 00  	srli	t0, a5, 0x4
80008488: b3 87 57 00  	add	a5, a5, t0
8000848c: b7 12 0f 0f  	lui	t0, 0xf0f1
80008490: 93 82 f2 f0  	addi	t0, t0, -0xf1
80008494: b3 f7 57 00  	and	a5, a5, t0
80008498: 37 03 01 01  	lui	t1, 0x1010
8000849c: 13 03 13 10  	addi	t1, t1, 0x101
800084a0: b3 87 67 02  	mul	a5, a5, t1
800084a4: 93 d7 87 01  	srli	a5, a5, 0x18
800084a8: 93 87 07 02  	addi	a5, a5, 0x20
800084ac: b3 f7 d7 0e  	czero.nez	a5, a5, a3
800084b0: 93 d3 16 00  	srli	t2, a3, 0x1
800084b4: b3 e3 76 00  	or	t2, a3, t2
800084b8: 13 de 23 00  	srli	t3, t2, 0x2
800084bc: b3 e3 c3 01  	or	t2, t2, t3
800084c0: 13 de 43 00  	srli	t3, t2, 0x4
800084c4: b3 e3 c3 01  	or	t2, t2, t3
800084c8: 13 de 83 00  	srli	t3, t2, 0x8
800084cc: b3 e3 c3 01  	or	t2, t2, t3
800084d0: 13 de 03 01  	srli	t3, t2, 0x10
800084d4: b3 e3 c3 01  	or	t2, t2, t3
800084d8: 93 c3 f3 ff  	not	t2, t2
800084dc: 13 de 13 00  	srli	t3, t2, 0x1
800084e0: b3 78 1e 01  	and	a7, t3, a7
800084e4: b3 88 13 41  	sub	a7, t2, a7
800084e8: b3 f3 08 01  	and	t2, a7, a6
800084ec: 93 d8 28 00  	srli	a7, a7, 0x2
800084f0: 33 f8 08 01  	and	a6, a7, a6
800084f4: 33 88 03 01  	add	a6, t2, a6
800084f8: 93 58 48 00  	srli	a7, a6, 0x4
800084fc: 33 08 18 01  	add	a6, a6, a7
80008500: 33 78 58 00  	and	a6, a6, t0
80008504: 33 08 68 02  	mul	a6, a6, t1
80008508: 13 58 88 01  	srli	a6, a6, 0x18
8000850c: 33 58 d8 0e  	czero.eqz	a6, a6, a3
80008510: 33 68 f8 00  	or	a6, a6, a5
80008514: 0b 30 07 00  	vx_join	a4
80008518: 33 67 b5 00  	or	a4, a0, a1
8000851c: b3 37 e0 00  	snez	a5, a4
80008520: 0b a7 17 00  	vx_split_n	a4, a5
80008524: 13 03 00 04  	li	t1, 0x40
80008528: 93 52 15 00  	srli	t0, a0, 0x1
8000852c: 63 84 07 0e  	beqz	a5, 0x80008614 <__udivdi3+0x1fc>
80008530: b3 67 55 00  	or	a5, a0, t0
80008534: 93 d8 27 00  	srli	a7, a5, 0x2
80008538: b3 e7 17 01  	or	a5, a5, a7
8000853c: 93 d8 47 00  	srli	a7, a5, 0x4
80008540: b3 e7 17 01  	or	a5, a5, a7
80008544: 93 d8 87 00  	srli	a7, a5, 0x8
80008548: b3 e7 17 01  	or	a5, a5, a7
8000854c: 93 d8 07 01  	srli	a7, a5, 0x10
80008550: b3 e7 17 01  	or	a5, a5, a7
80008554: 93 c7 f7 ff  	not	a5, a5
80008558: 93 d8 17 00  	srli	a7, a5, 0x1
8000855c: 37 53 55 55  	lui	t1, 0x55555
80008560: 13 03 53 55  	addi	t1, t1, 0x555
80008564: b3 f8 68 00  	and	a7, a7, t1
80008568: b3 87 17 41  	sub	a5, a5, a7
8000856c: b7 38 33 33  	lui	a7, 0x33333
80008570: 93 88 38 33  	addi	a7, a7, 0x333
80008574: b3 f3 17 01  	and	t2, a5, a7
80008578: 93 d7 27 00  	srli	a5, a5, 0x2
8000857c: b3 f7 17 01  	and	a5, a5, a7
80008580: b3 87 f3 00  	add	a5, t2, a5
80008584: 93 d3 47 00  	srli	t2, a5, 0x4
80008588: b3 87 77 00  	add	a5, a5, t2
8000858c: b7 13 0f 0f  	lui	t2, 0xf0f1
80008590: 93 83 f3 f0  	addi	t2, t2, -0xf1
80008594: b3 f7 77 00  	and	a5, a5, t2
80008598: 37 0e 01 01  	lui	t3, 0x1010
8000859c: 13 0e 1e 10  	addi	t3, t3, 0x101
800085a0: b3 87 c7 03  	mul	a5, a5, t3
800085a4: 93 d7 87 01  	srli	a5, a5, 0x18
800085a8: 93 87 07 02  	addi	a5, a5, 0x20
800085ac: b3 f7 b7 0e  	czero.nez	a5, a5, a1
800085b0: 93 de 15 00  	srli	t4, a1, 0x1
800085b4: b3 ee d5 01  	or	t4, a1, t4
800085b8: 13 df 2e 00  	srli	t5, t4, 0x2
800085bc: b3 ee ee 01  	or	t4, t4, t5
800085c0: 13 df 4e 00  	srli	t5, t4, 0x4
800085c4: b3 ee ee 01  	or	t4, t4, t5
800085c8: 13 df 8e 00  	srli	t5, t4, 0x8
800085cc: b3 ee ee 01  	or	t4, t4, t5
800085d0: 13 df 0e 01  	srli	t5, t4, 0x10
800085d4: b3 ee ee 01  	or	t4, t4, t5
800085d8: 93 ce fe ff  	not	t4, t4
800085dc: 13 df 1e 00  	srli	t5, t4, 0x1
800085e0: 33 73 6f 00  	and	t1, t5, t1
800085e4: 33 83 6e 40  	sub	t1, t4, t1
800085e8: b3 7e 13 01  	and	t4, t1, a7
800085ec: 13 53 23 00  	srli	t1, t1, 0x2
800085f0: b3 78 13 01  	and	a7, t1, a7
800085f4: b3 88 1e 01  	add	a7, t4, a7
800085f8: 13 d3 48 00  	srli	t1, a7, 0x4
800085fc: b3 88 68 00  	add	a7, a7, t1
80008600: b3 f8 78 00  	and	a7, a7, t2
80008604: b3 88 c8 03  	mul	a7, a7, t3
80008608: 93 d8 88 01  	srli	a7, a7, 0x18
8000860c: b3 d8 b8 0e  	czero.eqz	a7, a7, a1
80008610: 33 e3 f8 00  	or	t1, a7, a5
80008614: 0b 30 07 00  	vx_join	a4
80008618: 13 07 00 00  	li	a4, 0x0
8000861c: 93 07 00 00  	li	a5, 0x0
80008620: b3 03 68 40  	sub	t2, a6, t1
80008624: 13 be 03 04  	sltiu	t3, t2, 0x40
80008628: 8b 28 1e 00  	vx_split_n	a7, t3
8000862c: 63 00 0e 14  	beqz	t3, 0x8000876c <__udivdi3+0x354>
80008630: 13 87 13 fc  	addi	a4, t2, -0x3f
80008634: b3 37 e0 00  	snez	a5, a4
80008638: 0b a7 17 00  	vx_split_n	a4, a5
8000863c: 63 82 07 12  	beqz	a5, 0x80008760 <__udivdi3+0x348>
80008640: 13 01 01 ff  	addi	sp, sp, -0x10
80008644: 23 26 81 00  	sw	s0, 0xc(sp)
80008648: 93 07 00 00  	li	a5, 0x0
8000864c: 13 0e 00 00  	li	t3, 0x0
80008650: 13 8f 13 00  	addi	t5, t2, 0x1
80008654: b3 5e e5 01  	srl	t4, a0, t5
80008658: 93 0f e0 01  	li	t6, 0x1e
8000865c: b3 8f 7f 40  	sub	t6, t6, t2
80008660: 13 94 15 00  	slli	s0, a1, 0x1
80008664: b3 1f f4 01  	sll	t6, s0, t6
80008668: b3 ee fe 01  	or	t4, t4, t6
8000866c: 93 8f 13 fe  	addi	t6, t2, -0x1f
80008670: 13 a4 0f 00  	slti	s0, t6, 0x0
80008674: b3 de 8e 0e  	czero.eqz	t4, t4, s0
80008678: b3 df f5 01  	srl	t6, a1, t6
8000867c: b3 ff 8f 0e  	czero.nez	t6, t6, s0
80008680: b3 ee fe 01  	or	t4, t4, t6
80008684: 33 df e5 01  	srl	t5, a1, t5
80008688: 33 5f 8f 0e  	czero.eqz	t5, t5, s0
8000868c: 93 c3 f3 03  	xori	t2, t2, 0x3f
80008690: 93 cf f3 ff  	not	t6, t2
80008694: b3 d2 f2 01  	srl	t0, t0, t6
80008698: b3 95 75 00  	sll	a1, a1, t2
8000869c: b3 e5 55 00  	or	a1, a1, t0
800086a0: 93 82 03 fe  	addi	t0, t2, -0x20
800086a4: 93 a2 02 00  	slti	t0, t0, 0x0
800086a8: b3 d5 55 0e  	czero.eqz	a1, a1, t0
800086ac: 33 15 75 00  	sll	a0, a0, t2
800086b0: b3 73 55 0e  	czero.nez	t2, a0, t0
800086b4: b3 e5 75 00  	or	a1, a1, t2
800086b8: 33 55 55 0e  	czero.eqz	a0, a0, t0
800086bc: 13 48 f8 ff  	not	a6, a6
800086c0: 33 03 68 00  	add	t1, a6, t1
800086c4: 73 28 40 cc  	csrr	a6, tmask
800086c8: 03 24 c1 00  	lw	s0, 0xc(sp)
800086cc: 13 01 01 01  	addi	sp, sp, 0x10
800086d0: 93 92 1e 00  	slli	t0, t4, 0x1
800086d4: 93 d3 f5 01  	srli	t2, a1, 0x1f
800086d8: b3 e2 72 00  	or	t0, t0, t2
800086dc: 93 d3 fe 01  	srli	t2, t4, 0x1f
800086e0: 13 1f 1f 00  	slli	t5, t5, 0x1
800086e4: b3 63 7f 00  	or	t2, t5, t2
800086e8: 93 5e f5 01  	srli	t4, a0, 0x1f
800086ec: 93 95 15 00  	slli	a1, a1, 0x1
800086f0: b3 e5 d5 01  	or	a1, a1, t4
800086f4: 13 15 15 00  	slli	a0, a0, 0x1
800086f8: 33 65 f5 00  	or	a0, a0, a5
800086fc: b3 e5 c5 01  	or	a1, a1, t3
80008700: 93 c7 f3 ff  	not	a5, t2
80008704: 13 ce f2 ff  	not	t3, t0
80008708: b3 0e ce 00  	add	t4, t3, a2
8000870c: 33 be ce 01  	sltu	t3, t4, t3
80008710: b3 87 d7 00  	add	a5, a5, a3
80008714: 33 8e c7 01  	add	t3, a5, t3
80008718: 93 57 fe 01  	srli	a5, t3, 0x1f
8000871c: 13 5e fe 41  	srai	t3, t3, 0x1f
80008720: b3 7e de 00  	and	t4, t3, a3
80008724: 33 7e ce 00  	and	t3, t3, a2
80008728: 33 bf c2 01  	sltu	t5, t0, t3
8000872c: b3 83 d3 41  	sub	t2, t2, t4
80008730: 33 8f e3 41  	sub	t5, t2, t5
80008734: b3 8e c2 41  	sub	t4, t0, t3
80008738: 13 03 13 00  	addi	t1, t1, 0x1
8000873c: 93 32 13 00  	seqz	t0, t1
80008740: 8b d0 02 01  	vx_pred_n	t0, a6
80008744: 13 0e 00 00  	li	t3, 0x0
80008748: e3 84 02 f8  	beqz	t0, 0x800086d0 <__udivdi3+0x2b8>
8000874c: 13 56 f5 01  	srli	a2, a0, 0x1f
80008750: 93 95 15 00  	slli	a1, a1, 0x1
80008754: b3 e5 c5 00  	or	a1, a1, a2
80008758: 13 15 15 00  	slli	a0, a0, 0x1
8000875c: 33 e5 a7 00  	or	a0, a5, a0
80008760: 0b 30 07 00  	vx_join	a4
80008764: 13 07 05 00  	mv	a4, a0
80008768: 93 87 05 00  	mv	a5, a1
8000876c: 0b b0 08 00  	vx_join	a7
80008770: 13 05 07 00  	mv	a0, a4
80008774: 93 85 07 00  	mv	a1, a5
80008778: 67 80 00 00  	ret

8000877c <__umoddi3>:
8000877c: 33 67 d6 00  	or	a4, a2, a3
80008780: 33 38 e0 00  	snez	a6, a4
80008784: 8b 27 18 00  	vx_split_n	a5, a6
80008788: 13 07 00 04  	li	a4, 0x40
8000878c: 63 06 08 0e  	beqz	a6, 0x80008878 <__umoddi3+0xfc>
80008790: 13 57 16 00  	srli	a4, a2, 0x1
80008794: 33 67 e6 00  	or	a4, a2, a4
80008798: 13 58 27 00  	srli	a6, a4, 0x2
8000879c: 33 67 07 01  	or	a4, a4, a6
800087a0: 13 58 47 00  	srli	a6, a4, 0x4
800087a4: 33 67 07 01  	or	a4, a4, a6
800087a8: 13 58 87 00  	srli	a6, a4, 0x8
800087ac: 33 67 07 01  	or	a4, a4, a6
800087b0: 13 58 07 01  	srli	a6, a4, 0x10
800087b4: 33 67 07 01  	or	a4, a4, a6
800087b8: 13 47 f7 ff  	not	a4, a4
800087bc: 13 58 17 00  	srli	a6, a4, 0x1
800087c0: b7 58 55 55  	lui	a7, 0x55555
800087c4: 93 88 58 55  	addi	a7, a7, 0x555
800087c8: 33 78 18 01  	and	a6, a6, a7
800087cc: 33 07 07 41  	sub	a4, a4, a6
800087d0: 37 38 33 33  	lui	a6, 0x33333
800087d4: 13 08 38 33  	addi	a6, a6, 0x333
800087d8: b3 72 07 01  	and	t0, a4, a6
800087dc: 13 57 27 00  	srli	a4, a4, 0x2
800087e0: 33 77 07 01  	and	a4, a4, a6
800087e4: 33 87 e2 00  	add	a4, t0, a4
800087e8: 93 52 47 00  	srli	t0, a4, 0x4
800087ec: 33 07 57 00  	add	a4, a4, t0
800087f0: b7 12 0f 0f  	lui	t0, 0xf0f1
800087f4: 93 82 f2 f0  	addi	t0, t0, -0xf1
800087f8: 33 77 57 00  	and	a4, a4, t0
800087fc: 37 03 01 01  	lui	t1, 0x1010
80008800: 13 03 13 10  	addi	t1, t1, 0x101
80008804: 33 07 67 02  	mul	a4, a4, t1
80008808: 13 57 87 01  	srli	a4, a4, 0x18
8000880c: 13 07 07 02  	addi	a4, a4, 0x20
80008810: 33 77 d7 0e  	czero.nez	a4, a4, a3
80008814: 93 d3 16 00  	srli	t2, a3, 0x1
80008818: b3 e3 76 00  	or	t2, a3, t2
8000881c: 13 de 23 00  	srli	t3, t2, 0x2
80008820: b3 e3 c3 01  	or	t2, t2, t3
80008824: 13 de 43 00  	srli	t3, t2, 0x4
80008828: b3 e3 c3 01  	or	t2, t2, t3
8000882c: 13 de 83 00  	srli	t3, t2, 0x8
80008830: b3 e3 c3 01  	or	t2, t2, t3
80008834: 13 de 03 01  	srli	t3, t2, 0x10
80008838: b3 e3 c3 01  	or	t2, t2, t3
8000883c: 93 c3 f3 ff  	not	t2, t2
80008840: 13 de 13 00  	srli	t3, t2, 0x1
80008844: b3 78 1e 01  	and	a7, t3, a7
80008848: b3 88 13 41  	sub	a7, t2, a7
8000884c: b3 f3 08 01  	and	t2, a7, a6
80008850: 93 d8 28 00  	srli	a7, a7, 0x2
80008854: 33 f8 08 01  	and	a6, a7, a6
80008858: 33 88 03 01  	add	a6, t2, a6
8000885c: 93 58 48 00  	srli	a7, a6, 0x4
80008860: 33 08 18 01  	add	a6, a6, a7
80008864: 33 78 58 00  	and	a6, a6, t0
80008868: 33 08 68 02  	mul	a6, a6, t1
8000886c: 13 58 88 01  	srli	a6, a6, 0x18
80008870: 33 58 d8 0e  	czero.eqz	a6, a6, a3
80008874: 33 67 e8 00  	or	a4, a6, a4
80008878: 0b b0 07 00  	vx_join	a5
8000887c: b3 67 b5 00  	or	a5, a0, a1
80008880: b3 38 f0 00  	snez	a7, a5
80008884: 8b a7 18 00  	vx_split_n	a5, a7
80008888: 93 02 00 04  	li	t0, 0x40
8000888c: 13 58 15 00  	srli	a6, a0, 0x1
80008890: 63 84 08 0e  	beqz	a7, 0x80008978 <__umoddi3+0x1fc>
80008894: b3 68 05 01  	or	a7, a0, a6
80008898: 93 d2 28 00  	srli	t0, a7, 0x2
8000889c: b3 e8 58 00  	or	a7, a7, t0
800088a0: 93 d2 48 00  	srli	t0, a7, 0x4
800088a4: b3 e8 58 00  	or	a7, a7, t0
800088a8: 93 d2 88 00  	srli	t0, a7, 0x8
800088ac: b3 e8 58 00  	or	a7, a7, t0
800088b0: 93 d2 08 01  	srli	t0, a7, 0x10
800088b4: b3 e8 58 00  	or	a7, a7, t0
800088b8: 93 c8 f8 ff  	not	a7, a7
800088bc: 93 d2 18 00  	srli	t0, a7, 0x1
800088c0: 37 53 55 55  	lui	t1, 0x55555
800088c4: 13 03 53 55  	addi	t1, t1, 0x555
800088c8: b3 f2 62 00  	and	t0, t0, t1
800088cc: b3 88 58 40  	sub	a7, a7, t0
800088d0: b7 32 33 33  	lui	t0, 0x33333
800088d4: 93 82 32 33  	addi	t0, t0, 0x333
800088d8: b3 f3 58 00  	and	t2, a7, t0
800088dc: 93 d8 28 00  	srli	a7, a7, 0x2
800088e0: b3 f8 58 00  	and	a7, a7, t0
800088e4: b3 88 13 01  	add	a7, t2, a7
800088e8: 93 d3 48 00  	srli	t2, a7, 0x4
800088ec: b3 88 78 00  	add	a7, a7, t2
800088f0: b7 13 0f 0f  	lui	t2, 0xf0f1
800088f4: 93 83 f3 f0  	addi	t2, t2, -0xf1
800088f8: b3 f8 78 00  	and	a7, a7, t2
800088fc: 37 0e 01 01  	lui	t3, 0x1010
80008900: 13 0e 1e 10  	addi	t3, t3, 0x101
80008904: b3 88 c8 03  	mul	a7, a7, t3
80008908: 93 d8 88 01  	srli	a7, a7, 0x18
8000890c: 93 88 08 02  	addi	a7, a7, 0x20
80008910: b3 f8 b8 0e  	czero.nez	a7, a7, a1
80008914: 93 de 15 00  	srli	t4, a1, 0x1
80008918: b3 ee d5 01  	or	t4, a1, t4
8000891c: 13 df 2e 00  	srli	t5, t4, 0x2
80008920: b3 ee ee 01  	or	t4, t4, t5
80008924: 13 df 4e 00  	srli	t5, t4, 0x4
80008928: b3 ee ee 01  	or	t4, t4, t5
8000892c: 13 df 8e 00  	srli	t5, t4, 0x8
80008930: b3 ee ee 01  	or	t4, t4, t5
80008934: 13 df 0e 01  	srli	t5, t4, 0x10
80008938: b3 ee ee 01  	or	t4, t4, t5
8000893c: 93 ce fe ff  	not	t4, t4
80008940: 13 df 1e 00  	srli	t5, t4, 0x1
80008944: 33 73 6f 00  	and	t1, t5, t1
80008948: 33 83 6e 40  	sub	t1, t4, t1
8000894c: b3 7e 53 00  	and	t4, t1, t0
80008950: 13 53 23 00  	srli	t1, t1, 0x2
80008954: b3 72 53 00  	and	t0, t1, t0
80008958: b3 82 5e 00  	add	t0, t4, t0
8000895c: 13 d3 42 00  	srli	t1, t0, 0x4
80008960: b3 82 62 00  	add	t0, t0, t1
80008964: b3 f2 72 00  	and	t0, t0, t2
80008968: b3 82 c2 03  	mul	t0, t0, t3
8000896c: 93 d2 82 01  	srli	t0, t0, 0x18
80008970: b3 d2 b2 0e  	czero.eqz	t0, t0, a1
80008974: b3 e2 12 01  	or	t0, t0, a7
80008978: 0b b0 07 00  	vx_join	a5
8000897c: b3 03 57 40  	sub	t2, a4, t0
80008980: 93 b8 03 04  	sltiu	a7, t2, 0x40
80008984: 8b a7 18 00  	vx_split_n	a5, a7
80008988: 63 8a 08 12  	beqz	a7, 0x80008abc <__umoddi3+0x340>
8000898c: 93 0e 00 00  	li	t4, 0x0
80008990: 13 0f 00 00  	li	t5, 0x0
80008994: 93 88 13 fc  	addi	a7, t2, -0x3f
80008998: 33 33 10 01  	snez	t1, a7
8000899c: 8b 28 13 00  	vx_split_n	a7, t1
800089a0: 63 08 03 10  	beqz	t1, 0x80008ab0 <__umoddi3+0x334>
800089a4: 13 01 01 ff  	addi	sp, sp, -0x10
800089a8: 23 26 81 00  	sw	s0, 0xc(sp)
800089ac: 13 03 00 00  	li	t1, 0x0
800089b0: 13 0e 00 00  	li	t3, 0x0
800089b4: 13 8f 13 00  	addi	t5, t2, 0x1
800089b8: b3 5e e5 01  	srl	t4, a0, t5
800089bc: 93 0f e0 01  	li	t6, 0x1e
800089c0: b3 8f 7f 40  	sub	t6, t6, t2
800089c4: 13 94 15 00  	slli	s0, a1, 0x1
800089c8: b3 1f f4 01  	sll	t6, s0, t6
800089cc: b3 ee fe 01  	or	t4, t4, t6
800089d0: 93 8f 13 fe  	addi	t6, t2, -0x1f
800089d4: 13 a4 0f 00  	slti	s0, t6, 0x0
800089d8: b3 de 8e 0e  	czero.eqz	t4, t4, s0
800089dc: b3 df f5 01  	srl	t6, a1, t6
800089e0: b3 ff 8f 0e  	czero.nez	t6, t6, s0
800089e4: b3 ee fe 01  	or	t4, t4, t6
800089e8: 33 df e5 01  	srl	t5, a1, t5
800089ec: 33 5f 8f 0e  	czero.eqz	t5, t5, s0
800089f0: 93 c3 f3 03  	xori	t2, t2, 0x3f
800089f4: 93 cf f3 ff  	not	t6, t2
800089f8: 33 58 f8 01  	srl	a6, a6, t6
800089fc: b3 95 75 00  	sll	a1, a1, t2
80008a00: b3 e5 05 01  	or	a1, a1, a6
80008a04: 13 88 03 fe  	addi	a6, t2, -0x20
80008a08: 93 2f 08 00  	slti	t6, a6, 0x0
80008a0c: b3 d5 f5 0f  	czero.eqz	a1, a1, t6
80008a10: 33 15 75 00  	sll	a0, a0, t2
80008a14: 33 78 f5 0f  	czero.nez	a6, a0, t6
80008a18: 33 e8 05 01  	or	a6, a1, a6
80008a1c: 33 55 f5 0f  	czero.eqz	a0, a0, t6
80008a20: 93 45 f7 ff  	not	a1, a4
80008a24: b3 82 55 00  	add	t0, a1, t0
80008a28: f3 25 40 cc  	csrr	a1, tmask
80008a2c: 03 24 c1 00  	lw	s0, 0xc(sp)
80008a30: 13 01 01 01  	addi	sp, sp, 0x10
80008a34: 13 97 1e 00  	slli	a4, t4, 0x1
80008a38: 93 53 f8 01  	srli	t2, a6, 0x1f
80008a3c: 33 67 77 00  	or	a4, a4, t2
80008a40: 93 d3 fe 01  	srli	t2, t4, 0x1f
80008a44: 13 1f 1f 00  	slli	t5, t5, 0x1
80008a48: b3 63 7f 00  	or	t2, t5, t2
80008a4c: 93 5e f5 01  	srli	t4, a0, 0x1f
80008a50: 13 18 18 00  	slli	a6, a6, 0x1
80008a54: 33 68 d8 01  	or	a6, a6, t4
80008a58: 13 15 15 00  	slli	a0, a0, 0x1
80008a5c: 33 65 65 00  	or	a0, a0, t1
80008a60: 33 68 c8 01  	or	a6, a6, t3
80008a64: 13 c3 f3 ff  	not	t1, t2
80008a68: 13 4e f7 ff  	not	t3, a4
80008a6c: b3 0e ce 00  	add	t4, t3, a2
80008a70: 33 be ce 01  	sltu	t3, t4, t3
80008a74: 33 03 d3 00  	add	t1, t1, a3
80008a78: 33 0e c3 01  	add	t3, t1, t3
80008a7c: 13 53 fe 01  	srli	t1, t3, 0x1f
80008a80: 13 5e fe 41  	srai	t3, t3, 0x1f
80008a84: b3 7e de 00  	and	t4, t3, a3
80008a88: 33 7e ce 00  	and	t3, t3, a2
80008a8c: 33 3f c7 01  	sltu	t5, a4, t3
80008a90: b3 83 d3 41  	sub	t2, t2, t4
80008a94: 33 8f e3 41  	sub	t5, t2, t5
80008a98: b3 0e c7 41  	sub	t4, a4, t3
80008a9c: 93 82 12 00  	addi	t0, t0, 0x1
80008aa0: 13 b7 12 00  	seqz	a4, t0
80008aa4: 8b 50 b7 00  	vx_pred_n	a4, a1
80008aa8: 13 0e 00 00  	li	t3, 0x0
80008aac: e3 04 07 f8  	beqz	a4, 0x80008a34 <__umoddi3+0x2b8>
80008ab0: 0b b0 08 00  	vx_join	a7
80008ab4: 13 85 0e 00  	mv	a0, t4
80008ab8: 93 05 0f 00  	mv	a1, t5
80008abc: 0b b0 07 00  	vx_join	a5
80008ac0: 67 80 00 00  	ret

80008ac4 <__fe_getround>:
80008ac4: 13 05 00 00  	li	a0, 0x0
80008ac8: 73 26 20 00  	frrm	a2
80008acc: 13 06 f6 ff  	addi	a2, a2, -0x1
80008ad0: 93 36 36 00  	sltiu	a3, a2, 0x3
80008ad4: 8b a5 16 00  	vx_split_n	a1, a3
80008ad8: 63 8c 06 00  	beqz	a3, 0x80008af0 <__fe_getround+0x2c>
80008adc: 13 16 26 00  	slli	a2, a2, 0x2
80008ae0: 17 15 00 00  	auipc	a0, 0x1
80008ae4: 13 05 85 d7  	addi	a0, a0, -0x288
80008ae8: 33 05 c5 00  	add	a0, a0, a2
80008aec: 03 25 05 00  	lw	a0, 0x0(a0)
80008af0: 0b b0 05 00  	vx_join	a1
80008af4: 67 80 00 00  	ret

80008af8 <__fe_raise_inexact>:
80008af8: 73 e0 10 00  	csrsi	fflags, 0x1
80008afc: 13 05 00 00  	li	a0, 0x0
80008b00: 67 80 00 00  	ret

Disassembly of section .rodata:

80008b08 <.rodata>:
80008b08: 65 72        	<unknown>
80008b0a: 72 6f        	<unknown>
80008b0c: 72 3a        	<unknown>
80008b0e: 20 67        	<unknown>
80008b10: 72 6f        	<unknown>
80008b12: 75 70        	<unknown>
80008b14: 5f 73 69 7a  	<unknown>
80008b18: 65 20        	<unknown>
80008b1a: 3e 20        	<unknown>
80008b1c: 74 68        	<unknown>
80008b1e: 72 65        	<unknown>
80008b20: 61 64        	<unknown>
80008b22: 73 5f 70 65  	csrrwi	t5, hviprio2h, 0x0
80008b26: 72 5f        	<unknown>
80008b28: 63 6f 72 65  	bltu	tp, s7, 0x80009186 <ipio2+0x436>
80008b2c: 20 28        	<unknown>
80008b2e: 25 64        	<unknown>
80008b30: 2c 25        	<unknown>
80008b32: 64 29        	<unknown>
80008b34: 0a 00        	<unknown>
80008b36: 00 00        	<unknown>
80008b38: 66 6e        	<unknown>
80008b3a: 69 2b        	<unknown>
80008b3c: 00 00        	<unknown>
80008b3e: 00 00        	<unknown>
80008b40: 66 6e        	<unknown>
80008b42: 69 00        	<unknown>
80008b44: 6e 61        	<unknown>
80008b46: 6e 00        	<unknown>
80008b48: 66 6e        	<unknown>
80008b4a: 69 2d        	<unknown>
80008b4c: 00 00        	<unknown>
80008b4e: 00 00        	<unknown>
80008b50: 50 a0        	<unknown>
80008b52: ff ff cc 9f  	<unknown>
80008b56: ff ff cc 9f  	<unknown>
80008b5a: ff ff 44 a0  	<unknown>
80008b5e: ff ff cc 9f  	<unknown>
80008b62: ff ff cc 9f  	<unknown>
80008b66: ff ff cc 9f  	<unknown>
80008b6a: ff ff cc 9f  	<unknown>
80008b6e: ff ff cc 9f  	<unknown>
80008b72: ff ff cc 9f  	<unknown>
80008b76: ff ff cc 9f  	<unknown>
80008b7a: ff ff 38 a0  	<unknown>
80008b7e: ff ff cc 9f  	<unknown>
80008b82: ff ff 2c a0  	<unknown>
80008b86: ff ff cc 9f  	<unknown>
80008b8a: ff ff cc 9f  	<unknown>
80008b8e: ff ff 20 a0  	<unknown>
80008b92: ff ff b0 a2  	<unknown>
80008b96: ff ff 24 a0  	<unknown>
80008b9a: ff ff a0 a2  	<unknown>
80008b9e: ff ff 24 a0  	<unknown>
80008ba2: ff ff 84 a2  	<unknown>
80008ba6: ff ff 24 a0  	<unknown>
80008baa: ff ff 24 a0  	<unknown>
80008bae: ff ff 24 a0  	<unknown>
80008bb2: ff ff 24 a0  	<unknown>
80008bb6: ff ff 24 a0  	<unknown>
80008bba: ff ff 24 a0  	<unknown>
80008bbe: ff ff 24 a0  	<unknown>
80008bc2: ff ff 18 a0  	<unknown>
80008bc6: ff ff 24 a0  	<unknown>
80008bca: ff ff 24 a0  	<unknown>
80008bce: ff ff 24 a0  	<unknown>
80008bd2: ff ff 24 a0  	<unknown>
80008bd6: ff ff 24 a0  	<unknown>
80008bda: ff ff 18 a0  	<unknown>
80008bde: ff ff b8 a2  	<unknown>
80008be2: ff ff ec 9e  	<unknown>
80008be6: ff ff ec 9e  	<unknown>
80008bea: ff ff ec 9e  	<unknown>
80008bee: ff ff ec 9e  	<unknown>
80008bf2: ff ff ec 9e  	<unknown>
80008bf6: ff ff ec 9e  	<unknown>
80008bfa: ff ff ec 9e  	<unknown>
80008bfe: ff ff ec 9e  	<unknown>
80008c02: ff ff ec 9e  	<unknown>
80008c06: ff ff ec 9e  	<unknown>
80008c0a: ff ff ec 9e  	<unknown>
80008c0e: ff ff ec 9e  	<unknown>
80008c12: ff ff ec 9e  	<unknown>
80008c16: ff ff ec 9e  	<unknown>
80008c1a: ff ff ec 9e  	<unknown>
80008c1e: ff ff ec 9e  	<unknown>
80008c22: ff ff ec 9e  	<unknown>
80008c26: ff ff ec 9e  	<unknown>
80008c2a: ff ff ec 9e  	<unknown>
80008c2e: ff ff ec 9e  	<unknown>
80008c32: ff ff ec 9e  	<unknown>
80008c36: ff ff ec 9e  	<unknown>
80008c3a: ff ff ec 9e  	<unknown>
80008c3e: ff ff ec 9e  	<unknown>
80008c42: ff ff ec 9e  	<unknown>
80008c46: ff ff ec 9e  	<unknown>
80008c4a: ff ff ec 9e  	<unknown>
80008c4e: ff ff ec 9e  	<unknown>
80008c52: ff ff ec 9e  	<unknown>
80008c56: ff ff ec 9e  	<unknown>
80008c5a: ff ff ec 9e  	<unknown>
80008c5e: ff ff ec a1  	<unknown>
80008c62: ff ff 7c a2  	<unknown>
80008c66: ff ff ec a1  	<unknown>
80008c6a: ff ff ec 9e  	<unknown>
80008c6e: ff ff ec 9e  	<unknown>
80008c72: ff ff ec 9e  	<unknown>
80008c76: ff ff ec 9e  	<unknown>
80008c7a: ff ff ec 9e  	<unknown>
80008c7e: ff ff ec 9e  	<unknown>
80008c82: ff ff ec 9e  	<unknown>
80008c86: ff ff ec 9e  	<unknown>
80008c8a: ff ff ec 9e  	<unknown>
80008c8e: ff ff ec 9e  	<unknown>
80008c92: ff ff ec 9e  	<unknown>
80008c96: ff ff ec 9e  	<unknown>
80008c9a: ff ff ec 9e  	<unknown>
80008c9e: ff ff ec 9e  	<unknown>
80008ca2: ff ff ec 9e  	<unknown>
80008ca6: ff ff ec 9e  	<unknown>
80008caa: ff ff 54 a4  	<unknown>
80008cae: ff ff ec 9e  	<unknown>
80008cb2: ff ff ec 9e  	<unknown>
80008cb6: ff ff ec 9e  	<unknown>
80008cba: ff ff ec 9e  	<unknown>
80008cbe: ff ff ec 9e  	<unknown>
80008cc2: ff ff ec 9e  	<unknown>
80008cc6: ff ff ec 9e  	<unknown>
80008cca: ff ff ec 9e  	<unknown>
80008cce: ff ff ec 9e  	<unknown>
80008cd2: ff ff 54 a4  	<unknown>
80008cd6: ff ff d4 a2  	<unknown>
80008cda: ff ff 54 a4  	<unknown>
80008cde: ff ff ec a1  	<unknown>
80008ce2: ff ff 7c a2  	<unknown>
80008ce6: ff ff ec a1  	<unknown>
80008cea: ff ff 00 00  	<unknown>
80008cee: 00 00        	<unknown>

80008cf0 <pow10.0>:
80008cf0: 00 00        	<unknown>
80008cf2: 00 00        	<unknown>
80008cf4: 00 00        	<unknown>
80008cf6: f0 3f        	<unknown>
80008cf8: 00 00        	<unknown>
80008cfa: 00 00        	<unknown>
80008cfc: 00 00        	<unknown>
80008cfe: 24 40        	<unknown>
80008d00: 00 00        	<unknown>
80008d02: 00 00        	<unknown>
80008d04: 00 00        	<unknown>
80008d06: 59 40        	<unknown>
80008d08: 00 00        	<unknown>
80008d0a: 00 00        	<unknown>
80008d0c: 00 40        	<unknown>
80008d0e: 8f 40 00 00  	<unknown>
80008d12: 00 00        	<unknown>
80008d14: 00 88        	<unknown>
80008d16: c3 40 00 00  	fmadd.s	ft1, ft0, ft0, ft0, rmm
80008d1a: 00 00        	<unknown>
80008d1c: 00 6a        	<unknown>
80008d1e: f8 40        	<unknown>
80008d20: 00 00        	<unknown>
80008d22: 00 00        	<unknown>
80008d24: 80 84        	<unknown>
80008d26: 2e 41        	<unknown>
80008d28: 00 00        	<unknown>
80008d2a: 00 00        	<unknown>
80008d2c: d0 12        	<unknown>
80008d2e: 63 41 00 00  	bltz	zero, 0x80008d30 <pow10.0+0x40>
80008d32: 00 00        	<unknown>
80008d34: 84 d7        	<unknown>
80008d36: 97 41 00 00  	auipc	gp, 0x4
80008d3a: 00 00        	<unknown>
80008d3c: 65 cd        	<unknown>
80008d3e: cd 41        	<unknown>

80008d40 <init_jk>:
80008d40: 03 00 00 00  	lb	zero, 0x0(zero)
80008d44: 04 00        	<unknown>
80008d46: 00 00        	<unknown>
80008d48: 04 00        	<unknown>
80008d4a: 00 00        	<unknown>
80008d4c: 06 00        	<unknown>
80008d4e: 00 00        	<unknown>

80008d50 <ipio2>:
80008d50: 83 f9 a2 00  	<unknown>
80008d54: 44 4e        	<unknown>
80008d56: 6e 00        	<unknown>
80008d58: fc 29        	<unknown>
80008d5a: 15 00        	<unknown>
80008d5c: d1 57        	<unknown>
80008d5e: 27 00 dd 34  	<unknown>
80008d62: f5 00        	<unknown>
80008d64: 62 db        	<unknown>
80008d66: c0 00        	<unknown>
80008d68: 3c 99        	<unknown>
80008d6a: 95 00        	<unknown>
80008d6c: 41 90        	<unknown>
80008d6e: 43 00 63 51  	fmadd.s	ft0, ft6, fs6, fa0, rne
80008d72: fe 00        	<unknown>
80008d74: bb de ab 00  	<unknown>
80008d78: b7 61 c5 00  	lui	gp, 0xc56
80008d7c: 3a 6e        	<unknown>
80008d7e: 24 00        	<unknown>
80008d80: d2 4d        	<unknown>
80008d82: 42 00        	<unknown>
80008d84: 49 06        	<unknown>
80008d86: e0 00        	<unknown>
80008d88: 09 ea        	<unknown>
80008d8a: 2e 00        	<unknown>
80008d8c: 1c 92        	<unknown>
80008d8e: d1 00        	<unknown>
80008d90: eb 1d fe 00  	<unknown>
80008d94: 29 b1        	<unknown>
80008d96: 1c 00        	<unknown>
80008d98: e8 3e        	<unknown>
80008d9a: a7 00 f5 35  	<unknown>
80008d9e: 82 00        	<unknown>
80008da0: 44 bb        	<unknown>
80008da2: 2e 00        	<unknown>
80008da4: 9c e9        	<unknown>
80008da6: 84 00        	<unknown>
80008da8: b4 26        	<unknown>
80008daa: 70 00        	<unknown>
80008dac: 41 7e        	<unknown>
80008dae: 5f 00 d6 91  	<unknown>
80008db2: 39 00        	<unknown>
80008db4: 53 83 39 00  	fadd.s	ft6, fs3, ft3, rne
80008db8: 9c f4        	<unknown>
80008dba: 39 00        	<unknown>
80008dbc: 8b 5f 84 00  	<unknown>
80008dc0: 28 f9        	<unknown>
80008dc2: bd 00        	<unknown>
80008dc4: f8 1f        	<unknown>
80008dc6: 3b 00 de ff  	<unknown>
80008dca: 97 00 0f 98  	auipc	ra, 0x980f0
80008dce: 05 00        	<unknown>
80008dd0: 11 2f        	<unknown>
80008dd2: ef 00 0a 5a  	jal	0x800a9372 <_end+0x9e616>
80008dd6: 8b 00 6d 1f  	<unknown>
80008dda: 6d 00        	<unknown>
80008ddc: cf 7e 36 00  	fnmadd.s	ft9, fa2, ft3, ft0
80008de0: 09 cb        	<unknown>
80008de2: 27 00 46 4f  	<unknown>
80008de6: b7 00 9e 66  	lui	ra, 0x669e0
80008dea: 3f 00 2d ea  	<unknown>
80008dee: 5f 00 ba 27  	<unknown>
80008df2: 75 00        	<unknown>
80008df4: e5 eb        	<unknown>
80008df6: c7 00 3d 7b  	<unknown>
80008dfa: f1 00        	<unknown>
80008dfc: f7 39 07 00  	<unknown>
80008e00: 92 52        	<unknown>
80008e02: 8a 00        	<unknown>
80008e04: fb 6b ea 00  	<unknown>
80008e08: 1f b1 5f 00  	<unknown>
80008e0c: 08 5d        	<unknown>
80008e0e: 8d 00        	<unknown>
80008e10: 30 03        	<unknown>
80008e12: 56 00        	<unknown>
80008e14: 7b fc 46 00  	<unknown>
80008e18: f0 ab        	<unknown>
80008e1a: 6b 00 20 bc  	<unknown>
80008e1e: cf 00 36 f4  	<unknown>
80008e22: 9a 00        	<unknown>
80008e24: e3 a9 1d 00  	<unknown>
80008e28: 5e 61        	<unknown>
80008e2a: 91 00        	<unknown>
80008e2c: 08 1b        	<unknown>
80008e2e: e6 00        	<unknown>
80008e30: 85 99        	<unknown>
80008e32: 65 00        	<unknown>
80008e34: a0 14        	<unknown>
80008e36: 5f 00 8d 40  	<unknown>
80008e3a: 68 00        	<unknown>
80008e3c: 80 d8        	<unknown>
80008e3e: ff 00 27 73  	<unknown>
80008e42: 4d 00        	<unknown>
80008e44: 06 06        	<unknown>
80008e46: 31 00        	<unknown>
80008e48: ca 56        	<unknown>
80008e4a: 15 00        	<unknown>
80008e4c: c9 a8        	<unknown>
80008e4e: 73 00 7b e2  	<unknown>
80008e52: 60 00        	<unknown>
80008e54: 6b 8c c0 00  	<unknown>
80008e58: 19 c4        	<unknown>
80008e5a: 47 00 cd 67  	<unknown>
80008e5e: c3 00 09 e8  	fmadd.s	ft1, fs2, ft0, ft9, rne
80008e62: dc 00        	<unknown>
80008e64: 59 83        	<unknown>
80008e66: 2a 00        	<unknown>
80008e68: 8b 76 c4 00  	<unknown>
80008e6c: a6 1c        	<unknown>
80008e6e: 96 00        	<unknown>
80008e70: 44 af        	<unknown>
80008e72: dd 00        	<unknown>
80008e74: 19 57        	<unknown>
80008e76: d1 00        	<unknown>
80008e78: a5 3e        	<unknown>
80008e7a: 05 00        	<unknown>
80008e7c: 05 07        	<unknown>
80008e7e: ff 00 33 7e  	<unknown>
80008e82: 3f 00 c2 32  	<unknown>
80008e86: e8 00        	<unknown>
80008e88: 98 4f        	<unknown>
80008e8a: de 00        	<unknown>
80008e8c: bb 7d 32 00  	<unknown>
80008e90: 26 3d        	<unknown>
80008e92: c3 00 1e 6b  	<unknown>
80008e96: ef 00 9f f8  	jal	0x7fff9e1e <__tbss_size+0x7fff9e02>
80008e9a: 5e 00        	<unknown>
80008e9c: 35 1f        	<unknown>
80008e9e: 3a 00        	<unknown>
80008ea0: 7f f2 ca 00  	<unknown>
80008ea4: f1 87        	<unknown>
80008ea6: 1d 00        	<unknown>
80008ea8: 7c 90        	<unknown>
80008eaa: 21 00        	<unknown>
80008eac: 6a 24        	<unknown>
80008eae: 7c 00        	<unknown>
80008eb0: d5 6e        	<unknown>
80008eb2: fa 00        	<unknown>
80008eb4: 30 2d        	<unknown>
80008eb6: 77 00 15 3b  	<unknown>
80008eba: 43 00 b5 14  	<unknown>
80008ebe: c6 00        	<unknown>
80008ec0: c3 19 9d 00  	fmadd.s	fs3, fs10, fs1, ft0, rtz
80008ec4: ad c4        	<unknown>
80008ec6: c2 00        	<unknown>
80008ec8: 2c 4d        	<unknown>
80008eca: 41 00        	<unknown>
80008ecc: 0c 00        	<unknown>
80008ece: 5d 00        	<unknown>
80008ed0: 86 7d        	<unknown>
80008ed2: 46 00        	<unknown>
80008ed4: e3 71 2d 00  	bgeu	s10, sp, 0x800096d6 <ipio2+0x986>
80008ed8: 9b c6 9a 00  	<unknown>
80008edc: 33 62 00 00  	or	tp, zero, zero
80008ee0: b4 d2        	<unknown>
80008ee2: 7c 00        	<unknown>
80008ee4: b4 a7        	<unknown>
80008ee6: 97 00 37 55  	auipc	ra, 0x55370
80008eea: d5 00        	<unknown>
80008eec: d7 3e f6 00  	<unknown>
80008ef0: a3 10 18 00  	sh	ra, 0x1(a6)
80008ef4: 4d 76        	<unknown>
80008ef6: fc 00        	<unknown>
80008ef8: 64 9d        	<unknown>
80008efa: 2a 00        	<unknown>
80008efc: 70 d7        	<unknown>
80008efe: ab 00 63 7c  	<unknown>
80008f02: f8 00        	<unknown>
80008f04: 7a b0        	<unknown>
80008f06: 57 00 17 15  	<unknown>
80008f0a: e7 00 c0 49  	jalr	0x49c(zero) <__tbss_size+0x480>
80008f0e: 56 00        	<unknown>
80008f10: 3b d6 d9 00  	<unknown>
80008f14: a7 84 38 00  	<unknown>
80008f18: 24 23        	<unknown>
80008f1a: cb 00 d6 8a  	<unknown>
80008f1e: 77 00 5a 54  	<unknown>
80008f22: 23 00 00 1f  	sb	a6, 0x1e0(zero)
80008f26: b9 00        	<unknown>
80008f28: f1 0a        	<unknown>
80008f2a: 1b 00 19 ce  	<unknown>
80008f2e: df 00 9f 31  	<unknown>
80008f32: ff 00 66 1e  	<unknown>
80008f36: 6a 00        	<unknown>
80008f38: 99 57        	<unknown>
80008f3a: 61 00        	<unknown>
80008f3c: ac fb        	<unknown>
80008f3e: 47 00 7e 7f  	<unknown>
80008f42: d8 00        	<unknown>
80008f44: 22 65        	<unknown>
80008f46: b7 00 32 e8  	lui	ra, 0xe8320
80008f4a: 89 00        	<unknown>
80008f4c: e6 bf        	<unknown>
80008f4e: 60 00        	<unknown>
80008f50: ef c4 cd 00  	jal	s1, 0x800e4f5c <_end+0xda200>
80008f54: 6c 36        	<unknown>
80008f56: 09 00        	<unknown>
80008f58: 5d 3f        	<unknown>
80008f5a: d4 00        	<unknown>
80008f5c: 16 de        	<unknown>
80008f5e: d7 00 58 3b  	<unknown>
80008f62: de 00        	<unknown>
80008f64: de 9b        	<unknown>
80008f66: 92 00        	<unknown>
80008f68: d2 22        	<unknown>
80008f6a: 28 00        	<unknown>
80008f6c: 28 86        	<unknown>
80008f6e: e8 00        	<unknown>
80008f70: e2 58        	<unknown>
80008f72: 4d 00        	<unknown>
80008f74: c6 ca        	<unknown>
80008f76: 32 00        	<unknown>
80008f78: 08 e3        	<unknown>
80008f7a: 16 00        	<unknown>
80008f7c: e0 7d        	<unknown>
80008f7e: cb 00 17 c0  	fnmsub.s	ft1, fa4, ft1, fs8, rne
80008f82: 50 00        	<unknown>
80008f84: f3 1d a7 00  	csrrw	s11, vxrm, a4
80008f88: 18 e0        	<unknown>
80008f8a: 5b 00 2e 13  	<unknown>
80008f8e: 34 00        	<unknown>
80008f90: 83 12 62 00  	lh	t0, 0x6(tp)
80008f94: 83 48 01 00  	lbu	a7, 0x0(sp)
80008f98: f5 8e        	<unknown>
80008f9a: 5b 00 ad b0  	<unknown>
80008f9e: 7f 00 1e e9  	<unknown>
80008fa2: f2 00        	<unknown>
80008fa4: 48 4a        	<unknown>
80008fa6: 43 00 10 67  	<unknown>
80008faa: d3 00 aa dd  	<unknown>
80008fae: d8 00        	<unknown>
80008fb0: ae 5f        	<unknown>
80008fb2: 42 00        	<unknown>
80008fb4: 6a 61        	<unknown>
80008fb6: ce 00        	<unknown>
80008fb8: 0a 28        	<unknown>
80008fba: a4 00        	<unknown>
80008fbc: d3 99 b4 00  	fadd.s	fs3, fs1, fa1, rtz
80008fc0: 06 a6        	<unknown>
80008fc2: f2 00        	<unknown>
80008fc4: 5c 77        	<unknown>
80008fc6: 7f 00 a3 c2  	<unknown>
80008fca: 83 00 61 3c  	lb	ra, 0x3c6(sp)
80008fce: 88 00        	<unknown>
80008fd0: 8a 73        	<unknown>
80008fd2: 78 00        	<unknown>
80008fd4: af 8c 5a 00  	<unknown>
80008fd8: 6f d7 bd 00  	jal	a4, 0x800e67e2 <_end+0xdba86>
80008fdc: 2d a6        	<unknown>
80008fde: 63 00 f4 bf  	beq	s0, t6, 0x800083be <__truncdfsf2+0x222>
80008fe2: cb 00 8d 81  	fnmsub.s	ft1, fs10, fs8, fa6, rne
80008fe6: ef 00 26 c1  	jal	0x7ff693f8 <__tbss_size+0x7ff693dc>
80008fea: 67 00 55 ca  	jr	-0x35b(a0)
80008fee: 45 00        	<unknown>
80008ff0: ca d9        	<unknown>
80008ff2: 36 00        	<unknown>
80008ff4: 28 a8        	<unknown>
80008ff6: d2 00        	<unknown>
80008ff8: c2 61        	<unknown>
80008ffa: 8d 00        	<unknown>
80008ffc: 12 c9        	<unknown>
80008ffe: 77 00 04 26  	<unknown>
80009002: 14 00        	<unknown>
80009004: 12 46        	<unknown>
80009006: 9b 00 c4 59  	<unknown>
8000900a: c4 00        	<unknown>
8000900c: c8 c5        	<unknown>
8000900e: 44 00        	<unknown>
80009010: 4d b2        	<unknown>
80009012: 91 00        	<unknown>
80009014: 00 17        	<unknown>
80009016: f3 00 d4 43  	<unknown>
8000901a: ad 00        	<unknown>
8000901c: 29 49        	<unknown>
8000901e: e5 00        	<unknown>
80009020: fd d5        	<unknown>
80009022: 10 00        	<unknown>
80009024: 00 be        	<unknown>
80009026: fc 00        	<unknown>
80009028: 1e 94        	<unknown>
8000902a: cc 00        	<unknown>
8000902c: 70 ce        	<unknown>
8000902e: ee 00        	<unknown>
80009030: 13 3e f5 00  	sltiu	t3, a0, 0xf
80009034: ec f1        	<unknown>
80009036: 80 00        	<unknown>
80009038: b3 e7 c3 00  	or	a5, t2, a2
8000903c: c7 f8 28 00  	fmsub.s	fa7, fa7, ft2, ft0
80009040: 93 05 94 00  	addi	a1, s0, 0x9
80009044: c1 71        	<unknown>
80009046: 3e 00        	<unknown>
80009048: 2e 09        	<unknown>
8000904a: b3 00 0b 45  	<unknown>
8000904e: f3 00 88 12  	<unknown>
80009052: 9c 00        	<unknown>
80009054: ab 20 7b 00  	<unknown>
80009058: 2e b5        	<unknown>
8000905a: 9f 00 47 92  	<unknown>
8000905e: c2 00        	<unknown>
80009060: 7b 32 2f 00  	<unknown>
80009064: 0c 55        	<unknown>
80009066: 6d 00        	<unknown>
80009068: 72 a7        	<unknown>
8000906a: 90 00        	<unknown>
8000906c: 6b e7 1f 00  	<unknown>
80009070: 31 cb        	<unknown>
80009072: 96 00        	<unknown>
80009074: 79 16        	<unknown>
80009076: 4a 00        	<unknown>
80009078: 41 79        	<unknown>
8000907a: e2 00        	<unknown>
8000907c: f4 df        	<unknown>
8000907e: 89 00        	<unknown>
80009080: e8 94        	<unknown>
80009082: 97 00 e2 e6  	auipc	ra, 0xe6e20
80009086: 84 00        	<unknown>
80009088: 99 31        	<unknown>
8000908a: 97 00 88 ed  	auipc	ra, 0xed880
8000908e: 6b 00 5f 5f  	<unknown>
80009092: 36 00        	<unknown>
80009094: bb fd 0e 00  	<unknown>
80009098: 48 9a        	<unknown>
8000909a: b4 00        	<unknown>
8000909c: 67 a4 6c 00  	<unknown>
800090a0: 71 72        	<unknown>
800090a2: 42 00        	<unknown>
800090a4: 8d 5d        	<unknown>
800090a6: 32 00        	<unknown>
800090a8: 9f 15 b8 00  	<unknown>
800090ac: bc e5        	<unknown>
800090ae: 09 00        	<unknown>
800090b0: 8d 31        	<unknown>
800090b2: 25 00        	<unknown>
800090b4: f7 74 39 00  	<unknown>
800090b8: 30 05        	<unknown>
800090ba: 1c 00        	<unknown>
800090bc: 0d 0c        	<unknown>
800090be: 01 00        	<unknown>
800090c0: 4b 08 68 00  	fnmsub.s	fa6, fa6, ft6, ft0, rne
800090c4: 2c ee        	<unknown>
800090c6: 58 00        	<unknown>
800090c8: 47 aa 90 00  	fmsub.s	fs4, ft1, fs1, ft0, rdn
800090cc: 74 e7        	<unknown>
800090ce: 02 00        	<unknown>
800090d0: bd d6        	<unknown>
800090d2: 24 00        	<unknown>
800090d4: f7 7d a6 00  	<unknown>
800090d8: 6e 48        	<unknown>
800090da: 72 00        	<unknown>
800090dc: 9f 16 ef 00  	<unknown>
800090e0: 8e 94        	<unknown>
800090e2: a6 00        	<unknown>
800090e4: b4 91        	<unknown>
800090e6: f6 00        	<unknown>
800090e8: d1 53        	<unknown>
800090ea: 51 00        	<unknown>
800090ec: cf 0a f2 00  	fnmadd.s	fs5, ft4, fa5, ft0, rne
800090f0: 20 98        	<unknown>
800090f2: 33 00 f5 4b  	<unknown>
800090f6: 7e 00        	<unknown>
800090f8: b2 63        	<unknown>
800090fa: 68 00        	<unknown>
800090fc: dd 3e        	<unknown>
800090fe: 5f 00 40 5d  	<unknown>
80009102: 03 00 85 89  	lb	zero, -0x768(a0)
80009106: 7f 00 55 52  	<unknown>
8000910a: 29 00        	<unknown>
8000910c: 37 64 c0 00  	lui	s0, 0xc06
80009110: 6d d8        	<unknown>
80009112: 10 00        	<unknown>
80009114: 32 48        	<unknown>
80009116: 32 00        	<unknown>
80009118: 5b 4c 75 00  	<unknown>
8000911c: 4e 71        	<unknown>
8000911e: d4 00        	<unknown>
80009120: 45 54        	<unknown>
80009122: 6e 00        	<unknown>
80009124: 0b 09 c1 00  	<unknown>
80009128: 2a f5        	<unknown>
8000912a: 69 00        	<unknown>
8000912c: 14 66        	<unknown>
8000912e: d5 00        	<unknown>
80009130: 27 07 9d 00  	<unknown>
80009134: 5d 04        	<unknown>
80009136: 50 00        	<unknown>
80009138: b4 3b        	<unknown>
8000913a: db 00 ea 76  	<unknown>
8000913e: c5 00        	<unknown>
80009140: 87 f9 17 00  	<unknown>
80009144: 49 6b        	<unknown>
80009146: 7d 00        	<unknown>
80009148: 1d 27        	<unknown>
8000914a: ba 00        	<unknown>
8000914c: 96 69        	<unknown>
8000914e: 29 00        	<unknown>
80009150: c6 cc        	<unknown>
80009152: ac 00        	<unknown>
80009154: ad 14        	<unknown>
80009156: 54 00        	<unknown>
80009158: 90 e2        	<unknown>
8000915a: 6a 00        	<unknown>
8000915c: 88 d9        	<unknown>
8000915e: 89 00        	<unknown>
80009160: 2c 72        	<unknown>
80009162: 50 00        	<unknown>
80009164: 04 a4        	<unknown>
80009166: be 00        	<unknown>
80009168: 77 07 94 00  	<unknown>
8000916c: f3 30 70 00  	csrrc	ra, 0x7, zero
80009170: 00 fc        	<unknown>
80009172: 27 00 ea 71  	<unknown>
80009176: a8 00        	<unknown>
80009178: 66 c2        	<unknown>
8000917a: 49 00        	<unknown>
8000917c: 64 e0        	<unknown>
8000917e: 3d 00        	<unknown>
80009180: 97 dd 83 00  	auipc	s11, 0x83d
80009184: a3 3f 97 00  	<unknown>
80009188: 43 94 fd 00  	fmadd.s	fs0, fs11, fa5, ft0, rtz
8000918c: 0d 86        	<unknown>
8000918e: 8c 00        	<unknown>
80009190: 31 41        	<unknown>
80009192: de 00        	<unknown>
80009194: 92 39        	<unknown>
80009196: 9d 00        	<unknown>
80009198: dd 70        	<unknown>
8000919a: 8c 00        	<unknown>
8000919c: 17 b7 e7 00  	auipc	a4, 0xe7b
800091a0: 08 df        	<unknown>
800091a2: 3b 00 15 37  	<unknown>
800091a6: 2b 00 5c 80  	vx_tex	zero, s8, t0, a6
800091aa: a0 00        	<unknown>
800091ac: 5a 80        	<unknown>
800091ae: 93 00 10 11  	li	ra, 0x111
800091b2: 92 00        	<unknown>
800091b4: 0f e8 d8 00  	<unknown>
800091b8: 6c 80        	<unknown>
800091ba: af 00 db ff  	<unknown>
800091be: 4b 00 38 90  	fnmsub.s	ft0, fa6, ft3, fs2, rne
800091c2: 0f 00 59 18  	<unknown>
800091c6: 76 00        	<unknown>
800091c8: 62 a5        	<unknown>
800091ca: 15 00        	<unknown>
800091cc: 61 cb        	<unknown>
800091ce: bb 00 c7 89  	<unknown>
800091d2: b9 00        	<unknown>
800091d4: 10 40        	<unknown>
800091d6: bd 00        	<unknown>
800091d8: d2 f2        	<unknown>
800091da: 04 00        	<unknown>
800091dc: 49 75        	<unknown>
800091de: 27 00 eb b6  	<unknown>
800091e2: f6 00        	<unknown>
800091e4: db 22 bb 00  	<unknown>
800091e8: 0a 14        	<unknown>
800091ea: aa 00        	<unknown>
800091ec: 89 26        	<unknown>
800091ee: 2f 00 64 83  	<unknown>
800091f2: 76 00        	<unknown>
800091f4: 09 3b        	<unknown>
800091f6: 33 00 0e 94  	<unknown>
800091fa: 1a 00        	<unknown>
800091fc: 51 3a        	<unknown>
800091fe: aa 00        	<unknown>
80009200: 1d a3        	<unknown>
80009202: c2 00        	<unknown>
80009204: af ed ae 00  	<unknown>
80009208: 5c 26        	<unknown>
8000920a: 12 00        	<unknown>
8000920c: 6d c2        	<unknown>
8000920e: 4d 00        	<unknown>
80009210: 2d 7a        	<unknown>
80009212: 9c 00        	<unknown>
80009214: c0 56        	<unknown>
80009216: 97 00 03 3f  	auipc	ra, 0x3f030
8000921a: 83 00 09 f0  	lb	ra, -0x100(s2)
8000921e: f6 00        	<unknown>
80009220: 2b 40 8c 00  	<unknown>
80009224: 6d 31        	<unknown>
80009226: 99 00        	<unknown>
80009228: 39 b4        	<unknown>
8000922a: 07 00 0c 20  	<unknown>
8000922e: 15 00        	<unknown>
80009230: d8 c3        	<unknown>
80009232: 5b 00 f5 92  	<unknown>
80009236: c4 00        	<unknown>
80009238: c6 ad        	<unknown>
8000923a: 4b 00 4e ca  	<unknown>
8000923e: a5 00        	<unknown>
80009240: a7 37 cd 00  	<unknown>
80009244: e6 a9        	<unknown>
80009246: 36 00        	<unknown>
80009248: ab 92 94 00  	<unknown>
8000924c: dd 42        	<unknown>
8000924e: 68 00        	<unknown>
80009250: 19 63        	<unknown>
80009252: de 00        	<unknown>
80009254: 76 8c        	<unknown>
80009256: ef 00 68 8b  	jal	0x7ff8930c <__tbss_size+0x7ff892f0>
8000925a: 52 00        	<unknown>
8000925c: fc db        	<unknown>
8000925e: 37 00 ae a1  	lui	zero, 0xa1ae0
80009262: ab 00 df 15  	<unknown>
80009266: 31 00        	<unknown>
80009268: 00 ae        	<unknown>
8000926a: a1 00        	<unknown>
8000926c: 0c fb        	<unknown>
8000926e: da 00        	<unknown>
80009270: 64 4d        	<unknown>
80009272: 66 00        	<unknown>
80009274: ed 05        	<unknown>
80009276: b7 00 29 65  	lui	ra, 0x65290
8000927a: 30 00        	<unknown>
8000927c: 57 56 bf 00  	<unknown>
80009280: 47 ff 3a 00  	fmsub.s	ft10, fs5, ft3, ft0
80009284: 6a f9        	<unknown>
80009286: b9 00        	<unknown>
80009288: 75 be        	<unknown>
8000928a: f3 00 28 93  	<unknown>
8000928e: df 00 ab 80  	<unknown>
80009292: 30 00        	<unknown>
80009294: 66 8c        	<unknown>
80009296: f6 00        	<unknown>
80009298: 04 cb        	<unknown>
8000929a: 15 00        	<unknown>
8000929c: fa 22        	<unknown>
8000929e: 06 00        	<unknown>
800092a0: d9 e4        	<unknown>
800092a2: 1d 00        	<unknown>
800092a4: 3d b3        	<unknown>
800092a6: a4 00        	<unknown>
800092a8: 57 1b 8f 00  	<unknown>
800092ac: 36 cd        	<unknown>
800092ae: 09 00        	<unknown>
800092b0: 4e 42        	<unknown>
800092b2: e9 00        	<unknown>
800092b4: 13 be a4 00  	sltiu	t3, s1, 0xa
800092b8: 33 23 b5 00  	slt	t1, a0, a1
800092bc: f0 aa        	<unknown>
800092be: 1a 00        	<unknown>
800092c0: 4f 65 a8 00  	<unknown>
800092c4: d2 c1        	<unknown>
800092c6: a5 00        	<unknown>
800092c8: 0b 3f 0f 00  	<unknown>
800092cc: 5b 78 cd 00  	<unknown>
800092d0: 23 f9 76 00  	<unknown>
800092d4: 7b 8b 04 00  	<unknown>
800092d8: 89 17        	<unknown>
800092da: 72 00        	<unknown>
800092dc: c6 a6        	<unknown>
800092de: 53 00 6f 6e  	<unknown>
800092e2: e2 00        	<unknown>
800092e4: ef eb 00 00  	jal	s7, 0x800172e4 <_end+0xc588>
800092e8: 9b 4a 58 00  	<unknown>
800092ec: c4 da        	<unknown>
800092ee: b7 00 aa 66  	lui	ra, 0x66aa0
800092f2: ba 00        	<unknown>
800092f4: 76 cf        	<unknown>
800092f6: cf 00 d1 02  	<unknown>
800092fa: 1d 00        	<unknown>
800092fc: b1 f1        	<unknown>
800092fe: 2d 00        	<unknown>
80009300: 8c 99        	<unknown>
80009302: c1 00        	<unknown>
80009304: c3 ad 77 00  	fmadd.s	fs11, fa5, ft7, ft0, rdn
80009308: 86 48        	<unknown>
8000930a: da 00        	<unknown>
8000930c: f7 5d a0 00  	<unknown>
80009310: c6 80        	<unknown>
80009312: f4 00        	<unknown>
80009314: ac f0        	<unknown>
80009316: 2f 00 dd ec  	<unknown>
8000931a: 9a 00        	<unknown>
8000931c: 3f 5c bc 00  	<unknown>
80009320: d0 de        	<unknown>
80009322: 6d 00        	<unknown>
80009324: 90 c7        	<unknown>
80009326: 1f 00 2a db  	<unknown>
8000932a: b6 00        	<unknown>
8000932c: a3 25 3a 00  	sw	gp, 0xb(s4)
80009330: 00 af        	<unknown>
80009332: 9a 00        	<unknown>
80009334: ad 53        	<unknown>
80009336: 93 00 b6 57  	addi	ra, a2, 0x57b
8000933a: 04 00        	<unknown>
8000933c: 29 2d        	<unknown>
8000933e: b4 00        	<unknown>
80009340: 4b 80 7e 00  	fnmsub.s	ft0, ft9, ft7, ft0, rne
80009344: da 07        	<unknown>
80009346: a7 00 76 aa  	<unknown>
8000934a: 0e 00        	<unknown>
8000934c: 7b 59 a1 00  	<unknown>
80009350: 16 12        	<unknown>
80009352: 2a 00        	<unknown>
80009354: dc b7        	<unknown>
80009356: 2d 00        	<unknown>
80009358: fa e5        	<unknown>
8000935a: fd 00        	<unknown>
8000935c: 89 db        	<unknown>
8000935e: fe 00        	<unknown>
80009360: 89 be        	<unknown>
80009362: fd 00        	<unknown>
80009364: e4 76        	<unknown>
80009366: 6c 00        	<unknown>
80009368: 06 a9        	<unknown>
8000936a: fc 00        	<unknown>
8000936c: 3e 80        	<unknown>
8000936e: 70 00        	<unknown>
80009370: 85 6e        	<unknown>
80009372: 15 00        	<unknown>
80009374: fd 87        	<unknown>
80009376: ff 00 28 3e  	<unknown>
8000937a: 07 00 61 67  	<unknown>
8000937e: 33 00 2a 18  	<unknown>
80009382: 86 00        	<unknown>
80009384: 4d bd        	<unknown>
80009386: ea 00        	<unknown>
80009388: b3 e7 af 00  	or	a5, t6, a0
8000938c: 8f 6d 6e 00  	<unknown>
80009390: 95 67        	<unknown>
80009392: 39 00        	<unknown>
80009394: 31 bf        	<unknown>
80009396: 5b 00 84 d7  	<unknown>
8000939a: 48 00        	<unknown>
8000939c: 30 df        	<unknown>
8000939e: 16 00        	<unknown>
800093a0: c7 2d 43 00  	fmsub.s	fs11, ft6, ft4, ft0, rdn
800093a4: 25 61        	<unknown>
800093a6: 35 00        	<unknown>
800093a8: c9 70        	<unknown>
800093aa: ce 00        	<unknown>
800093ac: 30 cb        	<unknown>
800093ae: b8 00        	<unknown>
800093b0: bf 6c fd 00  	<unknown>
800093b4: a4 00        	<unknown>
800093b6: a2 00        	<unknown>
800093b8: 05 6c        	<unknown>
800093ba: e4 00        	<unknown>
800093bc: 5a dd        	<unknown>
800093be: a0 00        	<unknown>
800093c0: 21 6f        	<unknown>
800093c2: 47 00 62 12  	<unknown>
800093c6: d2 00        	<unknown>
800093c8: b9 5c        	<unknown>
800093ca: 84 00        	<unknown>
800093cc: 70 61        	<unknown>
800093ce: 49 00        	<unknown>
800093d0: 6b 56 e0 00  	<unknown>
800093d4: 99 52        	<unknown>
800093d6: 01 00        	<unknown>
800093d8: 50 55        	<unknown>
800093da: 37 00 1e d5  	lui	zero, 0xd51e0
800093de: b7 00 33 f1  	lui	ra, 0xf1330
800093e2: c4 00        	<unknown>
800093e4: 13 6e 5f 00  	ori	t3, t5, 0x5
800093e8: 5d 30        	<unknown>
800093ea: e4 00        	<unknown>
800093ec: 85 2e        	<unknown>
800093ee: a9 00        	<unknown>
800093f0: 1d b2        	<unknown>
800093f2: c3 00 a1 32  	<unknown>
800093f6: 36 00        	<unknown>
800093f8: 08 b7        	<unknown>
800093fa: a4 00        	<unknown>
800093fc: ea b1        	<unknown>
800093fe: d4 00        	<unknown>
80009400: 16 f7        	<unknown>
80009402: 21 00        	<unknown>
80009404: 8f 69 e4 00  	<unknown>
80009408: 27 ff 77 00  	<unknown>
8000940c: 0c 03        	<unknown>
8000940e: 80 00        	<unknown>
80009410: 8d 40        	<unknown>
80009412: 2d 00        	<unknown>
80009414: 4f cd a0 00  	fnmadd.s	fs10, ft1, fa0, ft0, rmm
80009418: 20 a5        	<unknown>
8000941a: 99 00        	<unknown>
8000941c: b3 a2 d3 00  	slt	t0, t2, a3
80009420: 2f 5d 0a 00  	<unknown>
80009424: b4 f9        	<unknown>
80009426: 42 00        	<unknown>
80009428: 11 da        	<unknown>
8000942a: cb 00 7d be  	<unknown>
8000942e: d0 00        	<unknown>
80009430: 9b db c1 00  	<unknown>
80009434: ab 17 bd 00  	<unknown>
80009438: ca a2        	<unknown>
8000943a: 81 00        	<unknown>
8000943c: 08 6a        	<unknown>
8000943e: 5c 00        	<unknown>
80009440: 2e 55        	<unknown>
80009442: 17 00 27 00  	auipc	zero, 0x270
80009446: 55 00        	<unknown>
80009448: 7f 14 f0 00  	<unknown>
8000944c: e1 07        	<unknown>
8000944e: 86 00        	<unknown>
80009450: 14 0b        	<unknown>
80009452: 64 00        	<unknown>
80009454: 96 41        	<unknown>
80009456: 8d 00        	<unknown>
80009458: 87 be de 00  	<unknown>
8000945c: da fd        	<unknown>
8000945e: 2a 00        	<unknown>
80009460: 6b 25 b6 00  	<unknown>
80009464: 7b 89 34 00  	<unknown>
80009468: 05 f3        	<unknown>
8000946a: fe 00        	<unknown>
8000946c: b9 bf        	<unknown>
8000946e: 9e 00        	<unknown>
80009470: 68 6a        	<unknown>
80009472: 4f 00 4a 2a  	<unknown>
80009476: a8 00        	<unknown>
80009478: 4f c4 5a 00  	fnmadd.s	fs0, fs5, ft5, ft0, rmm
8000947c: 2d f8        	<unknown>
8000947e: bc 00        	<unknown>
80009480: d7 5a 98 00  	<unknown>
80009484: f4 c7        	<unknown>
80009486: 95 00        	<unknown>
80009488: 0d 4d        	<unknown>
8000948a: 8d 00        	<unknown>
8000948c: 20 3a        	<unknown>
8000948e: a6 00        	<unknown>
80009490: a4 57        	<unknown>
80009492: 5f 00 14 3f  	<unknown>
80009496: b1 00        	<unknown>
80009498: 80 38        	<unknown>
8000949a: 95 00        	<unknown>
8000949c: cc 20        	<unknown>
8000949e: 01 00        	<unknown>
800094a0: 71 dd        	<unknown>
800094a2: 86 00        	<unknown>
800094a4: c9 de        	<unknown>
800094a6: b6 00        	<unknown>
800094a8: bf 60 f5 00  	<unknown>
800094ac: 4d 65        	<unknown>
800094ae: 11 00        	<unknown>
800094b0: 01 07        	<unknown>
800094b2: 6b 00 8c b0  	<unknown>
800094b6: ac 00        	<unknown>
800094b8: b2 c0        	<unknown>
800094ba: d0 00        	<unknown>
800094bc: 51 55        	<unknown>
800094be: 48 00        	<unknown>
800094c0: 1e fb        	<unknown>
800094c2: 0e 00        	<unknown>
800094c4: 95 72        	<unknown>
800094c6: c3 00 a3 06  	<unknown>
800094ca: 3b 00 c0 40  	<unknown>
800094ce: 35 00        	<unknown>
800094d0: 06 dc        	<unknown>
800094d2: 7b 00 e0 45  	<unknown>
800094d6: cc 00        	<unknown>
800094d8: 4e 29        	<unknown>
800094da: fa 00        	<unknown>
800094dc: d6 ca        	<unknown>
800094de: c8 00        	<unknown>
800094e0: e8 f3        	<unknown>
800094e2: 41 00        	<unknown>
800094e4: 7c 64        	<unknown>
800094e6: de 00        	<unknown>
800094e8: 9b 64 d8 00  	<unknown>
800094ec: d9 be        	<unknown>
800094ee: 31 00        	<unknown>
800094f0: a4 97        	<unknown>
800094f2: c3 00 77 58  	fmadd.s	ft1, fa4, ft7, fa1, rne
800094f6: d4 00        	<unknown>
800094f8: 69 e3        	<unknown>
800094fa: c5 00        	<unknown>
800094fc: f0 da        	<unknown>
800094fe: 13 00 ba 3a  	addi	zero, s4, 0x3ab
80009502: 3c 00        	<unknown>
80009504: 46 18        	<unknown>
80009506: 46 00        	<unknown>
80009508: 55 75        	<unknown>
8000950a: 5f 00 d2 bd  	<unknown>
8000950e: f5 00        	<unknown>
80009510: 6e 92        	<unknown>
80009512: c6 00        	<unknown>
80009514: ac 2e        	<unknown>
80009516: 5d 00        	<unknown>
80009518: 0e 44        	<unknown>
8000951a: ed 00        	<unknown>
8000951c: 1c 3e        	<unknown>
8000951e: 42 00        	<unknown>
80009520: 61 c4        	<unknown>
80009522: 87 00 29 fd  	<unknown>
80009526: e9 00        	<unknown>
80009528: e7 d6 f3 00  	<unknown>
8000952c: 22 7c        	<unknown>
8000952e: ca 00        	<unknown>
80009530: 6f 91 35 00  	jal	sp, 0x80062d32 <_end+0x57fd6>
80009534: 08 e0        	<unknown>
80009536: c5 00        	<unknown>
80009538: ff d7 8d 00  	<unknown>
8000953c: 6e 6a        	<unknown>
8000953e: e2 00        	<unknown>
80009540: b0 fd        	<unknown>
80009542: c6 00        	<unknown>
80009544: 93 08 c1 00  	addi	a7, sp, 0xc
80009548: 7c 5d        	<unknown>
8000954a: 74 00        	<unknown>
8000954c: 6b ad b2 00  	<unknown>
80009550: cd 6e        	<unknown>
80009552: 9d 00        	<unknown>
80009554: 3e 72        	<unknown>
80009556: 7b 00 c6 11  	<unknown>
8000955a: 6a 00        	<unknown>
8000955c: f7 cf a9 00  	<unknown>
80009560: 29 73        	<unknown>
80009562: df 00 b5 c9  	<unknown>
80009566: ba 00        	<unknown>
80009568: b7 00 51 00  	lui	ra, 0x510
8000956c: e2 b2        	<unknown>
8000956e: 0d 00        	<unknown>
80009570: 74 ba        	<unknown>
80009572: 24 00        	<unknown>
80009574: e5 7d        	<unknown>
80009576: 60 00        	<unknown>
80009578: 74 d8        	<unknown>
8000957a: 8a 00        	<unknown>
8000957c: 0d 15        	<unknown>
8000957e: 2c 00        	<unknown>
80009580: 81 18        	<unknown>
80009582: 0c 00        	<unknown>
80009584: 7e 66        	<unknown>
80009586: 94 00        	<unknown>
80009588: 01 29        	<unknown>
8000958a: 16 00        	<unknown>
8000958c: 9f 7a 76 00  	<unknown>
80009590: fd fd        	<unknown>
80009592: be 00        	<unknown>
80009594: 56 45        	<unknown>
80009596: ef 00 d9 7e  	jal	0x8009a582 <_end+0x8f826>
8000959a: 36 00        	<unknown>
8000959c: ec d9        	<unknown>
8000959e: 13 00 8b ba  	addi	zero, s6, -0x458
800095a2: b9 00        	<unknown>
800095a4: c4 97        	<unknown>
800095a6: fc 00        	<unknown>
800095a8: 31 a8        	<unknown>
800095aa: 27 00 f1 6e  	<unknown>
800095ae: c3 00 94 c5  	<unknown>
800095b2: 36 00        	<unknown>
800095b4: d8 a8        	<unknown>
800095b6: 56 00        	<unknown>
800095b8: b4 a8        	<unknown>
800095ba: b5 00        	<unknown>
800095bc: cf cc 0e 00  	fnmadd.s	fs9, ft9, ft0, ft0, rmm
800095c0: 12 89        	<unknown>
800095c2: 2d 00        	<unknown>
800095c4: 6f 57 34 00  	jal	a4, 0x8004edc6 <_end+0x4406a>
800095c8: 2c 56        	<unknown>
800095ca: 89 00        	<unknown>
800095cc: 99 ce        	<unknown>
800095ce: e3 00 d6 20  	beq	a2, a3, 0x80009fce <STARTUP_ADDR+0x9fce>
800095d2: b9 00        	<unknown>
800095d4: 6b 5e aa 00  	<unknown>
800095d8: 3e 2a        	<unknown>
800095da: 9c 00        	<unknown>
800095dc: 11 5f        	<unknown>
800095de: cc 00        	<unknown>
800095e0: fd 0b        	<unknown>
800095e2: 4a 00        	<unknown>
800095e4: e1 f4        	<unknown>
800095e6: fb 00 8e 3b  	<unknown>
800095ea: 6d 00        	<unknown>
800095ec: e2 86        	<unknown>
800095ee: 2c 00        	<unknown>
800095f0: e9 d4        	<unknown>
800095f2: 84 00        	<unknown>
800095f4: fc b4        	<unknown>
800095f6: a9 00        	<unknown>
800095f8: ef ee d1 00  	jal	t4, 0x80027e04 <_end+0x1d0a8>
800095fc: 2e 35        	<unknown>
800095fe: c9 00        	<unknown>
80009600: 2f 39 61 00  	<unknown>
80009604: 38 21        	<unknown>
80009606: 44 00        	<unknown>
80009608: 1b d9 c8 00  	<unknown>
8000960c: 81 fc        	<unknown>
8000960e: 0a 00        	<unknown>
80009610: fb 4a 6a 00  	<unknown>
80009614: 2f 1c d8 00  	<unknown>
80009618: 53 b4 84 00  	fadd.s	fs0, fs1, fs0, rup
8000961c: 4e 99        	<unknown>
8000961e: 8c 00        	<unknown>
80009620: 54 22        	<unknown>
80009622: cc 00        	<unknown>
80009624: 2a 55        	<unknown>
80009626: dc 00        	<unknown>
80009628: c0 c6        	<unknown>
8000962a: d6 00        	<unknown>
8000962c: 0b 19 96 00  	<unknown>
80009630: 1a 70        	<unknown>
80009632: b8 00        	<unknown>
80009634: 69 95        	<unknown>
80009636: 64 00        	<unknown>
80009638: 26 5a        	<unknown>
8000963a: 60 00        	<unknown>
8000963c: 3f 52 ee 00  	<unknown>
80009640: 7f 11 0f 00  	<unknown>
80009644: f4 b5        	<unknown>
80009646: 11 00        	<unknown>
80009648: fc cb        	<unknown>
8000964a: f5 00        	<unknown>
8000964c: 34 bc        	<unknown>
8000964e: 2d 00        	<unknown>
80009650: 34 bc        	<unknown>
80009652: ee 00        	<unknown>
80009654: e8 5d        	<unknown>
80009656: cc 00        	<unknown>
80009658: dd 5e        	<unknown>
8000965a: 60 00        	<unknown>
8000965c: 67 8e 9b 00  	jalr	t3, 0x9(s7)
80009660: 92 33        	<unknown>
80009662: ef 00 c9 17  	jal	0x800997de <_end+0x8ea82>
80009666: b8 00        	<unknown>
80009668: 61 58        	<unknown>
8000966a: 9b 00 e1 57  	<unknown>
8000966e: bc 00        	<unknown>
80009670: 51 83        	<unknown>
80009672: c6 00        	<unknown>
80009674: d8 3e        	<unknown>
80009676: 10 00        	<unknown>
80009678: dd 71        	<unknown>
8000967a: 48 00        	<unknown>
8000967c: 2d 1c        	<unknown>
8000967e: dd 00        	<unknown>
80009680: af 18 a1 00  	<unknown>
80009684: 21 2c        	<unknown>
80009686: 46 00        	<unknown>
80009688: 59 f3        	<unknown>
8000968a: d7 00 d9 7a  	<unknown>
8000968e: 98 00        	<unknown>
80009690: 9e 54        	<unknown>
80009692: c0 00        	<unknown>
80009694: 4f 86 fa 00  	fnmadd.s	fa2, fs5, fa5, ft0, rne
80009698: 56 06        	<unknown>
8000969a: fc 00        	<unknown>
8000969c: e5 79        	<unknown>
8000969e: ae 00        	<unknown>
800096a0: 89 22        	<unknown>
800096a2: 36 00        	<unknown>
800096a4: 38 ad        	<unknown>
800096a6: 22 00        	<unknown>
800096a8: 67 93 dc 00  	<unknown>
800096ac: 55 e8        	<unknown>
800096ae: aa 00        	<unknown>
800096b0: 82 26        	<unknown>
800096b2: 38 00        	<unknown>
800096b4: ca e7        	<unknown>
800096b6: 9b 00 51 0d  	<unknown>
800096ba: a4 00        	<unknown>
800096bc: 99 33        	<unknown>
800096be: b1 00        	<unknown>
800096c0: a9 d7        	<unknown>
800096c2: 0e 00        	<unknown>
800096c4: 69 05        	<unknown>
800096c6: 48 00        	<unknown>
800096c8: 65 b2        	<unknown>
800096ca: f0 00        	<unknown>
800096cc: 7f 88 a7 00  	<unknown>
800096d0: 88 4c        	<unknown>
800096d2: 97 00 f9 d1  	auipc	ra, 0xd1f90
800096d6: 36 00        	<unknown>
800096d8: 21 92        	<unknown>
800096da: b3 00 7b 82  	<unknown>
800096de: 4a 00        	<unknown>
800096e0: 98 cf        	<unknown>
800096e2: 21 00        	<unknown>
800096e4: 40 9f        	<unknown>
800096e6: dc 00        	<unknown>
800096e8: dc 47        	<unknown>
800096ea: 55 00        	<unknown>
800096ec: e1 74        	<unknown>
800096ee: 3a 00        	<unknown>
800096f0: 67 eb 42 00  	<unknown>
800096f4: fe 9d        	<unknown>
800096f6: df 00 5e d4  	<unknown>
800096fa: 5f 00 7b 67  	<unknown>
800096fe: a4 00        	<unknown>
80009700: ba ac        	<unknown>
80009702: 7a 00        	<unknown>
80009704: 55 f6        	<unknown>
80009706: a2 00        	<unknown>
80009708: 2b 88 23 00  	vx_tex	a6, t2, sp, zero
8000970c: 41 ba        	<unknown>
8000970e: 55 00        	<unknown>
80009710: 59 6e        	<unknown>
80009712: 08 00        	<unknown>
80009714: 21 2a        	<unknown>
80009716: 86 00        	<unknown>
80009718: 39 47        	<unknown>
8000971a: 83 00 89 e3  	lb	ra, -0x1c8(s2)
8000971e: e6 00        	<unknown>
80009720: e5 9e        	<unknown>
80009722: d4 00        	<unknown>
80009724: 49 fb        	<unknown>
80009726: 40 00        	<unknown>
80009728: ff 56 e9 00  	<unknown>
8000972c: 1c 0f        	<unknown>
8000972e: ca 00        	<unknown>
80009730: c5 59        	<unknown>
80009732: 8a 00        	<unknown>
80009734: 94 fa        	<unknown>
80009736: 2b 00 d3 c1  	vx_tex	zero, t1, t4, s8
8000973a: c5 00        	<unknown>
8000973c: 0f c5 cf 00  	<unknown>
80009740: db 5a ae 00  	<unknown>
80009744: 47 c5 86 00  	fmsub.s	fa0, fa3, fs0, ft0, rmm
80009748: 85 43        	<unknown>
8000974a: 62 00        	<unknown>
8000974c: 21 86        	<unknown>
8000974e: 3b 00 2c 79  	<unknown>
80009752: 94 00        	<unknown>
80009754: 10 61        	<unknown>
80009756: 87 00 2a 4c  	<unknown>
8000975a: 7b 00 80 2c  	<unknown>
8000975e: 1a 00        	<unknown>
80009760: 43 bf 12 00  	fmadd.s	ft10, ft5, ft1, ft0, rup
80009764: 88 26        	<unknown>
80009766: 90 00        	<unknown>
80009768: 78 3c        	<unknown>
8000976a: 89 00        	<unknown>
8000976c: a8 c4        	<unknown>
8000976e: e4 00        	<unknown>
80009770: e5 db        	<unknown>
80009772: 7b 00 c4 3a  	<unknown>
80009776: c2 00        	<unknown>
80009778: 26 f4        	<unknown>
8000977a: ea 00        	<unknown>
8000977c: f7 67 8a 00  	<unknown>
80009780: 0d 92        	<unknown>
80009782: bf 00 65 a3  	<unknown>
80009786: 2b 00 3d 93  	<unknown>
8000978a: b1 00        	<unknown>
8000978c: bd 7c        	<unknown>
8000978e: 0b 00 a4 51  	<unknown>
80009792: dc 00        	<unknown>
80009794: 27 dd 63 00  	<unknown>
80009798: 69 e1        	<unknown>
8000979a: dd 00        	<unknown>
8000979c: 9a 94        	<unknown>
8000979e: 19 00        	<unknown>
800097a0: a8 29        	<unknown>
800097a2: 95 00        	<unknown>
800097a4: 68 ce        	<unknown>
800097a6: 28 00        	<unknown>
800097a8: 09 ed        	<unknown>
800097aa: b4 00        	<unknown>
800097ac: 44 9f        	<unknown>
800097ae: 20 00        	<unknown>
800097b0: 4e 98        	<unknown>
800097b2: ca 00        	<unknown>
800097b4: 70 82        	<unknown>
800097b6: 63 00 7e 7c  	beq	t3, t2, 0x80009f76 <STARTUP_ADDR+0x9f76>
800097ba: 23 00 0f b9  	sb	a6, -0x480(t5)
800097be: 32 00        	<unknown>
800097c0: a7 f5 8e 00  	<unknown>
800097c4: 14 56        	<unknown>
800097c6: e7 00 21 f1  	jalr	-0xee(sp)
800097ca: 08 00        	<unknown>
800097cc: b5 9d        	<unknown>
800097ce: 2a 00        	<unknown>
800097d0: 6f 7e 4d 00  	jal	t3, 0x800e07d4 <_end+0xd5a78>
800097d4: a5 19        	<unknown>
800097d6: 51 00        	<unknown>
800097d8: b5 f9        	<unknown>
800097da: ab 00 82 df  	<unknown>
800097de: d6 00        	<unknown>
800097e0: 96 dd        	<unknown>
800097e2: 61 00        	<unknown>
800097e4: 16 36        	<unknown>
800097e6: 02 00        	<unknown>
800097e8: c4 3a        	<unknown>
800097ea: 9f 00 83 a2  	<unknown>
800097ee: a1 00        	<unknown>
800097f0: 72 ed        	<unknown>
800097f2: 6d 00        	<unknown>
800097f4: 39 8d        	<unknown>
800097f6: 7a 00        	<unknown>
800097f8: 82 b8        	<unknown>
800097fa: a9 00        	<unknown>
800097fc: 6b 32 5c 00  	<unknown>
80009800: 46 27        	<unknown>
80009802: 5b 00 00 34  	<unknown>
80009806: ed 00        	<unknown>
80009808: d2 00        	<unknown>
8000980a: 77 00 fc f4  	<unknown>
8000980e: 55 00        	<unknown>
80009810: 01 59        	<unknown>
80009812: 4d 00        	<unknown>
80009814: e0 71        	<unknown>
80009816: 80 00        	<unknown>

80009818 <PIo2>:
80009818: 00 00        	<unknown>
8000981a: 00 40        	<unknown>
8000981c: fb 21 f9 3f  	<unknown>
80009820: 00 00        	<unknown>
80009822: 00 00        	<unknown>
80009824: 2d 44        	<unknown>
80009826: 74 3e        	<unknown>
80009828: 00 00        	<unknown>
8000982a: 00 80        	<unknown>
8000982c: 98 46        	<unknown>
8000982e: f8 3c        	<unknown>
80009830: 00 00        	<unknown>
80009832: 00 60        	<unknown>
80009834: 51 cc        	<unknown>
80009836: 78 3b        	<unknown>
80009838: 00 00        	<unknown>
8000983a: 00 80        	<unknown>
8000983c: 83 1b f0 39  	lh	s7, 0x39f(zero)
80009840: 00 00        	<unknown>
80009842: 00 40        	<unknown>
80009844: 20 25        	<unknown>
80009846: 7a 38        	<unknown>
80009848: 00 00        	<unknown>
8000984a: 00 80        	<unknown>
8000984c: 22 82        	<unknown>
8000984e: e3 36 00 00  	<unknown>
80009852: 00 00        	<unknown>
80009854: 1d f3        	<unknown>
80009856: 69 35        	<unknown>
80009858: 03 00 00 00  	lb	zero, 0x0(zero)
8000985c: 01 00        	<unknown>
8000985e: 00 00        	<unknown>
80009860: 02 00        	<unknown>
80009862: 00 00        	<unknown>

Disassembly of section .eh_frame:

80009864 <.eh_frame>:
80009864: 10 00        	<unknown>
80009866: 00 00        	<unknown>
80009868: 00 00        	<unknown>
8000986a: 00 00        	<unknown>
8000986c: 01 7a        	<unknown>
8000986e: 52 00        	<unknown>
80009870: 01 7c        	<unknown>
80009872: 01 01        	<unknown>
80009874: 1b 0c 02 00  	<unknown>
80009878: 10 00        	<unknown>
8000987a: 00 00        	<unknown>
8000987c: 18 00        	<unknown>
8000987e: 00 00        	<unknown>
80009880: 14 68        	<unknown>
80009882: ff ff 6c 00  	<unknown>
80009886: 00 00        	<unknown>
80009888: 00 44        	<unknown>
8000988a: 0e 10        	<unknown>
8000988c: 10 00        	<unknown>
8000988e: 00 00        	<unknown>
80009890: 2c 00        	<unknown>
80009892: 00 00        	<unknown>
80009894: 6c 68        	<unknown>
80009896: ff ff 6c 00  	<unknown>
8000989a: 00 00        	<unknown>
8000989c: 00 44        	<unknown>
8000989e: 0e 10        	<unknown>
800098a0: 10 00        	<unknown>
800098a2: 00 00        	<unknown>
800098a4: 40 00        	<unknown>
800098a6: 00 00        	<unknown>
800098a8: c4 68        	<unknown>
800098aa: ff ff 6c 00  	<unknown>
800098ae: 00 00        	<unknown>
800098b0: 00 44        	<unknown>
800098b2: 0e 10        	<unknown>
800098b4: 10 00        	<unknown>
800098b6: 00 00        	<unknown>
800098b8: 54 00        	<unknown>
800098ba: 00 00        	<unknown>
800098bc: 1c 69        	<unknown>
800098be: ff ff 74 00  	<unknown>
800098c2: 00 00        	<unknown>
800098c4: 00 44        	<unknown>
800098c6: 0e 10        	<unknown>
800098c8: 10 00        	<unknown>
800098ca: 00 00        	<unknown>
800098cc: 68 00        	<unknown>
800098ce: 00 00        	<unknown>
800098d0: 7c 69        	<unknown>
800098d2: ff ff 6c 00  	<unknown>
800098d6: 00 00        	<unknown>
800098d8: 00 44        	<unknown>
800098da: 0e 10        	<unknown>
800098dc: 10 00        	<unknown>
800098de: 00 00        	<unknown>
800098e0: 7c 00        	<unknown>
800098e2: 00 00        	<unknown>
800098e4: d4 69        	<unknown>
800098e6: ff ff 6c 00  	<unknown>
800098ea: 00 00        	<unknown>
800098ec: 00 44        	<unknown>
800098ee: 0e 10        	<unknown>
800098f0: 10 00        	<unknown>
800098f2: 00 00        	<unknown>
800098f4: 90 00        	<unknown>
800098f6: 00 00        	<unknown>
800098f8: 2c 6a        	<unknown>
800098fa: ff ff 6c 00  	<unknown>
800098fe: 00 00        	<unknown>
80009900: 00 44        	<unknown>
80009902: 0e 10        	<unknown>
80009904: 10 00        	<unknown>
80009906: 00 00        	<unknown>
80009908: a4 00        	<unknown>
8000990a: 00 00        	<unknown>
8000990c: 84 6a        	<unknown>
8000990e: ff ff 6c 00  	<unknown>
80009912: 00 00        	<unknown>
80009914: 00 44        	<unknown>
80009916: 0e 10        	<unknown>
80009918: 10 00        	<unknown>
8000991a: 00 00        	<unknown>
8000991c: b8 00        	<unknown>
8000991e: 00 00        	<unknown>
80009920: dc 6a        	<unknown>
80009922: ff ff 6c 00  	<unknown>
80009926: 00 00        	<unknown>
80009928: 00 44        	<unknown>
8000992a: 0e 10        	<unknown>
8000992c: 10 00        	<unknown>
8000992e: 00 00        	<unknown>
80009930: cc 00        	<unknown>
80009932: 00 00        	<unknown>
80009934: 34 6b        	<unknown>
80009936: ff ff 6c 00  	<unknown>
8000993a: 00 00        	<unknown>
8000993c: 00 44        	<unknown>
8000993e: 0e 10        	<unknown>
80009940: 10 00        	<unknown>
80009942: 00 00        	<unknown>
80009944: e0 00        	<unknown>
80009946: 00 00        	<unknown>
80009948: 8c 6b        	<unknown>
8000994a: ff ff 6c 00  	<unknown>
8000994e: 00 00        	<unknown>
80009950: 00 44        	<unknown>
80009952: 0e 10        	<unknown>
80009954: 10 00        	<unknown>
80009956: 00 00        	<unknown>
80009958: f4 00        	<unknown>
8000995a: 00 00        	<unknown>
8000995c: e4 6b        	<unknown>
8000995e: ff ff 74 00  	<unknown>
80009962: 00 00        	<unknown>
80009964: 00 44        	<unknown>
80009966: 0e 10        	<unknown>
80009968: 10 00        	<unknown>
8000996a: 00 00        	<unknown>
8000996c: 08 01        	<unknown>
8000996e: 00 00        	<unknown>
80009970: 44 6c        	<unknown>
80009972: ff ff 6c 00  	<unknown>
80009976: 00 00        	<unknown>
80009978: 00 44        	<unknown>
8000997a: 0e 10        	<unknown>
8000997c: 10 00        	<unknown>
8000997e: 00 00        	<unknown>
80009980: 1c 01        	<unknown>
80009982: 00 00        	<unknown>
80009984: 9c 6c        	<unknown>
80009986: ff ff 74 00  	<unknown>
8000998a: 00 00        	<unknown>
8000998c: 00 44        	<unknown>
8000998e: 0e 10        	<unknown>
80009990: 10 00        	<unknown>
80009992: 00 00        	<unknown>
80009994: 30 01        	<unknown>
80009996: 00 00        	<unknown>
80009998: fc 6c        	<unknown>
8000999a: ff ff 70 00  	<unknown>
8000999e: 00 00        	<unknown>
800099a0: 00 44        	<unknown>
800099a2: 0e 10        	<unknown>
800099a4: 10 00        	<unknown>
800099a6: 00 00        	<unknown>
800099a8: 44 01        	<unknown>
800099aa: 00 00        	<unknown>
800099ac: 58 6d        	<unknown>
800099ae: ff ff 70 00  	<unknown>
800099b2: 00 00        	<unknown>
800099b4: 00 44        	<unknown>
800099b6: 0e 10        	<unknown>
800099b8: 10 00        	<unknown>
800099ba: 00 00        	<unknown>
800099bc: 58 01        	<unknown>
800099be: 00 00        	<unknown>
800099c0: b4 6d        	<unknown>
800099c2: ff ff 70 00  	<unknown>
800099c6: 00 00        	<unknown>
800099c8: 00 44        	<unknown>
800099ca: 0e 10        	<unknown>
800099cc: 10 00        	<unknown>
800099ce: 00 00        	<unknown>
800099d0: 6c 01        	<unknown>
800099d2: 00 00        	<unknown>
800099d4: 10 6e        	<unknown>
800099d6: ff ff 70 00  	<unknown>
800099da: 00 00        	<unknown>
800099dc: 00 44        	<unknown>
800099de: 0e 10        	<unknown>
800099e0: 10 00        	<unknown>
800099e2: 00 00        	<unknown>
800099e4: 80 01        	<unknown>
800099e6: 00 00        	<unknown>
800099e8: 6c 6e        	<unknown>
800099ea: ff ff 70 00  	<unknown>
800099ee: 00 00        	<unknown>
800099f0: 00 44        	<unknown>
800099f2: 0e 10        	<unknown>
800099f4: 10 00        	<unknown>
800099f6: 00 00        	<unknown>
800099f8: 94 01        	<unknown>
800099fa: 00 00        	<unknown>
800099fc: c8 6e        	<unknown>
800099fe: ff ff 78 00  	<unknown>
80009a02: 00 00        	<unknown>
80009a04: 00 44        	<unknown>
80009a06: 0e 10        	<unknown>
80009a08: 10 00        	<unknown>
80009a0a: 00 00        	<unknown>
80009a0c: a8 01        	<unknown>
80009a0e: 00 00        	<unknown>
80009a10: 2c 6f        	<unknown>
80009a12: ff ff 8c 00  	<unknown>
80009a16: 00 00        	<unknown>
80009a18: 00 44        	<unknown>
80009a1a: 0e 10        	<unknown>
80009a1c: 24 00        	<unknown>
80009a1e: 00 00        	<unknown>
80009a20: bc 01        	<unknown>
80009a22: 00 00        	<unknown>
80009a24: a4 6f        	<unknown>
80009a26: ff ff e8 00  	<unknown>
80009a2a: 00 00        	<unknown>
80009a2c: 00 44        	<unknown>
80009a2e: 0e 30        	<unknown>
80009a30: 60 81        	<unknown>
80009a32: 01 88        	<unknown>
80009a34: 02 89        	<unknown>
80009a36: 03 92 04 93  	lh	tp, -0x6d0(s1)
80009a3a: 05 94        	<unknown>
80009a3c: 06 95        	<unknown>
80009a3e: 07 96 08 00  	<unknown>
80009a42: 00 00        	<unknown>
80009a44: 10 00        	<unknown>
80009a46: 00 00        	<unknown>
80009a48: e4 01        	<unknown>
80009a4a: 00 00        	<unknown>
80009a4c: 64 70        	<unknown>
80009a4e: ff ff c0 00  	<unknown>
80009a52: 00 00        	<unknown>
80009a54: 00 44        	<unknown>
80009a56: 0e 10        	<unknown>
80009a58: 10 00        	<unknown>
80009a5a: 00 00        	<unknown>
80009a5c: f8 01        	<unknown>
80009a5e: 00 00        	<unknown>
80009a60: 10 71        	<unknown>
80009a62: ff ff a0 00  	<unknown>
80009a66: 00 00        	<unknown>
80009a68: 00 44        	<unknown>
80009a6a: 0e 10        	<unknown>
80009a6c: 10 00        	<unknown>
80009a6e: 00 00        	<unknown>
80009a70: 0c 02        	<unknown>
80009a72: 00 00        	<unknown>
80009a74: 9c 71        	<unknown>
80009a76: ff ff 4c 01  	<unknown>
80009a7a: 00 00        	<unknown>
80009a7c: 00 00        	<unknown>
80009a7e: 00 00        	<unknown>
80009a80: 2c 00        	<unknown>
80009a82: 00 00        	<unknown>
80009a84: 20 02        	<unknown>
80009a86: 00 00        	<unknown>
80009a88: 1c c2        	<unknown>
80009a8a: ff ff 40 0b  	<unknown>
80009a8e: 00 00        	<unknown>
80009a90: 00 44        	<unknown>
80009a92: 0e 50        	<unknown>
80009a94: 74 81        	<unknown>
80009a96: 01 88        	<unknown>
80009a98: 02 89        	<unknown>
80009a9a: 03 92 04 93  	lh	tp, -0x6d0(s1)
80009a9e: 05 94        	<unknown>
80009aa0: 06 95        	<unknown>
80009aa2: 07 96 08 97  	<unknown>
80009aa6: 09 98        	<unknown>
80009aa8: 0a 99        	<unknown>
80009aaa: 0b 9a 0c 9b  	<unknown>
80009aae: 0d 00        	<unknown>
80009ab0: 10 00        	<unknown>
80009ab2: 00 00        	<unknown>
80009ab4: 50 02        	<unknown>
80009ab6: 00 00        	<unknown>
80009ab8: 2c cd        	<unknown>
80009aba: ff ff f8 00  	<unknown>
80009abe: 00 00        	<unknown>
80009ac0: 00 00        	<unknown>
80009ac2: 00 00        	<unknown>
80009ac4: 10 00        	<unknown>
80009ac6: 00 00        	<unknown>
80009ac8: 64 02        	<unknown>
80009aca: 00 00        	<unknown>
80009acc: 10 ce        	<unknown>
80009ace: ff ff f8 00  	<unknown>
80009ad2: 00 00        	<unknown>
80009ad4: 00 00        	<unknown>
80009ad6: 00 00        	<unknown>
80009ad8: 2c 00        	<unknown>
80009ada: 00 00        	<unknown>
80009adc: 78 02        	<unknown>
80009ade: 00 00        	<unknown>
80009ae0: f4 ce        	<unknown>
80009ae2: ff ff fc 09  	<unknown>
80009ae6: 00 00        	<unknown>
80009ae8: 00 44        	<unknown>
80009aea: 0e 40        	<unknown>
80009aec: 74 81        	<unknown>
80009aee: 01 88        	<unknown>
80009af0: 02 89        	<unknown>
80009af2: 03 92 04 93  	lh	tp, -0x6d0(s1)
80009af6: 05 94        	<unknown>
80009af8: 06 95        	<unknown>
80009afa: 07 96 08 97  	<unknown>
80009afe: 09 98        	<unknown>
80009b00: 0a 99        	<unknown>
80009b02: 0b 9a 0c 9b  	<unknown>
80009b06: 0d 00        	<unknown>
80009b08: 10 00        	<unknown>
80009b0a: 00 00        	<unknown>
80009b0c: a8 02        	<unknown>
80009b0e: 00 00        	<unknown>
80009b10: c0 d8        	<unknown>
80009b12: ff ff 70 01  	<unknown>
80009b16: 00 00        	<unknown>
80009b18: 00 00        	<unknown>
80009b1a: 00 00        	<unknown>
80009b1c: 10 00        	<unknown>
80009b1e: 00 00        	<unknown>
80009b20: bc 02        	<unknown>
80009b22: 00 00        	<unknown>
80009b24: 1c da        	<unknown>
80009b26: ff ff d4 00  	<unknown>
80009b2a: 00 00        	<unknown>
80009b2c: 00 00        	<unknown>
80009b2e: 00 00        	<unknown>
80009b30: 10 00        	<unknown>
80009b32: 00 00        	<unknown>
80009b34: d0 02        	<unknown>
80009b36: 00 00        	<unknown>
80009b38: dc da        	<unknown>
80009b3a: ff ff a0 00  	<unknown>
80009b3e: 00 00        	<unknown>
80009b40: 00 00        	<unknown>
80009b42: 00 00        	<unknown>
80009b44: 10 00        	<unknown>
80009b46: 00 00        	<unknown>
80009b48: e4 02        	<unknown>
80009b4a: 00 00        	<unknown>
80009b4c: 68 db        	<unknown>
80009b4e: ff ff 04 01  	<unknown>
80009b52: 00 00        	<unknown>
80009b54: 00 00        	<unknown>
80009b56: 00 00        	<unknown>
80009b58: 10 00        	<unknown>
80009b5a: 00 00        	<unknown>
80009b5c: f8 02        	<unknown>
80009b5e: 00 00        	<unknown>
80009b60: 58 dc        	<unknown>
80009b62: ff ff ec 00  	<unknown>
80009b66: 00 00        	<unknown>
80009b68: 00 00        	<unknown>
80009b6a: 00 00        	<unknown>
80009b6c: 2c 00        	<unknown>
80009b6e: 00 00        	<unknown>
80009b70: 0c 03        	<unknown>
80009b72: 00 00        	<unknown>
80009b74: 30 dd        	<unknown>
80009b76: ff ff ec 08  	<unknown>
80009b7a: 00 00        	<unknown>
80009b7c: 00 44        	<unknown>
80009b7e: 0e 40        	<unknown>
80009b80: 74 81        	<unknown>
80009b82: 01 88        	<unknown>
80009b84: 02 89        	<unknown>
80009b86: 03 92 04 93  	lh	tp, -0x6d0(s1)
80009b8a: 05 94        	<unknown>
80009b8c: 06 95        	<unknown>
80009b8e: 07 96 08 97  	<unknown>
80009b92: 09 98        	<unknown>
80009b94: 0a 99        	<unknown>
80009b96: 0b 9a 0c 9b  	<unknown>
80009b9a: 0d 00        	<unknown>
80009b9c: 10 00        	<unknown>
80009b9e: 00 00        	<unknown>
80009ba0: 3c 03        	<unknown>
80009ba2: 00 00        	<unknown>
80009ba4: ec e5        	<unknown>
80009ba6: ff ff 0c 00  	<unknown>
80009baa: 00 00        	<unknown>
80009bac: 00 00        	<unknown>
80009bae: 00 00        	<unknown>
80009bb0: 1c 00        	<unknown>
80009bb2: 00 00        	<unknown>
80009bb4: 50 03        	<unknown>
80009bb6: 00 00        	<unknown>
80009bb8: e4 e5        	<unknown>
80009bba: ff ff 7c 02  	<unknown>
80009bbe: 00 00        	<unknown>
80009bc0: 00 02        	<unknown>
80009bc2: 88 0e        	<unknown>
80009bc4: 10 50        	<unknown>
80009bc6: 88 01        	<unknown>
80009bc8: 89 02        	<unknown>
80009bca: 92 03        	<unknown>
80009bcc: 93 04 00 00  	li	s1, 0x0
80009bd0: 18 00        	<unknown>
80009bd2: 00 00        	<unknown>
80009bd4: 70 03        	<unknown>
80009bd6: 00 00        	<unknown>
80009bd8: 40 e8        	<unknown>
80009bda: ff ff 64 03  	<unknown>
80009bde: 00 00        	<unknown>
80009be0: 00 03        	<unknown>
80009be2: 2c 02        	<unknown>
80009be4: 0e 10        	<unknown>
80009be6: 44 88        	<unknown>
80009be8: 01 00        	<unknown>
80009bea: 00 00        	<unknown>
80009bec: 18 00        	<unknown>
80009bee: 00 00        	<unknown>
80009bf0: 8c 03        	<unknown>
80009bf2: 00 00        	<unknown>
80009bf4: 88 eb        	<unknown>
80009bf6: ff ff 48 03  	<unknown>
80009bfa: 00 00        	<unknown>
80009bfc: 00 03        	<unknown>
80009bfe: 2c 02        	<unknown>
80009c00: 0e 10        	<unknown>
80009c02: 44 88        	<unknown>
80009c04: 01 00        	<unknown>
80009c06: 00 00        	<unknown>
80009c08: 10 00        	<unknown>
80009c0a: 00 00        	<unknown>
80009c0c: a8 03        	<unknown>
80009c0e: 00 00        	<unknown>
80009c10: b4 ee        	<unknown>
80009c12: ff ff 34 00  	<unknown>
80009c16: 00 00        	<unknown>
80009c18: 00 00        	<unknown>
80009c1a: 00 00        	<unknown>
80009c1c: 10 00        	<unknown>
80009c1e: 00 00        	<unknown>
80009c20: bc 03        	<unknown>
80009c22: 00 00        	<unknown>
80009c24: d4 ee        	<unknown>
80009c26: ff ff 0c 00  	<unknown>
80009c2a: 00 00        	<unknown>
80009c2c: 00 00        	<unknown>
80009c2e: 00 00        	<unknown>

Disassembly of section .tbss:

8000ac30 <__tbss_start>:
...

Disassembly of section .got:

8000ac30 <.got>:
8000ac30: ff ff ff ff  	<unknown>
8000ac34: 00 00        	<unknown>
8000ac36: 00 00        	<unknown>

8000ac38 <_GLOBAL_OFFSET_TABLE_>:
8000ac38: 00 00        	<unknown>
8000ac3a: 00 00        	<unknown>
8000ac3c: 10 00        	<unknown>
8000ac3e: 00 00        	<unknown>
8000ac40: 30 ac        	<unknown>
8000ac42: 00 80        	<unknown>
8000ac44: 30 ac        	<unknown>
8000ac46: 00 80        	<unknown>

Disassembly of section .sdata:

8000ac48 <__SDATA_BEGIN__>:
8000ac48: ff ff ff ff  	<unknown>
8000ac4c: ff ff ef 7f  	<unknown>
8000ac50: ff ff ff ff  	<unknown>
8000ac54: ff ff ef ff  	<unknown>
8000ac58: fb 79 9f 50  	<unknown>
8000ac5c: 13 44 d3 3f  	xori	s0, t1, 0x3fd
8000ac60: b3 c8 60 8b  	<unknown>
8000ac64: 28 8a        	<unknown>
8000ac66: c6 3f        	<unknown>
8000ac68: 00 00        	<unknown>
8000ac6a: 00 00        	<unknown>
8000ac6c: 00 00        	<unknown>
8000ac6e: f8 3f        	<unknown>
8000ac70: 61 43        	<unknown>
8000ac72: 6f 63 a7 87  	jal	t1, 0x7ff80cec <__tbss_size+0x7ff80cd0>
8000ac76: d2 3f        	<unknown>
8000ac78: 71 a3        	<unknown>
8000ac7a: 79 09        	<unknown>
8000ac7c: 4f 93 0a 40  	fnmadd.s	ft6, fs5, ft0, fs0, rtz
8000ac80: 00 00        	<unknown>
8000ac82: 00 00        	<unknown>
8000ac84: 00 00        	<unknown>
8000ac86: e0 3f        	<unknown>
8000ac88: 16 55        	<unknown>
8000ac8a: b5 bb        	<unknown>
8000ac8c: b1 6b        	<unknown>
8000ac8e: 02 40        	<unknown>
8000ac90: ef 39 fa fe  	jal	s3, 0x7ffaec7e <__tbss_size+0x7ffaec62>
8000ac94: 42 2e        	<unknown>
8000ac96: e6 3f        	<unknown>
8000ac98: 00 00        	<unknown>
8000ac9a: 00 00        	<unknown>
8000ac9c: 00 00        	<unknown>
8000ac9e: 2c 40        	<unknown>
8000aca0: 00 00        	<unknown>
8000aca2: 00 00        	<unknown>
8000aca4: 00 00        	<unknown>
8000aca6: 24 40        	<unknown>
8000aca8: 00 00        	<unknown>
8000acaa: 00 00        	<unknown>
8000acac: 00 00        	<unknown>
8000acae: 18 40        	<unknown>
8000acb0: 00 00        	<unknown>
8000acb2: 00 00        	<unknown>
8000acb4: 00 00        	<unknown>
8000acb6: 00 40        	<unknown>
8000acb8: 00 00        	<unknown>
8000acba: 00 00        	<unknown>
8000acbc: 00 00        	<unknown>
8000acbe: f0 3f        	<unknown>
8000acc0: 2d 43        	<unknown>
8000acc2: 1c eb        	<unknown>
8000acc4: e2 36        	<unknown>
8000acc6: 1a 3f        	<unknown>
8000acc8: 00 00        	<unknown>
8000acca: 00 00        	<unknown>
8000accc: 80 84        	<unknown>
8000acce: 2e 41        	<unknown>
8000acd0: 00 00        	<unknown>
8000acd2: 00 00        	<unknown>
8000acd4: 65 cd        	<unknown>
8000acd6: cd 41        	<unknown>
8000acd8: 00 00        	<unknown>
8000acda: 00 00        	<unknown>
8000acdc: 65 cd        	<unknown>
8000acde: cd c1        	<unknown>

Disassembly of section .sbss:

8000ace0 <__warps_per_group>:
...

Disassembly of section .bss:

8000ace4 <_ZL8sc_tests>:
...

8000ad44 <blockDim>:
...

8000ad50 <gridDim>:
...

Disassembly of section .comment:

00000000 <.comment>:
       0: 63 6c 61 6e  	bltu	sp, t1, 0x6f8 <.comment+0x6f8>
       4: 67 20 76 65  	<unknown>
       8: 72 73        	<unknown>
       a: 69 6f        	<unknown>
       c: 6e 20        	<unknown>
       e: 31 38        	<unknown>
      10: 2e 31        	<unknown>
      12: 2e 37        	<unknown>
      14: 20 28        	<unknown>
      16: 68 74        	<unknown>
      18: 74 70        	<unknown>
      1a: 73 3a 2f 2f  	csrrc	s4, 0x2f2, t5
      1e: 67 69 74 68  	<unknown>
      22: 75 62        	<unknown>
      24: 2e 63        	<unknown>
      26: 6f 6d 2f 76  	jal	s10, 0xf6788 <.comment+0xf6788>
      2a: 6f 72 74 65  	jal	tp, 0x47e80 <.comment+0x47e80>
      2e: 78 67        	<unknown>
      30: 70 67        	<unknown>
      32: 70 75        	<unknown>
      34: 2f 6c 6c 76  	<unknown>
      38: 6d 2e        	<unknown>
      3a: 67 69 74 20  	<unknown>
      3e: 63 32 35 31  	<unknown>
      42: 36 35        	<unknown>
      44: 37 37 63 62  	lui	a4, 0x62633
      48: 39 31        	<unknown>
      4a: 30 34        	<unknown>
      4c: 66 35        	<unknown>
      4e: 33 61 61 65  	<unknown>
      52: 66 30        	<unknown>
      54: 39 35        	<unknown>
      56: 63 31 63 33  	<unknown>
      5a: 61 31        	<unknown>
      5c: 64 32        	<unknown>
      5e: 35 31        	<unknown>
      60: 37 63 65 63  	lui	t1, 0x63656
      64: 33 36 29 00  	sltu	a2, s2, sp
      68: 47 43 43 3a  	<unknown>
      6c: 20 28        	<unknown>
      6e: 67 32 65 65  	<unknown>
      72: 35 65        	<unknown>
      74: 34 33        	<unknown>
      76: 30 30        	<unknown>
      78: 31 38        	<unknown>
      7a: 2d 64        	<unknown>
      7c: 69 72        	<unknown>
      7e: 74 79        	<unknown>
      80: 29 20        	<unknown>
      82: 31 32        	<unknown>
      84: 2e 32        	<unknown>
      86: 2e 30        	<unknown>
      88: 00 63        	<unknown>
      8a: 6c 61        	<unknown>
      8c: 6e 67        	<unknown>
      8e: 20 76        	<unknown>
      90: 65 72        	<unknown>
      92: 73 69 6f 6e  	csrrsi	s2, 0x6e6, 0x1e
      96: 20 31        	<unknown>
      98: 38 2e        	<unknown>
      9a: 31 2e        	<unknown>
      9c: 36 20        	<unknown>
      9e: 28 68        	<unknown>
      a0: 74 74        	<unknown>
      a2: 70 73        	<unknown>
      a4: 3a 2f        	<unknown>
      a6: 2f 67 69 74  	<unknown>
      aa: 68 75        	<unknown>
      ac: 62 2e        	<unknown>
      ae: 63 6f 6d 2f  	bltu	s10, s6, 0x3ac <.comment+0x3ac>
      b2: 6c 6c        	<unknown>
      b4: 76 6d        	<unknown>
      b6: 2f 6c 6c 76  	<unknown>
      ba: 6d 2d        	<unknown>
      bc: 70 72        	<unknown>
      be: 6f 6a 65 63  	jal	s4, 0x566f4 <.comment+0x566f4>
      c2: 74 2e        	<unknown>
      c4: 67 69 74 20  	<unknown>
      c8: 31 64        	<unknown>
      ca: 36 31        	<unknown>
      cc: 62 34        	<unknown>
      ce: 30 34        	<unknown>
      d0: 34 64        	<unknown>
      d2: 64 64        	<unknown>
      d4: 64 61        	<unknown>
      d6: 36 35        	<unknown>
      d8: 65 39        	<unknown>
      da: 38 65        	<unknown>
      dc: 37 39 32 38  	lui	s2, 0x38323
      e0: 66 64        	<unknown>
      e2: 33 39 35 65  	<unknown>
      e6: 36 61        	<unknown>
      e8: 39 35        	<unknown>
      ea: 31 63        	<unknown>
      ec: 35 61        	<unknown>
      ee: 38 66        	<unknown>
      f0: 29 00        	<unknown>

Disassembly of section .riscv.attributes:

00000000 <.riscv.attributes>:
       0: 41 4a        	<unknown>
       2: 00 00        	<unknown>
       4: 00 72        	<unknown>
       6: 69 73        	<unknown>
       8: 63 76 00 01  	bgeu	zero, a6, 0x14 <.comment+0x14>
       c: 40 00        	<unknown>
       e: 00 00        	<unknown>
      10: 04 10        	<unknown>
      12: 05 72        	<unknown>
      14: 76 33        	<unknown>
      16: 32 69        	<unknown>
      18: 32 70        	<unknown>
      1a: 31 5f        	<unknown>
      1c: 6d 32        	<unknown>
      1e: 70 30        	<unknown>
      20: 5f 61 32 70  	<unknown>
      24: 31 5f        	<unknown>
      26: 66 32        	<unknown>
      28: 70 32        	<unknown>
      2a: 5f 7a 69 63  	<unknown>
      2e: 6f 6e 64 31  	jal	t3, 0x46344 <.comment+0x46344>
      32: 70 30        	<unknown>
      34: 5f 7a 69 63  	<unknown>
      38: 73 72 32 70  	csrrci	tp, 0x703, 0x4
      3c: 30 5f        	<unknown>
      3e: 7a 6d        	<unknown>
      40: 6d 75        	<unknown>
      42: 6c 31        	<unknown>
      44: 70 30        	<unknown>
      46: 00 08        	<unknown>
      48: 01 0a        	<unknown>
      4a: 0b           	<unknown>

Disassembly of section .symtab:

00000000 <.symtab>:
		...
      14: 00 00        	<unknown>
      16: 00 80        	<unknown>
      18: 00 00        	<unknown>
      1a: 00 00        	<unknown>
      1c: 03 00 01 00  	lb	zero, 0x0(sp)
      20: 00 00        	<unknown>
      22: 00 00        	<unknown>
      24: 70 00        	<unknown>
      26: 00 80        	<unknown>
      28: 00 00        	<unknown>
      2a: 00 00        	<unknown>
      2c: 03 00 02 00  	lb	zero, 0x0(tp)
      30: 00 00        	<unknown>
      32: 00 00        	<unknown>
      34: 08 8b        	<unknown>
      36: 00 80        	<unknown>
      38: 00 00        	<unknown>
      3a: 00 00        	<unknown>
      3c: 03 00 03 00  	lb	zero, 0x0(t1)
      40: 00 00        	<unknown>
      42: 00 00        	<unknown>
      44: 64 98        	<unknown>
      46: 00 80        	<unknown>
      48: 00 00        	<unknown>
      4a: 00 00        	<unknown>
      4c: 03 00 04 00  	lb	zero, 0x0(s0)
      50: 00 00        	<unknown>
      52: 00 00        	<unknown>
      54: 30 ac        	<unknown>
      56: 00 80        	<unknown>
      58: 00 00        	<unknown>
      5a: 00 00        	<unknown>
      5c: 03 00 05 00  	lb	zero, 0x0(a0)
      60: 00 00        	<unknown>
      62: 00 00        	<unknown>
      64: 30 ac        	<unknown>
      66: 00 80        	<unknown>
      68: 00 00        	<unknown>
      6a: 00 00        	<unknown>
      6c: 03 00 06 00  	lb	zero, 0x0(a2)
      70: 00 00        	<unknown>
      72: 00 00        	<unknown>
      74: 48 ac        	<unknown>
      76: 00 80        	<unknown>
      78: 00 00        	<unknown>
      7a: 00 00        	<unknown>
      7c: 03 00 07 00  	lb	zero, 0x0(a4)
      80: 00 00        	<unknown>
      82: 00 00        	<unknown>
      84: e0 ac        	<unknown>
      86: 00 80        	<unknown>
      88: 00 00        	<unknown>
      8a: 00 00        	<unknown>
      8c: 03 00 08 00  	lb	zero, 0x0(a6)
      90: 00 00        	<unknown>
      92: 00 00        	<unknown>
      94: e4 ac        	<unknown>
      96: 00 80        	<unknown>
      98: 00 00        	<unknown>
      9a: 00 00        	<unknown>
      9c: 03 00 09 00  	lb	zero, 0x0(s2)
		...
      ac: 03 00 0a 00  	lb	zero, 0x0(s4)
		...
      bc: 03 00 0b 00  	lb	zero, 0x0(s6)
      c0: 01 00        	<unknown>
		...
      ca: 00 00        	<unknown>
      cc: 04 00        	<unknown>
      ce: f1 ff        	<unknown>
      d0: 0e 00        	<unknown>
      d2: 00 00        	<unknown>
      d4: 00 00        	<unknown>
      d6: 00 80        	<unknown>
      d8: 00 00        	<unknown>
      da: 00 00        	<unknown>
      dc: 00 00        	<unknown>
      de: 01 00        	<unknown>
      e0: 3a 00        	<unknown>
      e2: 00 00        	<unknown>
      e4: a0 0d        	<unknown>
      e6: 00 80        	<unknown>
      e8: 00 00        	<unknown>
      ea: 00 00        	<unknown>
      ec: 02 00        	<unknown>
      ee: 02 00        	<unknown>
      f0: 48 00        	<unknown>
      f2: 00 00        	<unknown>
      f4: 70 0d        	<unknown>
      f6: 00 80        	<unknown>
      f8: 00 00        	<unknown>
      fa: 00 00        	<unknown>
      fc: 02 00        	<unknown>
      fe: 02 00        	<unknown>
     100: 52 00        	<unknown>
     102: 00 00        	<unknown>
     104: b4 0d        	<unknown>
     106: 00 80        	<unknown>
     108: 00 00        	<unknown>
     10a: 00 00        	<unknown>
     10c: 02 00        	<unknown>
     10e: 02 00        	<unknown>
     110: 0e 00        	<unknown>
     112: 00 00        	<unknown>
     114: 5c 0d        	<unknown>
     116: 00 80        	<unknown>
     118: 00 00        	<unknown>
     11a: 00 00        	<unknown>
     11c: 00 00        	<unknown>
     11e: 02 00        	<unknown>
     120: 5f 00 00 00  	<unknown>
		...
     12c: 04 00        	<unknown>
     12e: f1 ff        	<unknown>
     130: 66 00        	<unknown>
     132: 00 00        	<unknown>
     134: 4c 38        	<unknown>
     136: 00 80        	<unknown>
     138: 04 00        	<unknown>
     13a: 00 00        	<unknown>
     13c: 02 00        	<unknown>
     13e: 02 00        	<unknown>
     140: 6c 00        	<unknown>
     142: 00 00        	<unknown>
     144: 4c 38        	<unknown>
     146: 00 80        	<unknown>
     148: 00 00        	<unknown>
     14a: 00 00        	<unknown>
     14c: 00 00        	<unknown>
     14e: 02 00        	<unknown>
     150: 71 08        	<unknown>
     152: 00 00        	<unknown>
     154: 50 38        	<unknown>
     156: 00 80        	<unknown>
     158: 4c 00        	<unknown>
     15a: 00 00        	<unknown>
     15c: 02 00        	<unknown>
     15e: 02 00        	<unknown>
     160: 71 00        	<unknown>
     162: 00 00        	<unknown>
     164: 50 38        	<unknown>
     166: 00 80        	<unknown>
     168: 00 00        	<unknown>
     16a: 00 00        	<unknown>
     16c: 00 00        	<unknown>
     16e: 02 00        	<unknown>
     170: 76 00        	<unknown>
     172: 00 00        	<unknown>
     174: 70 00        	<unknown>
     176: 00 80        	<unknown>
     178: 00 00        	<unknown>
     17a: 00 00        	<unknown>
     17c: 00 00        	<unknown>
     17e: 02 00        	<unknown>
     180: 7b 00 00 00  	<unknown>
     184: 67 00 00 00  	jr	zero <.symtab>
     188: 00 00        	<unknown>
     18a: 00 00        	<unknown>
     18c: 00 00        	<unknown>
     18e: 0a 00        	<unknown>
     190: 80 00        	<unknown>
     192: 00 00        	<unknown>
     194: 38 02        	<unknown>
		...
     19e: 0b 00 85 00  	<unknown>
		...
     1aa: 00 00        	<unknown>
     1ac: 04 00        	<unknown>
     1ae: f1 ff        	<unknown>
     1b0: 00 00        	<unknown>
     1b2: 00 00        	<unknown>
     1b4: 94 00        	<unknown>
     1b6: 00 80        	<unknown>
     1b8: 00 00        	<unknown>
     1ba: 00 00        	<unknown>
     1bc: 00 00        	<unknown>
     1be: 02 00        	<unknown>
     1c0: 6c 00        	<unknown>
     1c2: 00 00        	<unknown>
     1c4: 94 00        	<unknown>
     1c6: 00 80        	<unknown>
     1c8: 00 00        	<unknown>
     1ca: 00 00        	<unknown>
     1cc: 00 00        	<unknown>
     1ce: 02 00        	<unknown>
     1d0: 00 00        	<unknown>
     1d2: 00 00        	<unknown>
     1d4: 00 01        	<unknown>
     1d6: 00 80        	<unknown>
     1d8: 00 00        	<unknown>
     1da: 00 00        	<unknown>
     1dc: 00 00        	<unknown>
     1de: 02 00        	<unknown>
     1e0: 00 00        	<unknown>
     1e2: 00 00        	<unknown>
     1e4: 00 01        	<unknown>
     1e6: 00 80        	<unknown>
     1e8: 00 00        	<unknown>
     1ea: 00 00        	<unknown>
     1ec: 00 00        	<unknown>
     1ee: 02 00        	<unknown>
     1f0: 71 00        	<unknown>
     1f2: 00 00        	<unknown>
     1f4: 00 01        	<unknown>
     1f6: 00 80        	<unknown>
     1f8: 00 00        	<unknown>
     1fa: 00 00        	<unknown>
     1fc: 00 00        	<unknown>
     1fe: 02 00        	<unknown>
     200: 00 00        	<unknown>
     202: 00 00        	<unknown>
     204: 6c 01        	<unknown>
     206: 00 80        	<unknown>
     208: 00 00        	<unknown>
     20a: 00 00        	<unknown>
     20c: 00 00        	<unknown>
     20e: 02 00        	<unknown>
     210: 00 00        	<unknown>
     212: 00 00        	<unknown>
     214: 6c 01        	<unknown>
     216: 00 80        	<unknown>
     218: 00 00        	<unknown>
     21a: 00 00        	<unknown>
     21c: 00 00        	<unknown>
     21e: 02 00        	<unknown>
     220: 76 00        	<unknown>
     222: 00 00        	<unknown>
     224: 6c 01        	<unknown>
     226: 00 80        	<unknown>
     228: 00 00        	<unknown>
     22a: 00 00        	<unknown>
     22c: 00 00        	<unknown>
     22e: 02 00        	<unknown>
     230: 00 00        	<unknown>
     232: 00 00        	<unknown>
     234: d8 01        	<unknown>
     236: 00 80        	<unknown>
     238: 00 00        	<unknown>
     23a: 00 00        	<unknown>
     23c: 00 00        	<unknown>
     23e: 02 00        	<unknown>
     240: 00 00        	<unknown>
     242: 00 00        	<unknown>
     244: d8 01        	<unknown>
     246: 00 80        	<unknown>
     248: 00 00        	<unknown>
     24a: 00 00        	<unknown>
     24c: 00 00        	<unknown>
     24e: 02 00        	<unknown>
     250: 90 00        	<unknown>
     252: 00 00        	<unknown>
     254: d8 01        	<unknown>
     256: 00 80        	<unknown>
     258: 00 00        	<unknown>
     25a: 00 00        	<unknown>
     25c: 00 00        	<unknown>
     25e: 02 00        	<unknown>
     260: 00 00        	<unknown>
     262: 00 00        	<unknown>
     264: 4c 02        	<unknown>
     266: 00 80        	<unknown>
     268: 00 00        	<unknown>
     26a: 00 00        	<unknown>
     26c: 00 00        	<unknown>
     26e: 02 00        	<unknown>
     270: 00 00        	<unknown>
     272: 00 00        	<unknown>
     274: 4c 02        	<unknown>
     276: 00 80        	<unknown>
     278: 00 00        	<unknown>
     27a: 00 00        	<unknown>
     27c: 00 00        	<unknown>
     27e: 02 00        	<unknown>
     280: 95 00        	<unknown>
     282: 00 00        	<unknown>
     284: 4c 02        	<unknown>
     286: 00 80        	<unknown>
     288: 00 00        	<unknown>
     28a: 00 00        	<unknown>
     28c: 00 00        	<unknown>
     28e: 02 00        	<unknown>
     290: 00 00        	<unknown>
     292: 00 00        	<unknown>
     294: b8 02        	<unknown>
     296: 00 80        	<unknown>
     298: 00 00        	<unknown>
     29a: 00 00        	<unknown>
     29c: 00 00        	<unknown>
     29e: 02 00        	<unknown>
     2a0: 00 00        	<unknown>
     2a2: 00 00        	<unknown>
     2a4: b8 02        	<unknown>
     2a6: 00 80        	<unknown>
     2a8: 00 00        	<unknown>
     2aa: 00 00        	<unknown>
     2ac: 00 00        	<unknown>
     2ae: 02 00        	<unknown>
     2b0: 9a 00        	<unknown>
     2b2: 00 00        	<unknown>
     2b4: b8 02        	<unknown>
     2b6: 00 80        	<unknown>
     2b8: 00 00        	<unknown>
     2ba: 00 00        	<unknown>
     2bc: 00 00        	<unknown>
     2be: 02 00        	<unknown>
     2c0: 00 00        	<unknown>
     2c2: 00 00        	<unknown>
     2c4: 24 03        	<unknown>
     2c6: 00 80        	<unknown>
     2c8: 00 00        	<unknown>
     2ca: 00 00        	<unknown>
     2cc: 00 00        	<unknown>
     2ce: 02 00        	<unknown>
     2d0: 00 00        	<unknown>
     2d2: 00 00        	<unknown>
     2d4: 24 03        	<unknown>
     2d6: 00 80        	<unknown>
     2d8: 00 00        	<unknown>
     2da: 00 00        	<unknown>
     2dc: 00 00        	<unknown>
     2de: 02 00        	<unknown>
     2e0: 9f 00 00 00  	<unknown>
     2e4: 24 03        	<unknown>
     2e6: 00 80        	<unknown>
     2e8: 00 00        	<unknown>
     2ea: 00 00        	<unknown>
     2ec: 00 00        	<unknown>
     2ee: 02 00        	<unknown>
     2f0: 00 00        	<unknown>
     2f2: 00 00        	<unknown>
     2f4: 90 03        	<unknown>
     2f6: 00 80        	<unknown>
     2f8: 00 00        	<unknown>
     2fa: 00 00        	<unknown>
     2fc: 00 00        	<unknown>
     2fe: 02 00        	<unknown>
     300: 00 00        	<unknown>
     302: 00 00        	<unknown>
     304: 90 03        	<unknown>
     306: 00 80        	<unknown>
     308: 00 00        	<unknown>
     30a: 00 00        	<unknown>
     30c: 00 00        	<unknown>
     30e: 02 00        	<unknown>
     310: a4 00        	<unknown>
     312: 00 00        	<unknown>
     314: 90 03        	<unknown>
     316: 00 80        	<unknown>
     318: 00 00        	<unknown>
     31a: 00 00        	<unknown>
     31c: 00 00        	<unknown>
     31e: 02 00        	<unknown>
     320: 00 00        	<unknown>
     322: 00 00        	<unknown>
     324: fc 03        	<unknown>
     326: 00 80        	<unknown>
     328: 00 00        	<unknown>
     32a: 00 00        	<unknown>
     32c: 00 00        	<unknown>
     32e: 02 00        	<unknown>
     330: 00 00        	<unknown>
     332: 00 00        	<unknown>
     334: fc 03        	<unknown>
     336: 00 80        	<unknown>
     338: 00 00        	<unknown>
     33a: 00 00        	<unknown>
     33c: 00 00        	<unknown>
     33e: 02 00        	<unknown>
     340: a9 00        	<unknown>
     342: 00 00        	<unknown>
     344: fc 03        	<unknown>
     346: 00 80        	<unknown>
     348: 00 00        	<unknown>
     34a: 00 00        	<unknown>
     34c: 00 00        	<unknown>
     34e: 02 00        	<unknown>
     350: 00 00        	<unknown>
     352: 00 00        	<unknown>
     354: 68 04        	<unknown>
     356: 00 80        	<unknown>
     358: 00 00        	<unknown>
     35a: 00 00        	<unknown>
     35c: 00 00        	<unknown>
     35e: 02 00        	<unknown>
     360: 00 00        	<unknown>
     362: 00 00        	<unknown>
     364: 68 04        	<unknown>
     366: 00 80        	<unknown>
     368: 00 00        	<unknown>
     36a: 00 00        	<unknown>
     36c: 00 00        	<unknown>
     36e: 02 00        	<unknown>
     370: ae 00        	<unknown>
     372: 00 00        	<unknown>
     374: 68 04        	<unknown>
     376: 00 80        	<unknown>
     378: 00 00        	<unknown>
     37a: 00 00        	<unknown>
     37c: 00 00        	<unknown>
     37e: 02 00        	<unknown>
     380: 00 00        	<unknown>
     382: 00 00        	<unknown>
     384: d4 04        	<unknown>
     386: 00 80        	<unknown>
     388: 00 00        	<unknown>
     38a: 00 00        	<unknown>
     38c: 00 00        	<unknown>
     38e: 02 00        	<unknown>
     390: 00 00        	<unknown>
     392: 00 00        	<unknown>
     394: d4 04        	<unknown>
     396: 00 80        	<unknown>
     398: 00 00        	<unknown>
     39a: 00 00        	<unknown>
     39c: 00 00        	<unknown>
     39e: 02 00        	<unknown>
     3a0: b3 00 00 00  	add	ra, zero, zero
     3a4: d4 04        	<unknown>
     3a6: 00 80        	<unknown>
     3a8: 00 00        	<unknown>
     3aa: 00 00        	<unknown>
     3ac: 00 00        	<unknown>
     3ae: 02 00        	<unknown>
     3b0: 00 00        	<unknown>
     3b2: 00 00        	<unknown>
     3b4: 40 05        	<unknown>
     3b6: 00 80        	<unknown>
     3b8: 00 00        	<unknown>
     3ba: 00 00        	<unknown>
     3bc: 00 00        	<unknown>
     3be: 02 00        	<unknown>
     3c0: 00 00        	<unknown>
     3c2: 00 00        	<unknown>
     3c4: 40 05        	<unknown>
     3c6: 00 80        	<unknown>
     3c8: 00 00        	<unknown>
     3ca: 00 00        	<unknown>
     3cc: 00 00        	<unknown>
     3ce: 02 00        	<unknown>
     3d0: b9 00        	<unknown>
     3d2: 00 00        	<unknown>
     3d4: 40 05        	<unknown>
     3d6: 00 80        	<unknown>
     3d8: 00 00        	<unknown>
     3da: 00 00        	<unknown>
     3dc: 00 00        	<unknown>
     3de: 02 00        	<unknown>
     3e0: 00 00        	<unknown>
     3e2: 00 00        	<unknown>
     3e4: b4 05        	<unknown>
     3e6: 00 80        	<unknown>
     3e8: 00 00        	<unknown>
     3ea: 00 00        	<unknown>
     3ec: 00 00        	<unknown>
     3ee: 02 00        	<unknown>
     3f0: 00 00        	<unknown>
     3f2: 00 00        	<unknown>
     3f4: b4 05        	<unknown>
     3f6: 00 80        	<unknown>
     3f8: 00 00        	<unknown>
     3fa: 00 00        	<unknown>
     3fc: 00 00        	<unknown>
     3fe: 02 00        	<unknown>
     400: bf 00 00 00  	<unknown>
     404: b4 05        	<unknown>
     406: 00 80        	<unknown>
     408: 00 00        	<unknown>
     40a: 00 00        	<unknown>
     40c: 00 00        	<unknown>
     40e: 02 00        	<unknown>
     410: 00 00        	<unknown>
     412: 00 00        	<unknown>
     414: 20 06        	<unknown>
     416: 00 80        	<unknown>
     418: 00 00        	<unknown>
     41a: 00 00        	<unknown>
     41c: 00 00        	<unknown>
     41e: 02 00        	<unknown>
     420: 00 00        	<unknown>
     422: 00 00        	<unknown>
     424: 20 06        	<unknown>
     426: 00 80        	<unknown>
     428: 00 00        	<unknown>
     42a: 00 00        	<unknown>
     42c: 00 00        	<unknown>
     42e: 02 00        	<unknown>
     430: c5 00        	<unknown>
     432: 00 00        	<unknown>
     434: 20 06        	<unknown>
     436: 00 80        	<unknown>
     438: 00 00        	<unknown>
     43a: 00 00        	<unknown>
     43c: 00 00        	<unknown>
     43e: 02 00        	<unknown>
     440: 00 00        	<unknown>
     442: 00 00        	<unknown>
     444: 94 06        	<unknown>
     446: 00 80        	<unknown>
     448: 00 00        	<unknown>
     44a: 00 00        	<unknown>
     44c: 00 00        	<unknown>
     44e: 02 00        	<unknown>
     450: 00 00        	<unknown>
     452: 00 00        	<unknown>
     454: 94 06        	<unknown>
     456: 00 80        	<unknown>
     458: 00 00        	<unknown>
     45a: 00 00        	<unknown>
     45c: 00 00        	<unknown>
     45e: 02 00        	<unknown>
     460: cb 00 00 00  	fnmsub.s	ft1, ft0, ft0, ft0, rne
     464: 94 06        	<unknown>
     466: 00 80        	<unknown>
     468: 00 00        	<unknown>
     46a: 00 00        	<unknown>
     46c: 00 00        	<unknown>
     46e: 02 00        	<unknown>
     470: 00 00        	<unknown>
     472: 00 00        	<unknown>
     474: 04 07        	<unknown>
     476: 00 80        	<unknown>
     478: 00 00        	<unknown>
     47a: 00 00        	<unknown>
     47c: 00 00        	<unknown>
     47e: 02 00        	<unknown>
     480: 00 00        	<unknown>
     482: 00 00        	<unknown>
     484: 04 07        	<unknown>
     486: 00 80        	<unknown>
     488: 00 00        	<unknown>
     48a: 00 00        	<unknown>
     48c: 00 00        	<unknown>
     48e: 02 00        	<unknown>
     490: d1 00        	<unknown>
     492: 00 00        	<unknown>
     494: 04 07        	<unknown>
     496: 00 80        	<unknown>
     498: 00 00        	<unknown>
     49a: 00 00        	<unknown>
     49c: 00 00        	<unknown>
     49e: 02 00        	<unknown>
     4a0: 00 00        	<unknown>
     4a2: 00 00        	<unknown>
     4a4: 74 07        	<unknown>
     4a6: 00 80        	<unknown>
     4a8: 00 00        	<unknown>
     4aa: 00 00        	<unknown>
     4ac: 00 00        	<unknown>
     4ae: 02 00        	<unknown>
     4b0: 00 00        	<unknown>
     4b2: 00 00        	<unknown>
     4b4: 74 07        	<unknown>
     4b6: 00 80        	<unknown>
     4b8: 00 00        	<unknown>
     4ba: 00 00        	<unknown>
     4bc: 00 00        	<unknown>
     4be: 02 00        	<unknown>
     4c0: d7 00 00 00  	<unknown>
     4c4: 74 07        	<unknown>
     4c6: 00 80        	<unknown>
     4c8: 00 00        	<unknown>
     4ca: 00 00        	<unknown>
     4cc: 00 00        	<unknown>
     4ce: 02 00        	<unknown>
     4d0: 00 00        	<unknown>
     4d2: 00 00        	<unknown>
     4d4: e4 07        	<unknown>
     4d6: 00 80        	<unknown>
     4d8: 00 00        	<unknown>
     4da: 00 00        	<unknown>
     4dc: 00 00        	<unknown>
     4de: 02 00        	<unknown>
     4e0: 00 00        	<unknown>
     4e2: 00 00        	<unknown>
     4e4: e4 07        	<unknown>
     4e6: 00 80        	<unknown>
     4e8: 00 00        	<unknown>
     4ea: 00 00        	<unknown>
     4ec: 00 00        	<unknown>
     4ee: 02 00        	<unknown>
     4f0: dd 00        	<unknown>
     4f2: 00 00        	<unknown>
     4f4: e4 07        	<unknown>
     4f6: 00 80        	<unknown>
     4f8: 00 00        	<unknown>
     4fa: 00 00        	<unknown>
     4fc: 00 00        	<unknown>
     4fe: 02 00        	<unknown>
     500: 00 00        	<unknown>
     502: 00 00        	<unknown>
     504: 54 08        	<unknown>
     506: 00 80        	<unknown>
     508: 00 00        	<unknown>
     50a: 00 00        	<unknown>
     50c: 00 00        	<unknown>
     50e: 02 00        	<unknown>
     510: 00 00        	<unknown>
     512: 00 00        	<unknown>
     514: 54 08        	<unknown>
     516: 00 80        	<unknown>
     518: 00 00        	<unknown>
     51a: 00 00        	<unknown>
     51c: 00 00        	<unknown>
     51e: 02 00        	<unknown>
     520: e3 00 00 00  	beqz	zero, 0xd20 <.symtab+0xd20>
     524: 54 08        	<unknown>
     526: 00 80        	<unknown>
     528: 00 00        	<unknown>
     52a: 00 00        	<unknown>
     52c: 00 00        	<unknown>
     52e: 02 00        	<unknown>
     530: 00 00        	<unknown>
     532: 00 00        	<unknown>
     534: c4 08        	<unknown>
     536: 00 80        	<unknown>
     538: 00 00        	<unknown>
     53a: 00 00        	<unknown>
     53c: 00 00        	<unknown>
     53e: 02 00        	<unknown>
     540: 00 00        	<unknown>
     542: 00 00        	<unknown>
     544: c4 08        	<unknown>
     546: 00 80        	<unknown>
     548: 00 00        	<unknown>
     54a: 00 00        	<unknown>
     54c: 00 00        	<unknown>
     54e: 02 00        	<unknown>
     550: e9 00        	<unknown>
     552: 00 00        	<unknown>
     554: c4 08        	<unknown>
     556: 00 80        	<unknown>
     558: 00 00        	<unknown>
     55a: 00 00        	<unknown>
     55c: 00 00        	<unknown>
     55e: 02 00        	<unknown>
     560: 00 00        	<unknown>
     562: 00 00        	<unknown>
     564: 3c 09        	<unknown>
     566: 00 80        	<unknown>
     568: 00 00        	<unknown>
     56a: 00 00        	<unknown>
     56c: 00 00        	<unknown>
     56e: 02 00        	<unknown>
     570: 00 00        	<unknown>
     572: 00 00        	<unknown>
     574: 3c 09        	<unknown>
     576: 00 80        	<unknown>
     578: 00 00        	<unknown>
     57a: 00 00        	<unknown>
     57c: 00 00        	<unknown>
     57e: 02 00        	<unknown>
     580: ef 00 00 00  	jal	0x580 <.symtab+0x580>
     584: 3c 09        	<unknown>
     586: 00 80        	<unknown>
     588: 00 00        	<unknown>
     58a: 00 00        	<unknown>
     58c: 00 00        	<unknown>
     58e: 02 00        	<unknown>
     590: 00 00        	<unknown>
     592: 00 00        	<unknown>
     594: c8 09        	<unknown>
     596: 00 80        	<unknown>
     598: 00 00        	<unknown>
     59a: 00 00        	<unknown>
     59c: 00 00        	<unknown>
     59e: 02 00        	<unknown>
     5a0: 00 00        	<unknown>
     5a2: 00 00        	<unknown>
     5a4: c8 09        	<unknown>
     5a6: 00 80        	<unknown>
     5a8: 00 00        	<unknown>
     5aa: 00 00        	<unknown>
     5ac: 00 00        	<unknown>
     5ae: 02 00        	<unknown>
     5b0: f5 00        	<unknown>
     5b2: 00 00        	<unknown>
     5b4: c8 09        	<unknown>
     5b6: 00 80        	<unknown>
     5b8: 00 00        	<unknown>
     5ba: 00 00        	<unknown>
     5bc: 00 00        	<unknown>
     5be: 02 00        	<unknown>
     5c0: 00 00        	<unknown>
     5c2: 00 00        	<unknown>
     5c4: b0 0a        	<unknown>
     5c6: 00 80        	<unknown>
     5c8: 00 00        	<unknown>
     5ca: 00 00        	<unknown>
     5cc: 00 00        	<unknown>
     5ce: 02 00        	<unknown>
     5d0: 00 00        	<unknown>
     5d2: 00 00        	<unknown>
     5d4: b0 0a        	<unknown>
     5d6: 00 80        	<unknown>
     5d8: 00 00        	<unknown>
     5da: 00 00        	<unknown>
     5dc: 00 00        	<unknown>
     5de: 02 00        	<unknown>
     5e0: fb 00 00 00  	<unknown>
     5e4: b0 0a        	<unknown>
     5e6: 00 80        	<unknown>
     5e8: 00 00        	<unknown>
     5ea: 00 00        	<unknown>
     5ec: 00 00        	<unknown>
     5ee: 02 00        	<unknown>
     5f0: 00 00        	<unknown>
     5f2: 00 00        	<unknown>
     5f4: 70 0b        	<unknown>
     5f6: 00 80        	<unknown>
     5f8: 00 00        	<unknown>
     5fa: 00 00        	<unknown>
     5fc: 00 00        	<unknown>
     5fe: 02 00        	<unknown>
     600: 00 00        	<unknown>
     602: 00 00        	<unknown>
     604: 70 0b        	<unknown>
     606: 00 80        	<unknown>
     608: 00 00        	<unknown>
     60a: 00 00        	<unknown>
     60c: 00 00        	<unknown>
     60e: 02 00        	<unknown>
     610: 01 01        	<unknown>
     612: 00 00        	<unknown>
     614: 70 0b        	<unknown>
     616: 00 80        	<unknown>
     618: 00 00        	<unknown>
     61a: 00 00        	<unknown>
     61c: 00 00        	<unknown>
     61e: 02 00        	<unknown>
     620: 00 00        	<unknown>
     622: 00 00        	<unknown>
     624: 10 0c        	<unknown>
     626: 00 80        	<unknown>
     628: 00 00        	<unknown>
     62a: 00 00        	<unknown>
     62c: 00 00        	<unknown>
     62e: 02 00        	<unknown>
     630: 07 01 00 00  	<unknown>
     634: e4 ac        	<unknown>
     636: 00 80        	<unknown>
     638: 60 00        	<unknown>
     63a: 00 00        	<unknown>
     63c: 01 00        	<unknown>
     63e: 09 00        	<unknown>
     640: 00 00        	<unknown>
     642: 00 00        	<unknown>
     644: 10 0c        	<unknown>
     646: 00 80        	<unknown>
     648: 00 00        	<unknown>
     64a: 00 00        	<unknown>
     64c: 00 00        	<unknown>
     64e: 02 00        	<unknown>
     650: 14 01        	<unknown>
     652: 00 00        	<unknown>
     654: 10 0c        	<unknown>
     656: 00 80        	<unknown>
     658: 00 00        	<unknown>
     65a: 00 00        	<unknown>
     65c: 00 00        	<unknown>
     65e: 02 00        	<unknown>
     660: 00 00        	<unknown>
     662: 00 00        	<unknown>
     664: 5c 0d        	<unknown>
     666: 00 80        	<unknown>
     668: 00 00        	<unknown>
     66a: 00 00        	<unknown>
     66c: 00 00        	<unknown>
     66e: 02 00        	<unknown>
     670: 1a 01        	<unknown>
     672: 00 00        	<unknown>
     674: e4 ac        	<unknown>
     676: 00 80        	<unknown>
     678: 00 00        	<unknown>
     67a: 00 00        	<unknown>
     67c: 00 00        	<unknown>
     67e: 09 00        	<unknown>
     680: 20 01        	<unknown>
     682: 00 00        	<unknown>
     684: 67 00 00 00  	jr	zero <.symtab>
     688: 00 00        	<unknown>
     68a: 00 00        	<unknown>
     68c: 00 00        	<unknown>
     68e: 0a 00        	<unknown>
     690: 26 01        	<unknown>
		...
     69e: 0b 00 2c 01  	<unknown>
     6a2: 00 00        	<unknown>
     6a4: 64 98        	<unknown>
     6a6: 00 80        	<unknown>
     6a8: 00 00        	<unknown>
     6aa: 00 00        	<unknown>
     6ac: 00 00        	<unknown>
     6ae: 04 00        	<unknown>
     6b0: 32 01        	<unknown>
		...
     6ba: 00 00        	<unknown>
     6bc: 04 00        	<unknown>
     6be: f1 ff        	<unknown>
     6c0: 0e 00        	<unknown>
     6c2: 00 00        	<unknown>
     6c4: c8 0d        	<unknown>
     6c6: 00 80        	<unknown>
     6c8: 00 00        	<unknown>
     6ca: 00 00        	<unknown>
     6cc: 00 00        	<unknown>
     6ce: 02 00        	<unknown>
     6d0: 0e 00        	<unknown>
     6d2: 00 00        	<unknown>
     6d4: 0c 0e        	<unknown>
     6d6: 00 80        	<unknown>
     6d8: 00 00        	<unknown>
     6da: 00 00        	<unknown>
     6dc: 00 00        	<unknown>
     6de: 02 00        	<unknown>
     6e0: 0e 00        	<unknown>
     6e2: 00 00        	<unknown>
     6e4: a0 0e        	<unknown>
     6e6: 00 80        	<unknown>
     6e8: 00 00        	<unknown>
     6ea: 00 00        	<unknown>
     6ec: 00 00        	<unknown>
     6ee: 02 00        	<unknown>
     6f0: 40 01        	<unknown>
		...
     6fa: 00 00        	<unknown>
     6fc: 04 00        	<unknown>
     6fe: f1 ff        	<unknown>
     700: 0e 00        	<unknown>
     702: 00 00        	<unknown>
     704: fc 0e        	<unknown>
     706: 00 80        	<unknown>
     708: 00 00        	<unknown>
     70a: 00 00        	<unknown>
     70c: 00 00        	<unknown>
     70e: 02 00        	<unknown>
     710: 4d 01        	<unknown>
		...
     71a: 00 00        	<unknown>
     71c: 04 00        	<unknown>
     71e: f1 ff        	<unknown>
     720: 58 01        	<unknown>
     722: 00 00        	<unknown>
     724: 14 0f        	<unknown>
     726: 00 80        	<unknown>
     728: fc 00        	<unknown>
     72a: 00 00        	<unknown>
     72c: 02 00        	<unknown>
     72e: 02 00        	<unknown>
     730: 0e 00        	<unknown>
     732: 00 00        	<unknown>
     734: 14 0f        	<unknown>
     736: 00 80        	<unknown>
     738: 00 00        	<unknown>
     73a: 00 00        	<unknown>
     73c: 00 00        	<unknown>
     73e: 02 00        	<unknown>
     740: 68 01        	<unknown>
     742: 00 00        	<unknown>
     744: 10 10        	<unknown>
     746: 00 80        	<unknown>
     748: 14 00        	<unknown>
     74a: 00 00        	<unknown>
     74c: 02 00        	<unknown>
     74e: 02 00        	<unknown>
     750: 0e 00        	<unknown>
     752: 00 00        	<unknown>
     754: 10 10        	<unknown>
     756: 00 80        	<unknown>
     758: 00 00        	<unknown>
     75a: 00 00        	<unknown>
     75c: 00 00        	<unknown>
     75e: 02 00        	<unknown>
     760: 82 01        	<unknown>
     762: 00 00        	<unknown>
     764: 24 10        	<unknown>
     766: 00 80        	<unknown>
     768: 24 00        	<unknown>
     76a: 00 00        	<unknown>
     76c: 02 00        	<unknown>
     76e: 02 00        	<unknown>
     770: 0e 00        	<unknown>
     772: 00 00        	<unknown>
     774: 24 10        	<unknown>
     776: 00 80        	<unknown>
     778: 00 00        	<unknown>
     77a: 00 00        	<unknown>
     77c: 00 00        	<unknown>
     77e: 02 00        	<unknown>
     780: 97 01 00 00  	auipc	gp, 0x0
     784: 48 10        	<unknown>
     786: 00 80        	<unknown>
     788: 1c 01        	<unknown>
     78a: 00 00        	<unknown>
     78c: 02 00        	<unknown>
     78e: 02 00        	<unknown>
     790: 0e 00        	<unknown>
     792: 00 00        	<unknown>
     794: 48 10        	<unknown>
     796: 00 80        	<unknown>
     798: 00 00        	<unknown>
     79a: 00 00        	<unknown>
     79c: 00 00        	<unknown>
     79e: 02 00        	<unknown>
     7a0: ad 01        	<unknown>
     7a2: 00 00        	<unknown>
     7a4: 64 11        	<unknown>
     7a6: 00 80        	<unknown>
     7a8: 4c 00        	<unknown>
     7aa: 00 00        	<unknown>
     7ac: 02 00        	<unknown>
     7ae: 02 00        	<unknown>
     7b0: 0e 00        	<unknown>
     7b2: 00 00        	<unknown>
     7b4: 64 11        	<unknown>
     7b6: 00 80        	<unknown>
     7b8: 00 00        	<unknown>
     7ba: 00 00        	<unknown>
     7bc: 00 00        	<unknown>
     7be: 02 00        	<unknown>
     7c0: 0e 00        	<unknown>
     7c2: 00 00        	<unknown>
     7c4: b0 11        	<unknown>
     7c6: 00 80        	<unknown>
     7c8: 00 00        	<unknown>
     7ca: 00 00        	<unknown>
     7cc: 00 00        	<unknown>
     7ce: 02 00        	<unknown>
     7d0: c8 01        	<unknown>
		...
     7da: 00 00        	<unknown>
     7dc: 04 00        	<unknown>
     7de: f1 ff        	<unknown>
     7e0: 0e 00        	<unknown>
     7e2: 00 00        	<unknown>
     7e4: d0 15        	<unknown>
     7e6: 00 80        	<unknown>
     7e8: 00 00        	<unknown>
     7ea: 00 00        	<unknown>
     7ec: 00 00        	<unknown>
     7ee: 02 00        	<unknown>
     7f0: d2 01        	<unknown>
		...
     7fa: 00 00        	<unknown>
     7fc: 04 00        	<unknown>
     7fe: f1 ff        	<unknown>
     800: dd 01        	<unknown>
     802: 00 00        	<unknown>
     804: d0 17        	<unknown>
     806: 00 80        	<unknown>
     808: 34 00        	<unknown>
     80a: 00 00        	<unknown>
     80c: 02 00        	<unknown>
     80e: 02 00        	<unknown>
     810: 0e 00        	<unknown>
     812: 00 00        	<unknown>
     814: d0 17        	<unknown>
     816: 00 80        	<unknown>
     818: 00 00        	<unknown>
     81a: 00 00        	<unknown>
     81c: 00 00        	<unknown>
     81e: 02 00        	<unknown>
     820: 0e 00        	<unknown>
     822: 00 00        	<unknown>
     824: 04 18        	<unknown>
     826: 00 80        	<unknown>
     828: 00 00        	<unknown>
     82a: 00 00        	<unknown>
     82c: 00 00        	<unknown>
     82e: 02 00        	<unknown>
     830: ea 01        	<unknown>
		...
     83a: 00 00        	<unknown>
     83c: 04 00        	<unknown>
     83e: f1 ff        	<unknown>
     840: 0e 00        	<unknown>
     842: 00 00        	<unknown>
     844: 64 18        	<unknown>
     846: 00 80        	<unknown>
     848: 00 00        	<unknown>
     84a: 00 00        	<unknown>
     84c: 00 00        	<unknown>
     84e: 02 00        	<unknown>
     850: f8 01        	<unknown>
     852: 00 00        	<unknown>
     854: 98 18        	<unknown>
     856: 00 80        	<unknown>
     858: 00 00        	<unknown>
     85a: 00 00        	<unknown>
     85c: 00 00        	<unknown>
     85e: 02 00        	<unknown>
     860: 03 02 00 00  	lb	tp, 0x0(zero)
     864: b0 18        	<unknown>
     866: 00 80        	<unknown>
     868: 00 00        	<unknown>
     86a: 00 00        	<unknown>
     86c: 00 00        	<unknown>
     86e: 02 00        	<unknown>
     870: 0e 02        	<unknown>
		...
     87a: 00 00        	<unknown>
     87c: 04 00        	<unknown>
     87e: f1 ff        	<unknown>
     880: 1b 02 00 00  	<unknown>
     884: e0 18        	<unknown>
     886: 00 80        	<unknown>
     888: 04 00        	<unknown>
     88a: 00 00        	<unknown>
     88c: 02 00        	<unknown>
     88e: 02 00        	<unknown>
     890: 0e 00        	<unknown>
     892: 00 00        	<unknown>
     894: e0 18        	<unknown>
     896: 00 80        	<unknown>
     898: 00 00        	<unknown>
     89a: 00 00        	<unknown>
     89c: 00 00        	<unknown>
     89e: 02 00        	<unknown>
     8a0: 25 02        	<unknown>
     8a2: 00 00        	<unknown>
     8a4: e4 18        	<unknown>
     8a6: 00 80        	<unknown>
     8a8: 2c 01        	<unknown>
     8aa: 00 00        	<unknown>
     8ac: 02 00        	<unknown>
     8ae: 02 00        	<unknown>
     8b0: 0e 00        	<unknown>
     8b2: 00 00        	<unknown>
     8b4: e4 18        	<unknown>
     8b6: 00 80        	<unknown>
     8b8: 00 00        	<unknown>
     8ba: 00 00        	<unknown>
     8bc: 00 00        	<unknown>
     8be: 02 00        	<unknown>
     8c0: 2e 02        	<unknown>
     8c2: 00 00        	<unknown>
     8c4: 10 1a        	<unknown>
     8c6: 00 80        	<unknown>
     8c8: 34 03        	<unknown>
     8ca: 00 00        	<unknown>
     8cc: 02 00        	<unknown>
     8ce: 02 00        	<unknown>
     8d0: 0e 00        	<unknown>
     8d2: 00 00        	<unknown>
     8d4: 10 1a        	<unknown>
     8d6: 00 80        	<unknown>
     8d8: 00 00        	<unknown>
     8da: 00 00        	<unknown>
     8dc: 00 00        	<unknown>
     8de: 02 00        	<unknown>
     8e0: 3b 02 00 00  	<unknown>
     8e4: 44 1d        	<unknown>
     8e6: 00 80        	<unknown>
     8e8: 0c 00        	<unknown>
     8ea: 00 00        	<unknown>
     8ec: 02 00        	<unknown>
     8ee: 02 00        	<unknown>
     8f0: 0e 00        	<unknown>
     8f2: 00 00        	<unknown>
     8f4: 44 1d        	<unknown>
     8f6: 00 80        	<unknown>
     8f8: 00 00        	<unknown>
     8fa: 00 00        	<unknown>
     8fc: 00 00        	<unknown>
     8fe: 02 00        	<unknown>
     900: 45 02        	<unknown>
     902: 00 00        	<unknown>
     904: 50 1d        	<unknown>
     906: 00 80        	<unknown>
     908: 98 06        	<unknown>
     90a: 00 00        	<unknown>
     90c: 02 00        	<unknown>
     90e: 02 00        	<unknown>
     910: 0e 00        	<unknown>
     912: 00 00        	<unknown>
     914: 50 1d        	<unknown>
     916: 00 80        	<unknown>
     918: 00 00        	<unknown>
     91a: 00 00        	<unknown>
     91c: 00 00        	<unknown>
     91e: 02 00        	<unknown>
     920: 4b 02 00 00  	fnmsub.s	ft4, ft0, ft0, ft0, rne
     924: e8 23        	<unknown>
     926: 00 80        	<unknown>
     928: 60 06        	<unknown>
     92a: 00 00        	<unknown>
     92c: 02 00        	<unknown>
     92e: 02 00        	<unknown>
     930: 0e 00        	<unknown>
     932: 00 00        	<unknown>
     934: e8 23        	<unknown>
     936: 00 80        	<unknown>
     938: 00 00        	<unknown>
     93a: 00 00        	<unknown>
     93c: 00 00        	<unknown>
     93e: 02 00        	<unknown>
     940: 51 02        	<unknown>
     942: 00 00        	<unknown>
     944: f0 8c        	<unknown>
     946: 00 80        	<unknown>
     948: 50 00        	<unknown>
     94a: 00 00        	<unknown>
     94c: 01 00        	<unknown>
     94e: 03 00 59 02  	lb	zero, 0x25(s2)
     952: 00 00        	<unknown>
     954: 48 2a        	<unknown>
     956: 00 80        	<unknown>
     958: d4 0d        	<unknown>
     95a: 00 00        	<unknown>
     95c: 02 00        	<unknown>
     95e: 02 00        	<unknown>
     960: 0e 00        	<unknown>
     962: 00 00        	<unknown>
     964: 48 2a        	<unknown>
     966: 00 80        	<unknown>
     968: 00 00        	<unknown>
     96a: 00 00        	<unknown>
     96c: 00 00        	<unknown>
     96e: 02 00        	<unknown>
     970: 0e 00        	<unknown>
     972: 00 00        	<unknown>
     974: 1c 38        	<unknown>
     976: 00 80        	<unknown>
     978: 00 00        	<unknown>
     97a: 00 00        	<unknown>
     97c: 00 00        	<unknown>
     97e: 02 00        	<unknown>
     980: 64 02        	<unknown>
		...
     98a: 00 00        	<unknown>
     98c: 04 00        	<unknown>
     98e: f1 ff        	<unknown>
     990: 6c 00        	<unknown>
     992: 00 00        	<unknown>
     994: 9c 38        	<unknown>
     996: 00 80        	<unknown>
     998: 00 00        	<unknown>
     99a: 00 00        	<unknown>
     99c: 00 00        	<unknown>
     99e: 02 00        	<unknown>
     9a0: 6b 02 00 00  	<unknown>
     9a4: 67 00 00 00  	jr	zero <.symtab>
     9a8: 00 00        	<unknown>
     9aa: 00 00        	<unknown>
     9ac: 00 00        	<unknown>
     9ae: 0a 00        	<unknown>
     9b0: 70 02        	<unknown>
     9b2: 00 00        	<unknown>
     9b4: 76 02        	<unknown>
		...
     9be: 0b 00 75 02  	<unknown>
		...
     9ca: 00 00        	<unknown>
     9cc: 04 00        	<unknown>
     9ce: f1 ff        	<unknown>
     9d0: 6c 00        	<unknown>
     9d2: 00 00        	<unknown>
     9d4: 64 3d        	<unknown>
     9d6: 00 80        	<unknown>
     9d8: 00 00        	<unknown>
     9da: 00 00        	<unknown>
     9dc: 00 00        	<unknown>
     9de: 02 00        	<unknown>
     9e0: 6b 02 00 00  	<unknown>
     9e4: 67 00 00 00  	jr	zero <.symtab>
     9e8: 00 00        	<unknown>
     9ea: 00 00        	<unknown>
     9ec: 00 00        	<unknown>
     9ee: 0a 00        	<unknown>
     9f0: 70 02        	<unknown>
     9f2: 00 00        	<unknown>
     9f4: b4 02        	<unknown>
		...
     9fe: 0b 00 7e 02  	<unknown>
		...
     a0a: 00 00        	<unknown>
     a0c: 04 00        	<unknown>
     a0e: f1 ff        	<unknown>
     a10: 6c 00        	<unknown>
     a12: 00 00        	<unknown>
     a14: a0 42        	<unknown>
     a16: 00 80        	<unknown>
     a18: 00 00        	<unknown>
     a1a: 00 00        	<unknown>
     a1c: 00 00        	<unknown>
     a1e: 02 00        	<unknown>
     a20: 6b 02 00 00  	<unknown>
     a24: 67 00 00 00  	jr	zero <.symtab>
     a28: 00 00        	<unknown>
     a2a: 00 00        	<unknown>
     a2c: 00 00        	<unknown>
     a2e: 0a 00        	<unknown>
     a30: 70 02        	<unknown>
     a32: 00 00        	<unknown>
     a34: f2 02        	<unknown>
		...
     a3e: 0b 00 87 02  	<unknown>
		...
     a4a: 00 00        	<unknown>
     a4c: 04 00        	<unknown>
     a4e: f1 ff        	<unknown>
     a50: 6c 00        	<unknown>
     a52: 00 00        	<unknown>
     a54: 14 44        	<unknown>
     a56: 00 80        	<unknown>
     a58: 00 00        	<unknown>
     a5a: 00 00        	<unknown>
     a5c: 00 00        	<unknown>
     a5e: 02 00        	<unknown>
     a60: 6b 02 00 00  	<unknown>
     a64: 67 00 00 00  	jr	zero <.symtab>
     a68: 00 00        	<unknown>
     a6a: 00 00        	<unknown>
     a6c: 00 00        	<unknown>
     a6e: 0a 00        	<unknown>
     a70: 70 02        	<unknown>
     a72: 00 00        	<unknown>
     a74: 30 03        	<unknown>
		...
     a7e: 0b 00 91 02  	<unknown>
		...
     a8a: 00 00        	<unknown>
     a8c: 04 00        	<unknown>
     a8e: f1 ff        	<unknown>
     a90: 6c 00        	<unknown>
     a92: 00 00        	<unknown>
     a94: 58 45        	<unknown>
     a96: 00 80        	<unknown>
     a98: 00 00        	<unknown>
     a9a: 00 00        	<unknown>
     a9c: 00 00        	<unknown>
     a9e: 02 00        	<unknown>
     aa0: 6b 02 00 00  	<unknown>
     aa4: 67 00 00 00  	jr	zero <.symtab>
     aa8: 00 00        	<unknown>
     aaa: 00 00        	<unknown>
     aac: 00 00        	<unknown>
     aae: 0a 00        	<unknown>
     ab0: 70 02        	<unknown>
     ab2: 00 00        	<unknown>
     ab4: 6e 03        	<unknown>
		...
     abe: 0b 00 9f 02  	<unknown>
		...
     aca: 00 00        	<unknown>
     acc: 04 00        	<unknown>
     ace: f1 ff        	<unknown>
     ad0: 6c 00        	<unknown>
     ad2: 00 00        	<unknown>
     ad4: 20 49        	<unknown>
     ad6: 00 80        	<unknown>
     ad8: 00 00        	<unknown>
     ada: 00 00        	<unknown>
     adc: 00 00        	<unknown>
     ade: 02 00        	<unknown>
     ae0: 6b 02 00 00  	<unknown>
     ae4: 67 00 00 00  	jr	zero <.symtab>
     ae8: 00 00        	<unknown>
     aea: 00 00        	<unknown>
     aec: 00 00        	<unknown>
     aee: 0a 00        	<unknown>
     af0: 70 02        	<unknown>
     af2: 00 00        	<unknown>
     af4: ac 03        	<unknown>
		...
     afe: 0b 00 a9 02  	<unknown>
		...
     b0a: 00 00        	<unknown>
     b0c: 04 00        	<unknown>
     b0e: f1 ff        	<unknown>
     b10: 6c 00        	<unknown>
     b12: 00 00        	<unknown>
     b14: 90 4a        	<unknown>
     b16: 00 80        	<unknown>
     b18: 00 00        	<unknown>
     b1a: 00 00        	<unknown>
     b1c: 00 00        	<unknown>
     b1e: 02 00        	<unknown>
     b20: bc 02        	<unknown>
     b22: 00 00        	<unknown>
     b24: 40 8d        	<unknown>
     b26: 00 80        	<unknown>
     b28: 10 00        	<unknown>
     b2a: 00 00        	<unknown>
     b2c: 01 00        	<unknown>
     b2e: 03 00 c4 02  	lb	zero, 0x2c(s0)
     b32: 00 00        	<unknown>
     b34: 50 8d        	<unknown>
     b36: 00 80        	<unknown>
     b38: c8 0a        	<unknown>
     b3a: 00 00        	<unknown>
     b3c: 01 00        	<unknown>
     b3e: 03 00 ca 02  	lb	zero, 0x2c(s4)
     b42: 00 00        	<unknown>
     b44: 18 98        	<unknown>
     b46: 00 80        	<unknown>
     b48: 40 00        	<unknown>
     b4a: 00 00        	<unknown>
     b4c: 01 00        	<unknown>
     b4e: 03 00 6b 02  	lb	zero, 0x26(s6)
     b52: 00 00        	<unknown>
     b54: 40 8d        	<unknown>
     b56: 00 80        	<unknown>
     b58: 00 00        	<unknown>
     b5a: 00 00        	<unknown>
     b5c: 00 00        	<unknown>
     b5e: 03 00 70 02  	lb	zero, 0x27(zero)
     b62: 00 00        	<unknown>
     b64: 50 8d        	<unknown>
     b66: 00 80        	<unknown>
     b68: 00 00        	<unknown>
     b6a: 00 00        	<unknown>
     b6c: 00 00        	<unknown>
     b6e: 03 00 7b 00  	lb	zero, 0x7(s6)
     b72: 00 00        	<unknown>
     b74: 18 98        	<unknown>
     b76: 00 80        	<unknown>
     b78: 00 00        	<unknown>
     b7a: 00 00        	<unknown>
     b7c: 00 00        	<unknown>
     b7e: 03 00 80 00  	lb	zero, 0x8(zero)
     b82: 00 00        	<unknown>
     b84: 67 00 00 00  	jr	zero <.symtab>
     b88: 00 00        	<unknown>
     b8a: 00 00        	<unknown>
     b8c: 00 00        	<unknown>
     b8e: 0a 00        	<unknown>
     b90: cf 02 00 00  	fnmadd.s	ft5, ft0, ft0, ft0, rne
     b94: ea 03        	<unknown>
		...
     b9e: 0b 00 d4 02  	<unknown>
		...
     baa: 00 00        	<unknown>
     bac: 04 00        	<unknown>
     bae: f1 ff        	<unknown>
     bb0: 6c 00        	<unknown>
     bb2: 00 00        	<unknown>
     bb4: 74 59        	<unknown>
     bb6: 00 80        	<unknown>
     bb8: 00 00        	<unknown>
     bba: 00 00        	<unknown>
     bbc: 00 00        	<unknown>
     bbe: 02 00        	<unknown>
     bc0: 6b 02 00 00  	<unknown>
     bc4: 67 00 00 00  	jr	zero <.symtab>
     bc8: 00 00        	<unknown>
     bca: 00 00        	<unknown>
     bcc: 00 00        	<unknown>
     bce: 0a 00        	<unknown>
     bd0: 70 02        	<unknown>
     bd2: 00 00        	<unknown>
     bd4: 28 04        	<unknown>
		...
     bde: 0b 00 dc 02  	<unknown>
		...
     bea: 00 00        	<unknown>
     bec: 04 00        	<unknown>
     bee: f1 ff        	<unknown>
     bf0: 6c 00        	<unknown>
     bf2: 00 00        	<unknown>
     bf4: 58 5b        	<unknown>
     bf6: 00 80        	<unknown>
     bf8: 00 00        	<unknown>
     bfa: 00 00        	<unknown>
     bfc: 00 00        	<unknown>
     bfe: 02 00        	<unknown>
     c00: 6b 02 00 00  	<unknown>
     c04: 67 00 00 00  	jr	zero <.symtab>
     c08: 00 00        	<unknown>
     c0a: 00 00        	<unknown>
     c0c: 00 00        	<unknown>
     c0e: 0a 00        	<unknown>
     c10: 70 02        	<unknown>
     c12: 00 00        	<unknown>
     c14: 66 04        	<unknown>
		...
     c1e: 0b 00 e5 02  	<unknown>
		...
     c2a: 00 00        	<unknown>
     c2c: 04 00        	<unknown>
     c2e: f1 ff        	<unknown>
     c30: 00 00        	<unknown>
     c32: 00 00        	<unknown>
     c34: a4 5c        	<unknown>
     c36: 00 80        	<unknown>
     c38: 00 00        	<unknown>
     c3a: 00 00        	<unknown>
     c3c: 00 00        	<unknown>
     c3e: 02 00        	<unknown>
     c40: 6c 00        	<unknown>
     c42: 00 00        	<unknown>
     c44: a4 5c        	<unknown>
     c46: 00 80        	<unknown>
     c48: 00 00        	<unknown>
     c4a: 00 00        	<unknown>
     c4c: 00 00        	<unknown>
     c4e: 02 00        	<unknown>
     c50: 00 00        	<unknown>
     c52: 00 00        	<unknown>
     c54: e4 67        	<unknown>
     c56: 00 80        	<unknown>
     c58: 00 00        	<unknown>
     c5a: 00 00        	<unknown>
     c5c: 00 00        	<unknown>
     c5e: 02 00        	<unknown>
     c60: 6b 02 00 00  	<unknown>
     c64: 67 00 00 00  	jr	zero <.symtab>
     c68: 00 00        	<unknown>
     c6a: 00 00        	<unknown>
     c6c: 00 00        	<unknown>
     c6e: 0a 00        	<unknown>
     c70: 70 02        	<unknown>
     c72: 00 00        	<unknown>
     c74: a4 04        	<unknown>
		...
     c7e: 0b 00 7b 00  	<unknown>
     c82: 00 00        	<unknown>
     c84: 50 98        	<unknown>
     c86: 00 80        	<unknown>
     c88: 00 00        	<unknown>
     c8a: 00 00        	<unknown>
     c8c: 00 00        	<unknown>
     c8e: 04 00        	<unknown>
     c90: ee 02        	<unknown>
		...
     c9a: 00 00        	<unknown>
     c9c: 04 00        	<unknown>
     c9e: f1 ff        	<unknown>
     ca0: 00 00        	<unknown>
     ca2: 00 00        	<unknown>
     ca4: e4 67        	<unknown>
     ca6: 00 80        	<unknown>
     ca8: 00 00        	<unknown>
     caa: 00 00        	<unknown>
     cac: 00 00        	<unknown>
     cae: 02 00        	<unknown>
     cb0: 6c 00        	<unknown>
     cb2: 00 00        	<unknown>
     cb4: e4 67        	<unknown>
     cb6: 00 80        	<unknown>
     cb8: 00 00        	<unknown>
     cba: 00 00        	<unknown>
     cbc: 00 00        	<unknown>
     cbe: 02 00        	<unknown>
     cc0: 00 00        	<unknown>
     cc2: 00 00        	<unknown>
     cc4: dc 68        	<unknown>
     cc6: 00 80        	<unknown>
     cc8: 00 00        	<unknown>
     cca: 00 00        	<unknown>
     ccc: 00 00        	<unknown>
     cce: 02 00        	<unknown>
     cd0: 00 00        	<unknown>
     cd2: 00 00        	<unknown>
     cd4: dc 68        	<unknown>
     cd6: 00 80        	<unknown>
     cd8: 00 00        	<unknown>
     cda: 00 00        	<unknown>
     cdc: 00 00        	<unknown>
     cde: 02 00        	<unknown>
     ce0: 71 00        	<unknown>
     ce2: 00 00        	<unknown>
     ce4: dc 68        	<unknown>
     ce6: 00 80        	<unknown>
     ce8: 00 00        	<unknown>
     cea: 00 00        	<unknown>
     cec: 00 00        	<unknown>
     cee: 02 00        	<unknown>
     cf0: 00 00        	<unknown>
     cf2: 00 00        	<unknown>
     cf4: d4 69        	<unknown>
     cf6: 00 80        	<unknown>
     cf8: 00 00        	<unknown>
     cfa: 00 00        	<unknown>
     cfc: 00 00        	<unknown>
     cfe: 02 00        	<unknown>
     d00: 7b 00 00 00  	<unknown>
     d04: 67 00 00 00  	jr	zero <.symtab>
     d08: 00 00        	<unknown>
     d0a: 00 00        	<unknown>
     d0c: 00 00        	<unknown>
     d0e: 0a 00        	<unknown>
     d10: 80 00        	<unknown>
     d12: 00 00        	<unknown>
     d14: e2 04        	<unknown>
		...
     d1e: 0b 00 cf 02  	<unknown>
     d22: 00 00        	<unknown>
     d24: 3c 98        	<unknown>
     d26: 00 80        	<unknown>
     d28: 00 00        	<unknown>
     d2a: 00 00        	<unknown>
     d2c: 00 00        	<unknown>
     d2e: 04 00        	<unknown>
     d30: fb 02 00 00  	<unknown>
		...
     d3c: 04 00        	<unknown>
     d3e: f1 ff        	<unknown>
     d40: 00 00        	<unknown>
     d42: 00 00        	<unknown>
     d44: d4 69        	<unknown>
     d46: 00 80        	<unknown>
     d48: 00 00        	<unknown>
     d4a: 00 00        	<unknown>
     d4c: 00 00        	<unknown>
     d4e: 02 00        	<unknown>
     d50: 6c 00        	<unknown>
     d52: 00 00        	<unknown>
     d54: d4 69        	<unknown>
     d56: 00 80        	<unknown>
     d58: 00 00        	<unknown>
     d5a: 00 00        	<unknown>
     d5c: 00 00        	<unknown>
     d5e: 02 00        	<unknown>
     d60: 00 00        	<unknown>
     d62: 00 00        	<unknown>
     d64: d0 73        	<unknown>
     d66: 00 80        	<unknown>
     d68: 00 00        	<unknown>
     d6a: 00 00        	<unknown>
     d6c: 00 00        	<unknown>
     d6e: 02 00        	<unknown>
     d70: 6b 02 00 00  	<unknown>
     d74: 67 00 00 00  	jr	zero <.symtab>
     d78: 00 00        	<unknown>
     d7a: 00 00        	<unknown>
     d7c: 00 00        	<unknown>
     d7e: 0a 00        	<unknown>
     d80: 70 02        	<unknown>
     d82: 00 00        	<unknown>
     d84: 20 05        	<unknown>
		...
     d8e: 0b 00 7b 00  	<unknown>
     d92: 00 00        	<unknown>
     d94: 14 98        	<unknown>
     d96: 00 80        	<unknown>
     d98: 00 00        	<unknown>
     d9a: 00 00        	<unknown>
     d9c: 00 00        	<unknown>
     d9e: 04 00        	<unknown>
     da0: 04 03        	<unknown>
		...
     daa: 00 00        	<unknown>
     dac: 04 00        	<unknown>
     dae: f1 ff        	<unknown>
     db0: 00 00        	<unknown>
     db2: 00 00        	<unknown>
     db4: d0 73        	<unknown>
     db6: 00 80        	<unknown>
     db8: 00 00        	<unknown>
     dba: 00 00        	<unknown>
     dbc: 00 00        	<unknown>
     dbe: 02 00        	<unknown>
     dc0: 6c 00        	<unknown>
     dc2: 00 00        	<unknown>
     dc4: d0 73        	<unknown>
     dc6: 00 80        	<unknown>
     dc8: 00 00        	<unknown>
     dca: 00 00        	<unknown>
     dcc: 00 00        	<unknown>
     dce: 02 00        	<unknown>
     dd0: 00 00        	<unknown>
     dd2: 00 00        	<unknown>
     dd4: 40 75        	<unknown>
     dd6: 00 80        	<unknown>
     dd8: 00 00        	<unknown>
     dda: 00 00        	<unknown>
     ddc: 00 00        	<unknown>
     dde: 02 00        	<unknown>
     de0: 6b 02 00 00  	<unknown>
     de4: 67 00 00 00  	jr	zero <.symtab>
     de8: 00 00        	<unknown>
     dea: 00 00        	<unknown>
     dec: 00 00        	<unknown>
     dee: 0a 00        	<unknown>
     df0: 70 02        	<unknown>
     df2: 00 00        	<unknown>
     df4: 5e 05        	<unknown>
		...
     dfe: 0b 00 7b 00  	<unknown>
     e02: 00 00        	<unknown>
     e04: 00 98        	<unknown>
     e06: 00 80        	<unknown>
     e08: 00 00        	<unknown>
     e0a: 00 00        	<unknown>
     e0c: 00 00        	<unknown>
     e0e: 04 00        	<unknown>
     e10: 12 03        	<unknown>
		...
     e1a: 00 00        	<unknown>
     e1c: 04 00        	<unknown>
     e1e: f1 ff        	<unknown>
     e20: 00 00        	<unknown>
     e22: 00 00        	<unknown>
     e24: 40 75        	<unknown>
     e26: 00 80        	<unknown>
     e28: 00 00        	<unknown>
     e2a: 00 00        	<unknown>
     e2c: 00 00        	<unknown>
     e2e: 02 00        	<unknown>
     e30: 6c 00        	<unknown>
     e32: 00 00        	<unknown>
     e34: 40 75        	<unknown>
     e36: 00 80        	<unknown>
     e38: 00 00        	<unknown>
     e3a: 00 00        	<unknown>
     e3c: 00 00        	<unknown>
     e3e: 02 00        	<unknown>
     e40: 00 00        	<unknown>
     e42: 00 00        	<unknown>
     e44: 14 76        	<unknown>
     e46: 00 80        	<unknown>
     e48: 00 00        	<unknown>
     e4a: 00 00        	<unknown>
     e4c: 00 00        	<unknown>
     e4e: 02 00        	<unknown>
     e50: 6b 02 00 00  	<unknown>
     e54: 67 00 00 00  	jr	zero <.symtab>
     e58: 00 00        	<unknown>
     e5a: 00 00        	<unknown>
     e5c: 00 00        	<unknown>
     e5e: 0a 00        	<unknown>
     e60: 70 02        	<unknown>
     e62: 00 00        	<unknown>
     e64: 9c 05        	<unknown>
		...
     e6e: 0b 00 7b 00  	<unknown>
     e72: 00 00        	<unknown>
     e74: ec 97        	<unknown>
     e76: 00 80        	<unknown>
     e78: 00 00        	<unknown>
     e7a: 00 00        	<unknown>
     e7c: 00 00        	<unknown>
     e7e: 04 00        	<unknown>
     e80: 1c 03        	<unknown>
		...
     e8a: 00 00        	<unknown>
     e8c: 04 00        	<unknown>
     e8e: f1 ff        	<unknown>
     e90: 00 00        	<unknown>
     e92: 00 00        	<unknown>
     e94: 14 76        	<unknown>
     e96: 00 80        	<unknown>
     e98: 00 00        	<unknown>
     e9a: 00 00        	<unknown>
     e9c: 00 00        	<unknown>
     e9e: 02 00        	<unknown>
     ea0: 6c 00        	<unknown>
     ea2: 00 00        	<unknown>
     ea4: 14 76        	<unknown>
     ea6: 00 80        	<unknown>
     ea8: 00 00        	<unknown>
     eaa: 00 00        	<unknown>
     eac: 00 00        	<unknown>
     eae: 02 00        	<unknown>
     eb0: 00 00        	<unknown>
     eb2: 00 00        	<unknown>
     eb4: b4 76        	<unknown>
     eb6: 00 80        	<unknown>
     eb8: 00 00        	<unknown>
     eba: 00 00        	<unknown>
     ebc: 00 00        	<unknown>
     ebe: 02 00        	<unknown>
     ec0: 6b 02 00 00  	<unknown>
     ec4: 67 00 00 00  	jr	zero <.symtab>
     ec8: 00 00        	<unknown>
     eca: 00 00        	<unknown>
     ecc: 00 00        	<unknown>
     ece: 0a 00        	<unknown>
     ed0: 70 02        	<unknown>
     ed2: 00 00        	<unknown>
     ed4: da 05        	<unknown>
		...
     ede: 0b 00 7b 00  	<unknown>
     ee2: 00 00        	<unknown>
     ee4: d8 97        	<unknown>
     ee6: 00 80        	<unknown>
     ee8: 00 00        	<unknown>
     eea: 00 00        	<unknown>
     eec: 00 00        	<unknown>
     eee: 04 00        	<unknown>
     ef0: 29 03        	<unknown>
		...
     efa: 00 00        	<unknown>
     efc: 04 00        	<unknown>
     efe: f1 ff        	<unknown>
     f00: 00 00        	<unknown>
     f02: 00 00        	<unknown>
     f04: b4 76        	<unknown>
     f06: 00 80        	<unknown>
     f08: 00 00        	<unknown>
     f0a: 00 00        	<unknown>
     f0c: 00 00        	<unknown>
     f0e: 02 00        	<unknown>
     f10: 6c 00        	<unknown>
     f12: 00 00        	<unknown>
     f14: b4 76        	<unknown>
     f16: 00 80        	<unknown>
     f18: 00 00        	<unknown>
     f1a: 00 00        	<unknown>
     f1c: 00 00        	<unknown>
     f1e: 02 00        	<unknown>
     f20: 00 00        	<unknown>
     f22: 00 00        	<unknown>
     f24: b8 77        	<unknown>
     f26: 00 80        	<unknown>
     f28: 00 00        	<unknown>
     f2a: 00 00        	<unknown>
     f2c: 00 00        	<unknown>
     f2e: 02 00        	<unknown>
     f30: 6b 02 00 00  	<unknown>
     f34: 67 00 00 00  	jr	zero <.symtab>
     f38: 00 00        	<unknown>
     f3a: 00 00        	<unknown>
     f3c: 00 00        	<unknown>
     f3e: 0a 00        	<unknown>
     f40: 70 02        	<unknown>
     f42: 00 00        	<unknown>
     f44: 18 06        	<unknown>
		...
     f4e: 0b 00 7b 00  	<unknown>
     f52: 00 00        	<unknown>
     f54: c4 97        	<unknown>
     f56: 00 80        	<unknown>
     f58: 00 00        	<unknown>
     f5a: 00 00        	<unknown>
     f5c: 00 00        	<unknown>
     f5e: 04 00        	<unknown>
     f60: 35 03        	<unknown>
		...
     f6a: 00 00        	<unknown>
     f6c: 04 00        	<unknown>
     f6e: f1 ff        	<unknown>
     f70: 00 00        	<unknown>
     f72: 00 00        	<unknown>
     f74: b8 77        	<unknown>
     f76: 00 80        	<unknown>
     f78: 00 00        	<unknown>
     f7a: 00 00        	<unknown>
     f7c: 00 00        	<unknown>
     f7e: 02 00        	<unknown>
     f80: 6c 00        	<unknown>
     f82: 00 00        	<unknown>
     f84: b8 77        	<unknown>
     f86: 00 80        	<unknown>
     f88: 00 00        	<unknown>
     f8a: 00 00        	<unknown>
     f8c: 00 00        	<unknown>
     f8e: 02 00        	<unknown>
     f90: 00 00        	<unknown>
     f92: 00 00        	<unknown>
     f94: a4 78        	<unknown>
     f96: 00 80        	<unknown>
     f98: 00 00        	<unknown>
     f9a: 00 00        	<unknown>
     f9c: 00 00        	<unknown>
     f9e: 02 00        	<unknown>
     fa0: 6b 02 00 00  	<unknown>
     fa4: 67 00 00 00  	jr	zero <.symtab>
     fa8: 00 00        	<unknown>
     faa: 00 00        	<unknown>
     fac: 00 00        	<unknown>
     fae: 0a 00        	<unknown>
     fb0: 70 02        	<unknown>
     fb2: 00 00        	<unknown>
     fb4: 56 06        	<unknown>
		...
     fbe: 0b 00 7b 00  	<unknown>
     fc2: 00 00        	<unknown>
     fc4: b0 97        	<unknown>
     fc6: 00 80        	<unknown>
     fc8: 00 00        	<unknown>
     fca: 00 00        	<unknown>
     fcc: 00 00        	<unknown>
     fce: 04 00        	<unknown>
     fd0: 43 03 00 00  	fmadd.s	ft6, ft0, ft0, ft0, rne
		...
     fdc: 04 00        	<unknown>
     fde: f1 ff        	<unknown>
     fe0: 00 00        	<unknown>
     fe2: 00 00        	<unknown>
     fe4: a4 78        	<unknown>
     fe6: 00 80        	<unknown>
     fe8: 00 00        	<unknown>
     fea: 00 00        	<unknown>
     fec: 00 00        	<unknown>
     fee: 02 00        	<unknown>
     ff0: 6c 00        	<unknown>
     ff2: 00 00        	<unknown>
     ff4: a4 78        	<unknown>
     ff6: 00 80        	<unknown>
     ff8: 00 00        	<unknown>
     ffa: 00 00        	<unknown>
     ffc: 00 00        	<unknown>
     ffe: 02 00        	<unknown>
    1000: 00 00        	<unknown>
    1002: 00 00        	<unknown>
    1004: 90 81        	<unknown>
    1006: 00 80        	<unknown>
    1008: 00 00        	<unknown>
    100a: 00 00        	<unknown>
    100c: 00 00        	<unknown>
    100e: 02 00        	<unknown>
    1010: 6b 02 00 00  	<unknown>
    1014: 67 00 00 00  	jr	zero <.symtab>
    1018: 00 00        	<unknown>
    101a: 00 00        	<unknown>
    101c: 00 00        	<unknown>
    101e: 0a 00        	<unknown>
    1020: 70 02        	<unknown>
    1022: 00 00        	<unknown>
    1024: 94 06        	<unknown>
		...
    102e: 0b 00 7b 00  	<unknown>
    1032: 00 00        	<unknown>
    1034: 9c 97        	<unknown>
    1036: 00 80        	<unknown>
    1038: 00 00        	<unknown>
    103a: 00 00        	<unknown>
    103c: 00 00        	<unknown>
    103e: 04 00        	<unknown>
    1040: 4c 03        	<unknown>
		...
    104a: 00 00        	<unknown>
    104c: 04 00        	<unknown>
    104e: f1 ff        	<unknown>
    1050: 00 00        	<unknown>
    1052: 00 00        	<unknown>
    1054: 90 81        	<unknown>
    1056: 00 80        	<unknown>
