
kernel.elf:	file format elf32-littleriscv

Disassembly of section .init:

80000000 <_start>:
80000000: f3 22 10 fc  	csrr	t0, nw
80000004: 17 03 00 00  	auipc	t1, 0x0
80000008: 13 03 43 28  	addi	t1, t1, 0x284
8000000c: 0b 90 62 00  	vx_wspawn	t0, t1
80000010: 93 02 f0 ff  	li	t0, -0x1
80000014: 0b 80 02 00  	vx_tmc	t0
80000018: ef 00 00 24  	jal	0x80000258 <init_regs>
8000001c: 93 02 10 00  	li	t0, 0x1
80000020: 0b 80 02 00  	vx_tmc	t0
80000024: f3 22 10 fc  	csrr	t0, nw
80000028: 17 03 00 00  	auipc	t1, 0x0
8000002c: 13 03 43 27  	addi	t1, t1, 0x274
80000030: 0b 90 62 00  	vx_wspawn	t0, t1
80000034: 93 02 f0 ff  	li	t0, -0x1
80000038: 0b 80 02 00  	vx_tmc	t0
8000003c: ef 00 40 27  	jal	0x800002b0 <__init_tls>
80000040: 93 02 10 00  	li	t0, 0x1
80000044: 0b 80 02 00  	vx_tmc	t0
80000048: 17 75 00 00  	auipc	a0, 0x7
8000004c: 13 05 05 31  	addi	a0, a0, 0x310
80000050: 17 76 00 00  	auipc	a2, 0x7
80000054: 13 06 46 32  	addi	a2, a2, 0x324
80000058: 33 06 a6 40  	sub	a2, a2, a0
8000005c: 93 05 00 00  	li	a1, 0x0
80000060: ef 30 00 26  	jal	0x800032c0 <memset>
80000064: ef 00 00 29  	jal	0x800002f4 <__libc_init_array>
80000068: ef 00 00 1c  	jal	0x80000228 <main>
8000006c: 6f 00 40 00  	j	0x80000070 <exit>

Disassembly of section .text:

80000070 <exit>:
80000070: 13 01 01 ff  	addi	sp, sp, -0x10
80000074: 23 26 11 00  	sw	ra, 0xc(sp)
80000078: 23 24 81 00  	sw	s0, 0x8(sp)
8000007c: 13 04 05 00  	mv	s0, a0
80000080: ef 00 80 30  	jal	0x80000388 <__funcs_on_exit>
80000084: ef 20 50 4b  	jal	0x80002d38 <libc_exit_fini>
80000088: ef 20 d0 4a  	jal	0x80002d34 <dummy>
8000008c: 13 05 04 00  	mv	a0, s0
80000090: ef 00 40 1b  	jal	0x80000244 <_Exit>

80000094 <_Z11kernel_bodyP12kernel_arg_t>:
80000094: 13 01 01 ff  	addi	sp, sp, -0x10
80000098: 97 75 00 00  	auipc	a1, 0x7
8000009c: 83 a5 85 21  	lw	a1, 0x218(a1)
800000a0: 23 26 a1 00  	sw	a0, 0xc(sp)
800000a4: b3 85 45 00  	add	a1, a1, tp
800000a8: 83 a6 05 00  	lw	a3, 0x0(a1)
800000ac: 03 27 85 00  	lw	a4, 0x8(a0)
800000b0: 03 25 05 01  	lw	a0, 0x10(a0)
800000b4: 93 95 26 00  	slli	a1, a3, 0x2
800000b8: b3 07 b7 00  	add	a5, a4, a1
800000bc: 03 a6 07 00  	lw	a2, 0x0(a5)
800000c0: 13 b8 26 00  	sltiu	a6, a3, 0x2
800000c4: 93 48 18 00  	xori	a7, a6, 0x1
800000c8: 0b a8 18 00  	vx_split_n	a6, a7
800000cc: 63 8e 08 00  	beqz	a7, 0x800000e8 <_Z11kernel_bodyP12kernel_arg_t+0x54>
800000d0: 93 88 e6 ff  	addi	a7, a3, -0x2
800000d4: 93 b8 18 00  	seqz	a7, a7
800000d8: 8b a2 18 00  	vx_split_n	t0, a7
800000dc: 63 84 08 02  	beqz	a7, 0x80000104 <_Z11kernel_bodyP12kernel_arg_t+0x70>
800000e0: 93 08 76 00  	addi	a7, a2, 0x7
800000e4: 6f 00 00 04  	j	0x80000124 <_Z11kernel_bodyP12kernel_arg_t+0x90>
800000e8: 93 88 f6 ff  	addi	a7, a3, -0x1
800000ec: 93 b8 18 00  	seqz	a7, a7
800000f0: 8b a2 18 00  	vx_split_n	t0, a7
800000f4: 63 88 08 10  	beqz	a7, 0x80000204 <_Z11kernel_bodyP12kernel_arg_t+0x170>
800000f8: 93 08 66 00  	addi	a7, a2, 0x6
800000fc: 0b b0 02 00  	vx_join	t0
80000100: 6f 00 80 02  	j	0x80000128 <_Z11kernel_bodyP12kernel_arg_t+0x94>
80000104: 93 08 86 00  	addi	a7, a2, 0x8
80000108: 37 03 00 80  	lui	t1, 0x80000
8000010c: 13 03 e3 ff  	addi	t1, t1, -0x2
80000110: 33 33 d3 00  	sltu	t1, t1, a3
80000114: b3 f8 68 0e  	czero.nez	a7, a7, t1
80000118: 93 03 60 00  	li	t2, 0x6
8000011c: 33 d3 63 0e  	czero.eqz	t1, t2, t1
80000120: b3 68 13 01  	or	a7, t1, a7
80000124: 0b b0 02 00  	vx_join	t0
80000128: 0b 30 08 00  	vx_join	a6
8000012c: 13 88 78 00  	addi	a6, a7, 0x7
80000130: b3 22 d0 00  	sgtz	t0, a3
80000134: 8b a8 12 00  	vx_split_n	a7, t0
80000138: 63 84 02 02  	beqz	t0, 0x80000160 <_Z11kernel_bodyP12kernel_arg_t+0xcc>
8000013c: f3 22 40 cc  	csrr	t0, tmask
80000140: 13 03 07 00  	mv	t1, a4
80000144: 83 23 03 00  	lw	t2, 0x0(t1)
80000148: 33 88 03 01  	add	a6, t2, a6
8000014c: 13 03 43 00  	addi	t1, t1, 0x4
80000150: b3 43 f3 00  	xor	t2, t1, a5
80000154: 93 b3 13 00  	seqz	t2, t2
80000158: 8b d0 53 00  	vx_pred_n	t2, t0
8000015c: e3 84 03 fe  	beqz	t2, 0x80000144 <_Z11kernel_bodyP12kernel_arg_t+0xb0>
80000160: 0b b0 08 00  	vx_join	a7
80000164: 93 a8 26 00  	slti	a7, a3, 0x2
80000168: 8b a7 18 00  	vx_split_n	a5, a7
8000016c: 63 8e 08 00  	beqz	a7, 0x80000188 <_Z11kernel_bodyP12kernel_arg_t+0xf4>
80000170: 93 a2 16 00  	slti	t0, a3, 0x1
80000174: 8b a8 12 00  	vx_split_n	a7, t0
80000178: 63 86 02 02  	beqz	t0, 0x800001a4 <_Z11kernel_bodyP12kernel_arg_t+0x110>
8000017c: 93 b2 16 00  	seqz	t0, a3
80000180: 33 08 58 00  	add	a6, a6, t0
80000184: 6f 00 40 02  	j	0x800001a8 <_Z11kernel_bodyP12kernel_arg_t+0x114>
80000188: 93 a2 36 00  	slti	t0, a3, 0x3
8000018c: 8b a8 12 00  	vx_split_n	a7, t0
80000190: 63 80 02 08  	beqz	t0, 0x80000210 <_Z11kernel_bodyP12kernel_arg_t+0x17c>
80000194: 93 12 18 00  	slli	t0, a6, 0x1
80000198: 33 88 02 01  	add	a6, t0, a6
8000019c: 0b b0 08 00  	vx_join	a7
800001a0: 6f 00 c0 00  	j	0x800001ac <_Z11kernel_bodyP12kernel_arg_t+0x118>
800001a4: 13 08 f8 ff  	addi	a6, a6, -0x1
800001a8: 0b b0 08 00  	vx_join	a7
800001ac: 0b b0 07 00  	vx_join	a5
800001b0: 93 b7 66 00  	sltiu	a5, a3, 0x6
800001b4: 93 c8 17 00  	xori	a7, a5, 0x1
800001b8: 8b a7 18 00  	vx_split_n	a5, a7
800001bc: 63 84 08 00  	beqz	a7, 0x800001c4 <_Z11kernel_bodyP12kernel_arg_t+0x130>
800001c0: 83 26 07 00  	lw	a3, 0x0(a4)
800001c4: 0b b0 07 00  	vx_join	a5
800001c8: b3 86 06 01  	add	a3, a3, a6
800001cc: 33 a7 c6 00  	slt	a4, a3, a2
800001d0: b3 d7 e6 0e  	czero.eqz	a5, a3, a4
800001d4: 33 77 e6 0e  	czero.nez	a4, a2, a4
800001d8: 33 e7 e7 00  	or	a4, a5, a4
800001dc: b3 06 d7 00  	add	a3, a4, a3
800001e0: 33 a7 c6 00  	slt	a4, a3, a2
800001e4: b3 f7 e6 0e  	czero.nez	a5, a3, a4
800001e8: 33 56 e6 0e  	czero.eqz	a2, a2, a4
800001ec: 33 66 f6 00  	or	a2, a2, a5
800001f0: 33 06 d6 00  	add	a2, a2, a3
800001f4: 33 05 b5 00  	add	a0, a0, a1
800001f8: 23 20 c5 00  	sw	a2, 0x0(a0)
800001fc: 13 01 01 01  	addi	sp, sp, 0x10
80000200: 67 80 00 00  	ret
80000204: 93 08 56 00  	addi	a7, a2, 0x5
80000208: 0b b0 02 00  	vx_join	t0
8000020c: 6f f0 df f1  	j	0x80000128 <_Z11kernel_bodyP12kernel_arg_t+0x94>
80000210: 93 82 d6 ff  	addi	t0, a3, -0x3
80000214: 13 13 28 00  	slli	t1, a6, 0x2
80000218: b3 72 53 0e  	czero.nez	t0, t1, t0
8000021c: 33 08 58 00  	add	a6, a6, t0
80000220: 0b b0 08 00  	vx_join	a7
80000224: 6f f0 9f f8  	j	0x800001ac <_Z11kernel_bodyP12kernel_arg_t+0x118>

80000228 <main>:
80000228: f3 25 00 34  	csrr	a1, mscratch
8000022c: 17 05 00 00  	auipc	a0, 0x0
80000230: 93 06 85 e6  	addi	a3, a0, -0x198
80000234: 13 05 10 00  	li	a0, 0x1
80000238: 13 06 00 00  	li	a2, 0x0
8000023c: 13 87 05 00  	mv	a4, a1
80000240: 6f 00 80 45  	j	0x80000698 <vx_spawn_threads>

80000244 <_Exit>:
80000244: ef 00 50 07  	jal	0x80000ab8 <vx_perf_dump>
80000248: 93 02 80 08  	li	t0, 0x88
8000024c: 23 a0 a2 00  	sw	a0, 0x0(t0)
80000250: 0f 00 f0 0f  	fence
80000254: 0b 00 00 00  	vx_tmc	zero

80000258 <init_regs>:
80000258: 97 81 00 00  	auipc	gp, 0x8
8000025c: 93 81 c1 84  	addi	gp, gp, -0x7b4
80000260: 37 01 ff ff  	lui	sp, 0xffff0
80000264: f3 22 40 f1  	csrr	t0, mhartid
80000268: 13 93 d2 00  	slli	t1, t0, 0xd
8000026c: 33 01 61 40  	sub	sp, sp, t1
80000270: 13 03 c0 01  	li	t1, 0x1c
80000274: b3 82 62 02  	mul	t0, t0, t1
80000278: 17 72 00 00  	auipc	tp, 0x7
8000027c: 13 02 c2 0f  	addi	tp, tp, 0xfc
80000280: 33 02 52 00  	add	tp, tp, t0
80000284: 67 80 00 00  	ret

80000288 <init_regs_all>:
80000288: 93 02 f0 ff  	li	t0, -0x1
8000028c: 0b 80 02 00  	vx_tmc	t0
80000290: ef f0 9f fc  	jal	0x80000258 <init_regs>
80000294: 0b 00 00 00  	vx_tmc	zero
80000298: 67 80 00 00  	ret

8000029c <init_tls_all>:
8000029c: 93 02 f0 ff  	li	t0, -0x1
800002a0: 0b 80 02 00  	vx_tmc	t0
800002a4: ef 00 c0 00  	jal	0x800002b0 <__init_tls>
800002a8: 0b 00 00 00  	vx_tmc	zero
800002ac: 67 80 00 00  	ret

800002b0 <__init_tls>:
800002b0: 13 01 01 ff  	addi	sp, sp, -0x10
800002b4: 13 06 00 00  	li	a2, 0x0
800002b8: 97 75 00 00  	auipc	a1, 0x7
800002bc: 93 85 c5 fe  	addi	a1, a1, -0x14
800002c0: 13 05 02 00  	mv	a0, tp
800002c4: 23 24 81 00  	sw	s0, 0x8(sp)
800002c8: 23 26 11 00  	sw	ra, 0xc(sp)
800002cc: 13 04 02 00  	mv	s0, tp
800002d0: ef 20 50 2b  	jal	0x80002d84 <memcpy>
800002d4: 13 05 00 00  	li	a0, 0x0
800002d8: 33 05 a4 00  	add	a0, s0, a0
800002dc: 03 24 81 00  	lw	s0, 0x8(sp)
800002e0: 83 20 c1 00  	lw	ra, 0xc(sp)
800002e4: 13 06 c0 01  	li	a2, 0x1c
800002e8: 93 05 00 00  	li	a1, 0x0
800002ec: 13 01 01 01  	addi	sp, sp, 0x10
800002f0: 6f 20 10 7d  	j	0x800032c0 <memset>

800002f4 <__libc_init_array>:
800002f4: 13 01 01 ff  	addi	sp, sp, -0x10
800002f8: 23 24 81 00  	sw	s0, 0x8(sp)
800002fc: 23 20 21 01  	sw	s2, 0x0(sp)
80000300: 97 77 00 00  	auipc	a5, 0x7
80000304: 93 87 47 fa  	addi	a5, a5, -0x5c
80000308: 17 74 00 00  	auipc	s0, 0x7
8000030c: 13 04 c4 f9  	addi	s0, s0, -0x64
80000310: 23 26 11 00  	sw	ra, 0xc(sp)
80000314: 23 22 91 00  	sw	s1, 0x4(sp)
80000318: 33 89 87 40  	sub	s2, a5, s0
8000031c: 63 80 87 02  	beq	a5, s0, 0x8000033c <__libc_init_array+0x48>
80000320: 13 59 29 40  	srai	s2, s2, 0x2
80000324: 93 04 00 00  	li	s1, 0x0
80000328: 83 27 04 00  	lw	a5, 0x0(s0)
8000032c: 93 84 14 00  	addi	s1, s1, 0x1
80000330: 13 04 44 00  	addi	s0, s0, 0x4
80000334: e7 80 07 00  	jalr	a5
80000338: e3 e8 24 ff  	bltu	s1, s2, 0x80000328 <__libc_init_array+0x34>
8000033c: 97 77 00 00  	auipc	a5, 0x7
80000340: 93 87 87 f6  	addi	a5, a5, -0x98
80000344: 17 74 00 00  	auipc	s0, 0x7
80000348: 13 04 04 f6  	addi	s0, s0, -0xa0
8000034c: 33 89 87 40  	sub	s2, a5, s0
80000350: 13 59 29 40  	srai	s2, s2, 0x2
80000354: 63 8e 87 00  	beq	a5, s0, 0x80000370 <__libc_init_array+0x7c>
80000358: 93 04 00 00  	li	s1, 0x0
8000035c: 83 27 04 00  	lw	a5, 0x0(s0)
80000360: 93 84 14 00  	addi	s1, s1, 0x1
80000364: 13 04 44 00  	addi	s0, s0, 0x4
80000368: e7 80 07 00  	jalr	a5
8000036c: e3 e8 24 ff  	bltu	s1, s2, 0x8000035c <__libc_init_array+0x68>
80000370: 83 20 c1 00  	lw	ra, 0xc(sp)
80000374: 03 24 81 00  	lw	s0, 0x8(sp)
80000378: 83 24 41 00  	lw	s1, 0x4(sp)
8000037c: 03 29 01 00  	lw	s2, 0x0(sp)
80000380: 13 01 01 01  	addi	sp, sp, 0x10
80000384: 67 80 00 00  	ret

80000388 <__funcs_on_exit>:
80000388: 13 01 01 ff  	addi	sp, sp, -0x10
8000038c: 23 24 81 00  	sw	s0, 0x8(sp)
80000390: 97 77 00 00  	auipc	a5, 0x7
80000394: 93 87 47 f1  	addi	a5, a5, -0xec
80000398: 17 74 00 00  	auipc	s0, 0x7
8000039c: 13 04 c4 f0  	addi	s0, s0, -0xf4
800003a0: 33 04 f4 40  	sub	s0, s0, a5
800003a4: 23 22 91 00  	sw	s1, 0x4(sp)
800003a8: 23 26 11 00  	sw	ra, 0xc(sp)
800003ac: 93 54 24 40  	srai	s1, s0, 0x2
800003b0: 63 80 04 02  	beqz	s1, 0x800003d0 <__funcs_on_exit+0x48>
800003b4: 13 04 c4 ff  	addi	s0, s0, -0x4
800003b8: 33 04 f4 00  	add	s0, s0, a5
800003bc: 83 27 04 00  	lw	a5, 0x0(s0)
800003c0: 93 84 f4 ff  	addi	s1, s1, -0x1
800003c4: 13 04 c4 ff  	addi	s0, s0, -0x4
800003c8: e7 80 07 00  	jalr	a5
800003cc: e3 98 04 fe  	bnez	s1, 0x800003bc <__funcs_on_exit+0x34>
800003d0: 83 20 c1 00  	lw	ra, 0xc(sp)
800003d4: 03 24 81 00  	lw	s0, 0x8(sp)
800003d8: 83 24 41 00  	lw	s1, 0x4(sp)
800003dc: 13 01 01 01  	addi	sp, sp, 0x10
800003e0: 67 80 00 00  	ret

800003e4 <vx_putchar>:
800003e4: f3 22 40 f1  	csrr	t0, mhartid
800003e8: 93 f2 f2 03  	andi	t0, t0, 0x3f
800003ec: 13 03 00 04  	li	t1, 0x40
800003f0: b3 82 62 00  	add	t0, t0, t1
800003f4: 23 80 a2 00  	sb	a0, 0x0(t0)
800003f8: 67 80 00 00  	ret

800003fc <process_threads>:
800003fc: 13 01 01 fe  	addi	sp, sp, -0x20
80000400: 23 2e 11 00  	sw	ra, 0x1c(sp)
80000404: 23 2c 81 00  	sw	s0, 0x18(sp)
80000408: 23 2a 91 00  	sw	s1, 0x14(sp)
8000040c: 23 28 21 01  	sw	s2, 0x10(sp)
80000410: 23 26 31 01  	sw	s3, 0xc(sp)
80000414: 23 24 41 01  	sw	s4, 0x8(sp)
80000418: 23 22 51 01  	sw	s5, 0x4(sp)
8000041c: 23 20 61 01  	sw	s6, 0x0(sp)
80000420: 73 27 00 34  	csrr	a4, mscratch
80000424: 73 29 00 fc  	csrr	s2, nt
80000428: f3 26 10 cc  	csrr	a3, wid
8000042c: 73 26 00 cc  	csrr	a2, tid
80000430: 83 25 07 01  	lw	a1, 0x10(a4)
80000434: 83 27 47 01  	lw	a5, 0x14(a4)
80000438: 13 85 06 00  	mv	a0, a3
8000043c: 33 84 d5 02  	mul	s0, a1, a3
80000440: 63 e4 f6 00  	bltu	a3, a5, 0x80000448 <process_threads+0x4c>
80000444: 13 85 07 00  	mv	a0, a5
80000448: b3 b9 f6 00  	sltu	s3, a3, a5
8000044c: 33 04 a4 00  	add	s0, s0, a0
80000450: b3 89 b9 00  	add	s3, s3, a1
80000454: 83 27 87 00  	lw	a5, 0x8(a4)
80000458: 03 2a 07 00  	lw	s4, 0x0(a4)
8000045c: 83 2a 47 00  	lw	s5, 0x4(a4)
80000460: b3 06 f6 00  	add	a3, a2, a5
80000464: 33 04 24 03  	mul	s0, s0, s2
80000468: 93 07 42 00  	addi	a5, tp, 0x4
8000046c: 23 20 02 00  	sw	zero, 0x0(tp)
80000470: 23 a0 07 00  	sw	zero, 0x0(a5)
80000474: 23 a2 07 00  	sw	zero, 0x4(a5)
80000478: 23 a4 07 00  	sw	zero, 0x8(a5)
8000047c: b3 89 29 03  	mul	s3, s3, s2
80000480: 33 04 d4 00  	add	s0, s0, a3
80000484: b3 89 89 00  	add	s3, s3, s0
80000488: 63 74 34 05  	bgeu	s0, s3, 0x800004d0 <process_threads+0xd4>
8000048c: 17 7b 00 00  	auipc	s6, 0x7
80000490: 13 0b cb ed  	addi	s6, s6, -0x124
80000494: 93 04 02 01  	addi	s1, tp, 0x10
80000498: 83 27 0b 00  	lw	a5, 0x0(s6)
8000049c: 03 26 4b 00  	lw	a2, 0x4(s6)
800004a0: 13 85 0a 00  	mv	a0, s5
800004a4: 33 57 f4 02  	divu	a4, s0, a5
800004a8: b3 86 c7 02  	mul	a3, a5, a2
800004ac: b3 77 f4 02  	remu	a5, s0, a5
800004b0: b3 56 d4 02  	divu	a3, s0, a3
800004b4: 23 a0 f4 00  	sw	a5, 0x0(s1)
800004b8: 33 04 24 01  	add	s0, s0, s2
800004bc: b3 77 c7 02  	remu	a5, a4, a2
800004c0: 23 a4 d4 00  	sw	a3, 0x8(s1)
800004c4: 23 a2 f4 00  	sw	a5, 0x4(s1)
800004c8: e7 00 0a 00  	jalr	s4
800004cc: e3 66 34 fd  	bltu	s0, s3, 0x80000498 <process_threads+0x9c>
800004d0: 83 20 c1 01  	lw	ra, 0x1c(sp)
800004d4: 03 24 81 01  	lw	s0, 0x18(sp)
800004d8: 83 24 41 01  	lw	s1, 0x14(sp)
800004dc: 03 29 01 01  	lw	s2, 0x10(sp)
800004e0: 83 29 c1 00  	lw	s3, 0xc(sp)
800004e4: 03 2a 81 00  	lw	s4, 0x8(sp)
800004e8: 83 2a 41 00  	lw	s5, 0x4(sp)
800004ec: 03 2b 01 00  	lw	s6, 0x0(sp)
800004f0: 13 01 01 02  	addi	sp, sp, 0x20
800004f4: 67 80 00 00  	ret

800004f8 <process_remaining_threads>:
800004f8: f3 27 00 34  	csrr	a5, mscratch
800004fc: 73 27 00 cc  	csrr	a4, tid
80000500: 03 a7 07 00  	lw	a4, 0x0(a5)
80000504: 03 a5 47 00  	lw	a0, 0x4(a5)
80000508: 67 00 07 00  	jr	a4

8000050c <process_threads_stub>:
8000050c: 13 01 01 ff  	addi	sp, sp, -0x10
80000510: 23 26 11 00  	sw	ra, 0xc(sp)
80000514: 93 07 f0 ff  	li	a5, -0x1
80000518: 0b 80 07 00  	vx_tmc	a5
8000051c: ef f0 1f ee  	jal	0x800003fc <process_threads>
80000520: 0b 00 00 00  	vx_tmc	zero
80000524: 83 20 c1 00  	lw	ra, 0xc(sp)
80000528: 13 01 01 01  	addi	sp, sp, 0x10
8000052c: 67 80 00 00  	ret

80000530 <process_thread_groups>:
80000530: 13 01 01 fe  	addi	sp, sp, -0x20
80000534: 23 2e 11 00  	sw	ra, 0x1c(sp)
80000538: 23 2c 81 00  	sw	s0, 0x18(sp)
8000053c: 23 2a 91 00  	sw	s1, 0x14(sp)
80000540: 23 28 21 01  	sw	s2, 0x10(sp)
80000544: 23 26 31 01  	sw	s3, 0xc(sp)
80000548: 23 24 41 01  	sw	s4, 0x8(sp)
8000054c: 23 22 51 01  	sw	s5, 0x4(sp)
80000550: 23 20 61 01  	sw	s6, 0x0(sp)
80000554: f3 26 00 34  	csrr	a3, mscratch
80000558: 73 2e 00 fc  	csrr	t3, nt
8000055c: 73 26 10 cc  	csrr	a2, wid
80000560: 73 23 00 cc  	csrr	t1, tid
80000564: 83 a8 46 01  	lw	a7, 0x14(a3)
80000568: 17 77 00 00  	auipc	a4, 0x7
8000056c: 13 07 47 df  	addi	a4, a4, -0x20c
80000570: 83 25 07 00  	lw	a1, 0x0(a4)
80000574: b3 77 16 03  	remu	a5, a2, a7
80000578: 03 aa 06 00  	lw	s4, 0x0(a3)
8000057c: 03 28 47 00  	lw	a6, 0x4(a4)
80000580: 03 a4 86 00  	lw	s0, 0x8(a3)
80000584: 03 a7 c6 00  	lw	a4, 0xc(a3)
80000588: 83 aa 46 00  	lw	s5, 0x4(a3)
8000058c: 03 a9 06 01  	lw	s2, 0x10(a3)
80000590: 83 a9 86 01  	lw	s3, 0x18(a3)
80000594: 33 39 26 01  	sltu	s2, a2, s2
80000598: 33 09 e9 00  	add	s2, s2, a4
8000059c: 13 07 42 00  	addi	a4, tp, 0x4
800005a0: b3 87 c7 03  	mul	a5, a5, t3
800005a4: b3 87 67 00  	add	a5, a5, t1
800005a8: b3 d6 b7 02  	divu	a3, a5, a1
800005ac: 33 83 05 03  	mul	t1, a1, a6
800005b0: 33 56 16 03  	divu	a2, a2, a7
800005b4: b3 f5 b7 02  	remu	a1, a5, a1
800005b8: 33 04 86 00  	add	s0, a2, s0
800005bc: 23 20 c2 00  	sw	a2, 0x0(tp)
800005c0: b3 f6 06 03  	remu	a3, a3, a6
800005c4: 23 20 b7 00  	sw	a1, 0x0(a4)
800005c8: b3 d7 67 02  	divu	a5, a5, t1
800005cc: 23 22 d7 00  	sw	a3, 0x4(a4)
800005d0: 33 09 39 03  	mul	s2, s2, s3
800005d4: 23 24 f7 00  	sw	a5, 0x8(a4)
800005d8: 33 09 89 00  	add	s2, s2, s0
800005dc: 63 74 24 05  	bgeu	s0, s2, 0x80000624 <process_thread_groups+0xf4>
800005e0: 17 7b 00 00  	auipc	s6, 0x7
800005e4: 13 0b 8b d8  	addi	s6, s6, -0x278
800005e8: 93 04 02 01  	addi	s1, tp, 0x10
800005ec: 83 27 0b 00  	lw	a5, 0x0(s6)
800005f0: 03 26 4b 00  	lw	a2, 0x4(s6)
800005f4: 13 85 0a 00  	mv	a0, s5
800005f8: 33 57 f4 02  	divu	a4, s0, a5
800005fc: b3 86 c7 02  	mul	a3, a5, a2
80000600: b3 77 f4 02  	remu	a5, s0, a5
80000604: b3 56 d4 02  	divu	a3, s0, a3
80000608: 23 a0 f4 00  	sw	a5, 0x0(s1)
8000060c: 33 04 34 01  	add	s0, s0, s3
80000610: b3 77 c7 02  	remu	a5, a4, a2
80000614: 23 a4 d4 00  	sw	a3, 0x8(s1)
80000618: 23 a2 f4 00  	sw	a5, 0x4(s1)
8000061c: e7 00 0a 00  	jalr	s4
80000620: e3 66 24 fd  	bltu	s0, s2, 0x800005ec <process_thread_groups+0xbc>
80000624: 83 20 c1 01  	lw	ra, 0x1c(sp)
80000628: 03 24 81 01  	lw	s0, 0x18(sp)
8000062c: 83 24 41 01  	lw	s1, 0x14(sp)
80000630: 03 29 01 01  	lw	s2, 0x10(sp)
80000634: 83 29 c1 00  	lw	s3, 0xc(sp)
80000638: 03 2a 81 00  	lw	s4, 0x8(sp)
8000063c: 83 2a 41 00  	lw	s5, 0x4(sp)
80000640: 03 2b 01 00  	lw	s6, 0x0(sp)
80000644: 13 01 01 02  	addi	sp, sp, 0x20
80000648: 67 80 00 00  	ret

8000064c <process_thread_groups_stub>:
8000064c: 13 01 01 ff  	addi	sp, sp, -0x10
80000650: 23 26 11 00  	sw	ra, 0xc(sp)
80000654: 73 27 00 34  	csrr	a4, mscratch
80000658: 83 27 47 01  	lw	a5, 0x14(a4)
8000065c: 03 26 c7 01  	lw	a2, 0x1c(a4)
80000660: 73 27 10 cc  	csrr	a4, wid
80000664: 33 77 f7 02  	remu	a4, a4, a5
80000668: 93 87 f7 ff  	addi	a5, a5, -0x1
8000066c: 93 06 06 00  	mv	a3, a2
80000670: 63 84 e7 00  	beq	a5, a4, 0x80000678 <process_thread_groups_stub+0x2c>
80000674: 93 06 f0 ff  	li	a3, -0x1
80000678: 0b 80 06 00  	vx_tmc	a3
8000067c: ef f0 5f eb  	jal	0x80000530 <process_thread_groups>
80000680: f3 27 10 cc  	csrr	a5, wid
80000684: 93 b7 17 00  	seqz	a5, a5
80000688: 0b 80 07 00  	vx_tmc	a5
8000068c: 83 20 c1 00  	lw	ra, 0xc(sp)
80000690: 13 01 01 01  	addi	sp, sp, 0x10
80000694: 67 80 00 00  	ret

80000698 <vx_spawn_threads>:
80000698: 13 01 01 fd  	addi	sp, sp, -0x30
8000069c: 23 26 11 02  	sw	ra, 0x2c(sp)
800006a0: 23 24 81 02  	sw	s0, 0x28(sp)
800006a4: 63 8e 05 22  	beqz	a1, 0x800008e0 <vx_spawn_threads+0x248>
800006a8: 63 0c 06 12  	beqz	a2, 0x800007e0 <vx_spawn_threads+0x148>
800006ac: 63 12 05 28  	bnez	a0, 0x80000930 <vx_spawn_threads+0x298>
800006b0: 13 06 10 00  	li	a2, 0x1
800006b4: 17 73 00 00  	auipc	t1, 0x7
800006b8: 13 03 43 cb  	addi	t1, t1, -0x34c
800006bc: 97 77 00 00  	auipc	a5, 0x7
800006c0: 93 87 07 ca  	addi	a5, a5, -0x360
800006c4: 23 20 c3 00  	sw	a2, 0x0(t1)
800006c8: 23 a0 c7 00  	sw	a2, 0x0(a5)
800006cc: 93 08 10 00  	li	a7, 0x1
800006d0: 13 08 10 00  	li	a6, 0x1
800006d4: 13 06 10 00  	li	a2, 0x1
800006d8: 23 22 c3 00  	sw	a2, 0x4(t1)
800006dc: 23 a2 c7 00  	sw	a2, 0x4(a5)
800006e0: 93 05 10 00  	li	a1, 0x1
800006e4: 13 05 10 00  	li	a0, 0x1
800006e8: 23 24 b3 00  	sw	a1, 0x8(t1)
800006ec: 23 a4 a7 00  	sw	a0, 0x8(a5)
800006f0: f3 2e 20 fc  	csrr	t4, nw
800006f4: f3 25 10 fc  	csrr	a1, nw
800006f8: f3 27 00 fc  	csrr	a5, nt
800006fc: 73 25 20 cc  	csrr	a0, cid
80000700: 33 8e f5 02  	mul	t3, a1, a5
80000704: 63 68 1e 39  	bltu	t3, a7, 0x80000a94 <vx_spawn_threads+0x3fc>
80000708: 13 03 10 00  	li	t1, 0x1
8000070c: 63 74 13 13  	bgeu	t1, a7, 0x80000834 <vx_spawn_threads+0x19c>
80000710: 33 fe f8 02  	remu	t3, a7, a5
80000714: 13 0f f0 ff  	li	t5, -0x1
80000718: 33 d6 f8 02  	divu	a2, a7, a5
8000071c: 63 08 0e 00  	beqz	t3, 0x8000072c <vx_spawn_threads+0x94>
80000720: 33 13 c3 01  	sll	t1, t1, t3
80000724: 13 0f f3 ff  	addi	t5, t1, -0x1
80000728: 13 06 16 00  	addi	a2, a2, 0x1
8000072c: 93 88 f5 ff  	addi	a7, a1, -0x1
80000730: b3 07 06 03  	mul	a5, a2, a6
80000734: b3 87 17 01  	add	a5, a5, a7
80000738: b3 d7 b7 02  	divu	a5, a5, a1
8000073c: 63 f4 fe 00  	bgeu	t4, a5, 0x80000744 <vx_spawn_threads+0xac>
80000740: 93 87 0e 00  	mv	a5, t4
80000744: 63 74 f5 08  	bgeu	a0, a5, 0x800007cc <vx_spawn_threads+0x134>
80000748: b3 78 f8 02  	remu	a7, a6, a5
8000074c: b3 57 f8 02  	divu	a5, a6, a5
80000750: 33 38 15 01  	sltu	a6, a0, a7
80000754: b3 87 07 01  	add	a5, a5, a6
80000758: 33 08 f6 02  	mul	a6, a2, a5
8000075c: 33 d3 c5 02  	divu	t1, a1, a2
80000760: 63 e6 05 23  	bltu	a1, a6, 0x8000098c <vx_spawn_threads+0x2f4>
80000764: 93 05 00 00  	li	a1, 0x0
80000768: 13 0e 10 00  	li	t3, 0x1
8000076c: 23 22 e1 00  	sw	a4, 0x4(sp)
80000770: 23 20 d1 00  	sw	a3, 0x0(sp)
80000774: 13 87 08 00  	mv	a4, a7
80000778: b3 87 a7 02  	mul	a5, a5, a0
8000077c: 63 74 15 01  	bgeu	a0, a7, 0x80000784 <vx_spawn_threads+0xec>
80000780: 13 07 05 00  	mv	a4, a0
80000784: b3 87 e7 00  	add	a5, a5, a4
80000788: 23 24 f1 00  	sw	a5, 0x8(sp)
8000078c: 23 26 c1 01  	sw	t3, 0xc(sp)
80000790: 23 28 b1 00  	sw	a1, 0x10(sp)
80000794: 23 2a c1 00  	sw	a2, 0x14(sp)
80000798: 23 2c 61 00  	sw	t1, 0x18(sp)
8000079c: 23 2e e1 01  	sw	t5, 0x1c(sp)
800007a0: 93 07 01 00  	mv	a5, sp
800007a4: 73 90 07 34  	csrw	mscratch, a5
800007a8: 97 77 00 00  	auipc	a5, 0x7
800007ac: 23 a8 c7 ba  	sw	a2, -0x450(a5)
800007b0: 97 07 00 00  	auipc	a5, 0x0
800007b4: 93 87 c7 e9  	addi	a5, a5, -0x164
800007b8: 0b 10 f8 00  	vx_wspawn	a6, a5
800007bc: ef f0 1f e9  	jal	0x8000064c <process_thread_groups_stub>
800007c0: 93 07 10 00  	li	a5, 0x1
800007c4: 13 07 00 00  	li	a4, 0x0
800007c8: 0b 90 e7 00  	vx_wspawn	a5, a4
800007cc: 13 05 00 00  	li	a0, 0x0
800007d0: 83 20 c1 02  	lw	ra, 0x2c(sp)
800007d4: 03 24 81 02  	lw	s0, 0x28(sp)
800007d8: 13 01 01 03  	addi	sp, sp, 0x30
800007dc: 67 80 00 00  	ret
800007e0: 63 02 05 20  	beqz	a0, 0x800009e4 <vx_spawn_threads+0x34c>
800007e4: 03 a8 05 00  	lw	a6, 0x0(a1)
800007e8: 17 73 00 00  	auipc	t1, 0x7
800007ec: 13 03 03 b8  	addi	t1, t1, -0x480
800007f0: 97 77 00 00  	auipc	a5, 0x7
800007f4: 93 87 c7 b6  	addi	a5, a5, -0x494
800007f8: 13 06 10 00  	li	a2, 0x1
800007fc: 23 20 03 01  	sw	a6, 0x0(t1)
80000800: 23 a0 c7 00  	sw	a2, 0x0(a5)
80000804: 63 00 c5 20  	beq	a0, a2, 0x80000a04 <vx_spawn_threads+0x36c>
80000808: 83 a8 45 00  	lw	a7, 0x4(a1)
8000080c: 13 0e 20 00  	li	t3, 0x2
80000810: 23 a2 c7 00  	sw	a2, 0x4(a5)
80000814: 23 22 13 01  	sw	a7, 0x4(t1)
80000818: 33 08 18 03  	mul	a6, a6, a7
8000081c: 63 02 c5 27  	beq	a0, t3, 0x80000a80 <vx_spawn_threads+0x3e8>
80000820: 83 a5 85 00  	lw	a1, 0x8(a1)
80000824: 33 08 b8 02  	mul	a6, a6, a1
80000828: 13 05 10 00  	li	a0, 0x1
8000082c: 93 08 10 00  	li	a7, 0x1
80000830: 6f f0 9f eb  	j	0x800006e8 <vx_spawn_threads+0x50>
80000834: 13 06 f8 ff  	addi	a2, a6, -0x1
80000838: 33 06 c6 01  	add	a2, a2, t3
8000083c: 33 56 c6 03  	divu	a2, a2, t3
80000840: 97 78 00 00  	auipc	a7, 0x7
80000844: 23 ac 08 b0  	sw	zero, -0x4e8(a7)
80000848: 63 f4 ce 00  	bgeu	t4, a2, 0x80000850 <vx_spawn_threads+0x1b8>
8000084c: 13 86 0e 00  	mv	a2, t4
80000850: e3 7e c5 f6  	bgeu	a0, a2, 0x800007cc <vx_spawn_threads+0x134>
80000854: b3 78 c8 02  	remu	a7, a6, a2
80000858: 33 58 c8 02  	divu	a6, a6, a2
8000085c: 33 36 15 01  	sltu	a2, a0, a7
80000860: 33 08 c8 00  	add	a6, a6, a2
80000864: 33 53 f8 02  	divu	t1, a6, a5
80000868: 33 74 f8 02  	remu	s0, a6, a5
8000086c: b3 87 67 02  	mul	a5, a5, t1
80000870: 63 f8 65 12  	bgeu	a1, t1, 0x800009a0 <vx_spawn_threads+0x308>
80000874: b3 5e b3 02  	divu	t4, t1, a1
80000878: 33 7e b3 02  	remu	t3, t1, a1
8000087c: 13 83 05 00  	mv	t1, a1
80000880: 13 86 08 00  	mv	a2, a7
80000884: 33 08 a8 02  	mul	a6, a6, a0
80000888: 63 74 15 01  	bgeu	a0, a7, 0x80000890 <vx_spawn_threads+0x1f8>
8000088c: 13 06 05 00  	mv	a2, a0
80000890: 33 08 c8 00  	add	a6, a6, a2
80000894: b3 87 07 01  	add	a5, a5, a6
80000898: 23 26 f1 00  	sw	a5, 0xc(sp)
8000089c: 23 20 d1 00  	sw	a3, 0x0(sp)
800008a0: 23 22 e1 00  	sw	a4, 0x4(sp)
800008a4: 23 24 01 01  	sw	a6, 0x8(sp)
800008a8: 23 28 d1 01  	sw	t4, 0x10(sp)
800008ac: 23 2a c1 01  	sw	t3, 0x14(sp)
800008b0: 93 07 01 00  	mv	a5, sp
800008b4: 73 90 07 34  	csrw	mscratch, a5
800008b8: 63 10 03 16  	bnez	t1, 0x80000a18 <vx_spawn_threads+0x380>
800008bc: e3 02 04 f0  	beqz	s0, 0x800007c0 <vx_spawn_threads+0x128>
800008c0: 93 07 10 00  	li	a5, 0x1
800008c4: b3 97 87 00  	sll	a5, a5, s0
800008c8: 93 87 f7 ff  	addi	a5, a5, -0x1
800008cc: 0b 80 07 00  	vx_tmc	a5
800008d0: ef f0 9f c2  	jal	0x800004f8 <process_remaining_threads>
800008d4: 13 05 10 00  	li	a0, 0x1
800008d8: 0b 00 05 00  	vx_tmc	a0
800008dc: 6f f0 5f ee  	j	0x800007c0 <vx_spawn_threads+0x128>
800008e0: 63 0e 06 14  	beqz	a2, 0x80000a3c <vx_spawn_threads+0x3a4>
800008e4: 63 04 05 0c  	beqz	a0, 0x800009ac <vx_spawn_threads+0x314>
800008e8: 83 28 06 00  	lw	a7, 0x0(a2)
800008ec: 17 73 00 00  	auipc	t1, 0x7
800008f0: 13 03 c3 a7  	addi	t1, t1, -0x584
800008f4: 93 05 10 00  	li	a1, 0x1
800008f8: 97 77 00 00  	auipc	a5, 0x7
800008fc: 93 87 47 a6  	addi	a5, a5, -0x59c
80000900: 23 20 b3 00  	sw	a1, 0x0(t1)
80000904: 23 a0 17 01  	sw	a7, 0x0(a5)
80000908: 63 00 b5 18  	beq	a0, a1, 0x80000a88 <vx_spawn_threads+0x3f0>
8000090c: 03 28 46 00  	lw	a6, 0x4(a2)
80000910: 13 0e 20 00  	li	t3, 0x2
80000914: 23 22 b3 00  	sw	a1, 0x4(t1)
80000918: 23 a2 07 01  	sw	a6, 0x4(a5)
8000091c: b3 88 08 03  	mul	a7, a7, a6
80000920: 63 08 c5 19  	beq	a0, t3, 0x80000ab0 <vx_spawn_threads+0x418>
80000924: 03 25 86 00  	lw	a0, 0x8(a2)
80000928: b3 88 a8 02  	mul	a7, a7, a0
8000092c: 6f 00 c0 0a  	j	0x800009d8 <vx_spawn_threads+0x340>
80000930: 03 a8 05 00  	lw	a6, 0x0(a1)
80000934: 83 28 06 00  	lw	a7, 0x0(a2)
80000938: 17 73 00 00  	auipc	t1, 0x7
8000093c: 13 03 03 a3  	addi	t1, t1, -0x5d0
80000940: 97 77 00 00  	auipc	a5, 0x7
80000944: 93 87 c7 a1  	addi	a5, a5, -0x5e4
80000948: 23 20 03 01  	sw	a6, 0x0(t1)
8000094c: 23 a0 17 01  	sw	a7, 0x0(a5)
80000950: 13 0e 10 00  	li	t3, 0x1
80000954: e3 00 c5 d9  	beq	a0, t3, 0x800006d4 <vx_spawn_threads+0x3c>
80000958: 83 ae 45 00  	lw	t4, 0x4(a1)
8000095c: 03 2e 46 00  	lw	t3, 0x4(a2)
80000960: 13 0f 20 00  	li	t5, 0x2
80000964: 23 22 d3 01  	sw	t4, 0x4(t1)
80000968: 23 a2 c7 01  	sw	t3, 0x4(a5)
8000096c: 33 08 d8 03  	mul	a6, a6, t4
80000970: b3 88 c8 03  	mul	a7, a7, t3
80000974: 63 00 e5 11  	beq	a0, t5, 0x80000a74 <vx_spawn_threads+0x3dc>
80000978: 83 a5 85 00  	lw	a1, 0x8(a1)
8000097c: 03 25 86 00  	lw	a0, 0x8(a2)
80000980: 33 08 b8 02  	mul	a6, a6, a1
80000984: b3 88 a8 02  	mul	a7, a7, a0
80000988: 6f f0 1f d6  	j	0x800006e8 <vx_spawn_threads+0x50>
8000098c: b3 0e 66 02  	mul	t4, a2, t1
80000990: 33 5e d8 03  	divu	t3, a6, t4
80000994: b3 75 d8 03  	remu	a1, a6, t4
80000998: 13 88 0e 00  	mv	a6, t4
8000099c: 6f f0 1f dd  	j	0x8000076c <vx_spawn_threads+0xd4>
800009a0: 13 0e 00 00  	li	t3, 0x0
800009a4: 93 0e 10 00  	li	t4, 0x1
800009a8: 6f f0 9f ed  	j	0x80000880 <vx_spawn_threads+0x1e8>
800009ac: 13 06 10 00  	li	a2, 0x1
800009b0: 17 73 00 00  	auipc	t1, 0x7
800009b4: 13 03 83 9b  	addi	t1, t1, -0x648
800009b8: 97 77 00 00  	auipc	a5, 0x7
800009bc: 93 87 47 9a  	addi	a5, a5, -0x65c
800009c0: 23 20 c3 00  	sw	a2, 0x0(t1)
800009c4: 23 a0 c7 00  	sw	a2, 0x0(a5)
800009c8: 23 22 c3 00  	sw	a2, 0x4(t1)
800009cc: 23 a2 c7 00  	sw	a2, 0x4(a5)
800009d0: 93 08 10 00  	li	a7, 0x1
800009d4: 13 05 10 00  	li	a0, 0x1
800009d8: 93 05 10 00  	li	a1, 0x1
800009dc: 13 08 10 00  	li	a6, 0x1
800009e0: 6f f0 9f d0  	j	0x800006e8 <vx_spawn_threads+0x50>
800009e4: 13 06 10 00  	li	a2, 0x1
800009e8: 17 73 00 00  	auipc	t1, 0x7
800009ec: 13 03 03 98  	addi	t1, t1, -0x680
800009f0: 97 77 00 00  	auipc	a5, 0x7
800009f4: 93 87 c7 96  	addi	a5, a5, -0x694
800009f8: 23 20 c3 00  	sw	a2, 0x0(t1)
800009fc: 23 a0 c7 00  	sw	a2, 0x0(a5)
80000a00: 13 08 10 00  	li	a6, 0x1
80000a04: 13 06 10 00  	li	a2, 0x1
80000a08: 23 22 c3 00  	sw	a2, 0x4(t1)
80000a0c: 23 a2 c7 00  	sw	a2, 0x4(a5)
80000a10: 93 05 10 00  	li	a1, 0x1
80000a14: 6f f0 5f e1  	j	0x80000828 <vx_spawn_threads+0x190>
80000a18: 97 07 00 00  	auipc	a5, 0x0
80000a1c: 93 87 47 af  	addi	a5, a5, -0x50c
80000a20: 0b 10 f3 00  	vx_wspawn	t1, a5
80000a24: 93 07 f0 ff  	li	a5, -0x1
80000a28: 0b 80 07 00  	vx_tmc	a5
80000a2c: ef f0 1f 9d  	jal	0x800003fc <process_threads>
80000a30: 13 05 10 00  	li	a0, 0x1
80000a34: 0b 00 05 00  	vx_tmc	a0
80000a38: 6f f0 5f e8  	j	0x800008bc <vx_spawn_threads+0x224>
80000a3c: 13 06 10 00  	li	a2, 0x1
80000a40: 17 73 00 00  	auipc	t1, 0x7
80000a44: 13 03 83 92  	addi	t1, t1, -0x6d8
80000a48: 97 77 00 00  	auipc	a5, 0x7
80000a4c: 93 87 47 91  	addi	a5, a5, -0x6ec
80000a50: 23 20 c3 00  	sw	a2, 0x0(t1)
80000a54: 23 a0 c7 00  	sw	a2, 0x0(a5)
80000a58: 23 22 c3 00  	sw	a2, 0x4(t1)
80000a5c: 23 a2 c7 00  	sw	a2, 0x4(a5)
80000a60: 93 05 10 00  	li	a1, 0x1
80000a64: 13 05 10 00  	li	a0, 0x1
80000a68: 13 08 10 00  	li	a6, 0x1
80000a6c: 93 08 10 00  	li	a7, 0x1
80000a70: 6f f0 9f c7  	j	0x800006e8 <vx_spawn_threads+0x50>
80000a74: 93 05 10 00  	li	a1, 0x1
80000a78: 13 05 10 00  	li	a0, 0x1
80000a7c: 6f f0 df c6  	j	0x800006e8 <vx_spawn_threads+0x50>
80000a80: 93 05 10 00  	li	a1, 0x1
80000a84: 6f f0 5f da  	j	0x80000828 <vx_spawn_threads+0x190>
80000a88: 23 22 a3 00  	sw	a0, 0x4(t1)
80000a8c: 23 a2 a7 00  	sw	a0, 0x4(a5)
80000a90: 6f f0 9f f4  	j	0x800009d8 <vx_spawn_threads+0x340>
80000a94: 13 06 0e 00  	mv	a2, t3
80000a98: 93 85 08 00  	mv	a1, a7
80000a9c: 17 55 00 00  	auipc	a0, 0x5
80000aa0: 13 05 c5 40  	addi	a0, a0, 0x40c
80000aa4: ef 00 80 24  	jal	0x80000cec <vx_printf>
80000aa8: 13 05 f0 ff  	li	a0, -0x1
80000aac: 6f f0 5f d2  	j	0x800007d0 <vx_spawn_threads+0x138>
80000ab0: 13 05 10 00  	li	a0, 0x1
80000ab4: 6f f0 5f f2  	j	0x800009d8 <vx_spawn_threads+0x340>

80000ab8 <vx_perf_dump>:
80000ab8: 73 27 20 cc  	csrr	a4, cid
80000abc: 13 17 87 00  	slli	a4, a4, 0x8
80000ac0: 93 07 07 08  	addi	a5, a4, 0x80
80000ac4: f3 26 00 b0  	csrr	a3, mcycle
80000ac8: 23 20 d7 08  	sw	a3, 0x80(a4)
80000acc: 73 27 00 b8  	csrr	a4, mcycleh
80000ad0: 23 a2 e7 00  	sw	a4, 0x4(a5)
80000ad4: 73 27 20 b0  	csrr	a4, minstret
80000ad8: 23 a8 e7 00  	sw	a4, 0x10(a5)
80000adc: 73 27 20 b8  	csrr	a4, minstreth
80000ae0: 23 aa e7 00  	sw	a4, 0x14(a5)
80000ae4: 73 27 30 b0  	csrr	a4, mhpmcounter3
80000ae8: 23 ac e7 00  	sw	a4, 0x18(a5)
80000aec: 73 27 30 b8  	csrr	a4, mhpmcounter3h
80000af0: 23 ae e7 00  	sw	a4, 0x1c(a5)
80000af4: 73 27 40 b0  	csrr	a4, mhpmcounter4
80000af8: 23 a0 e7 02  	sw	a4, 0x20(a5)
80000afc: 73 27 40 b8  	csrr	a4, mhpmcounter4h
80000b00: 23 a2 e7 02  	sw	a4, 0x24(a5)
80000b04: 73 27 50 b0  	csrr	a4, mhpmcounter5
80000b08: 23 a4 e7 02  	sw	a4, 0x28(a5)
80000b0c: 73 27 50 b8  	csrr	a4, mhpmcounter5h
80000b10: 23 a6 e7 02  	sw	a4, 0x2c(a5)
80000b14: 73 27 60 b0  	csrr	a4, mhpmcounter6
80000b18: 23 a8 e7 02  	sw	a4, 0x30(a5)
80000b1c: 73 27 60 b8  	csrr	a4, mhpmcounter6h
80000b20: 23 aa e7 02  	sw	a4, 0x34(a5)
80000b24: 73 27 70 b0  	csrr	a4, mhpmcounter7
80000b28: 23 ac e7 02  	sw	a4, 0x38(a5)
80000b2c: 73 27 70 b8  	csrr	a4, mhpmcounter7h
80000b30: 23 ae e7 02  	sw	a4, 0x3c(a5)
80000b34: 73 27 80 b0  	csrr	a4, mhpmcounter8
80000b38: 23 a0 e7 04  	sw	a4, 0x40(a5)
80000b3c: 73 27 80 b8  	csrr	a4, mhpmcounter8h
80000b40: 23 a2 e7 04  	sw	a4, 0x44(a5)
80000b44: 73 27 90 b0  	csrr	a4, mhpmcounter9
80000b48: 23 a4 e7 04  	sw	a4, 0x48(a5)
80000b4c: 73 27 90 b8  	csrr	a4, mhpmcounter9h
80000b50: 23 a6 e7 04  	sw	a4, 0x4c(a5)
80000b54: 73 27 a0 b0  	csrr	a4, mhpmcounter10
80000b58: 23 a8 e7 04  	sw	a4, 0x50(a5)
80000b5c: 73 27 a0 b8  	csrr	a4, mhpmcounter10h
80000b60: 23 aa e7 04  	sw	a4, 0x54(a5)
80000b64: 73 27 b0 b0  	csrr	a4, mhpmcounter11
80000b68: 23 ac e7 04  	sw	a4, 0x58(a5)
80000b6c: 73 27 b0 b8  	csrr	a4, mhpmcounter11h
80000b70: 23 ae e7 04  	sw	a4, 0x5c(a5)
80000b74: 73 27 c0 b0  	csrr	a4, mhpmcounter12
80000b78: 23 a0 e7 06  	sw	a4, 0x60(a5)
80000b7c: 73 27 c0 b8  	csrr	a4, mhpmcounter12h
80000b80: 23 a2 e7 06  	sw	a4, 0x64(a5)
80000b84: 73 27 d0 b0  	csrr	a4, mhpmcounter13
80000b88: 23 a4 e7 06  	sw	a4, 0x68(a5)
80000b8c: 73 27 d0 b8  	csrr	a4, mhpmcounter13h
80000b90: 23 a6 e7 06  	sw	a4, 0x6c(a5)
80000b94: 73 27 e0 b0  	csrr	a4, mhpmcounter14
80000b98: 23 a8 e7 06  	sw	a4, 0x70(a5)
80000b9c: 73 27 e0 b8  	csrr	a4, mhpmcounter14h
80000ba0: 23 aa e7 06  	sw	a4, 0x74(a5)
80000ba4: 73 27 f0 b0  	csrr	a4, mhpmcounter15
80000ba8: 23 ac e7 06  	sw	a4, 0x78(a5)
80000bac: 73 27 f0 b8  	csrr	a4, mhpmcounter15h
80000bb0: 23 ae e7 06  	sw	a4, 0x7c(a5)
80000bb4: 73 27 00 b1  	csrr	a4, mhpmcounter16
80000bb8: 23 a0 e7 08  	sw	a4, 0x80(a5)
80000bbc: 73 27 00 b9  	csrr	a4, mhpmcounter16h
80000bc0: 23 a2 e7 08  	sw	a4, 0x84(a5)
80000bc4: 73 27 10 b1  	csrr	a4, mhpmcounter17
80000bc8: 23 a4 e7 08  	sw	a4, 0x88(a5)
80000bcc: 73 27 10 b9  	csrr	a4, mhpmcounter17h
80000bd0: 23 a6 e7 08  	sw	a4, 0x8c(a5)
80000bd4: 73 27 20 b1  	csrr	a4, mhpmcounter18
80000bd8: 23 a8 e7 08  	sw	a4, 0x90(a5)
80000bdc: 73 27 20 b9  	csrr	a4, mhpmcounter18h
80000be0: 23 aa e7 08  	sw	a4, 0x94(a5)
80000be4: 73 27 30 b1  	csrr	a4, mhpmcounter19
80000be8: 23 ac e7 08  	sw	a4, 0x98(a5)
80000bec: 73 27 30 b9  	csrr	a4, mhpmcounter19h
80000bf0: 23 ae e7 08  	sw	a4, 0x9c(a5)
80000bf4: 73 27 40 b1  	csrr	a4, mhpmcounter20
80000bf8: 23 a0 e7 0a  	sw	a4, 0xa0(a5)
80000bfc: 73 27 40 b9  	csrr	a4, mhpmcounter20h
80000c00: 23 a2 e7 0a  	sw	a4, 0xa4(a5)
80000c04: 73 27 50 b1  	csrr	a4, mhpmcounter21
80000c08: 23 a4 e7 0a  	sw	a4, 0xa8(a5)
80000c0c: 73 27 50 b9  	csrr	a4, mhpmcounter21h
80000c10: 23 a6 e7 0a  	sw	a4, 0xac(a5)
80000c14: 73 27 60 b1  	csrr	a4, mhpmcounter22
80000c18: 23 a8 e7 0a  	sw	a4, 0xb0(a5)
80000c1c: 73 27 60 b9  	csrr	a4, mhpmcounter22h
80000c20: 23 aa e7 0a  	sw	a4, 0xb4(a5)
80000c24: 73 27 70 b1  	csrr	a4, mhpmcounter23
80000c28: 23 ac e7 0a  	sw	a4, 0xb8(a5)
80000c2c: 73 27 70 b9  	csrr	a4, mhpmcounter23h
80000c30: 23 ae e7 0a  	sw	a4, 0xbc(a5)
80000c34: 73 27 80 b1  	csrr	a4, mhpmcounter24
80000c38: 23 a0 e7 0c  	sw	a4, 0xc0(a5)
80000c3c: 73 27 80 b9  	csrr	a4, mhpmcounter24h
80000c40: 23 a2 e7 0c  	sw	a4, 0xc4(a5)
80000c44: 73 27 90 b1  	csrr	a4, mhpmcounter25
80000c48: 23 a4 e7 0c  	sw	a4, 0xc8(a5)
80000c4c: 73 27 90 b9  	csrr	a4, mhpmcounter25h
80000c50: 23 a6 e7 0c  	sw	a4, 0xcc(a5)
80000c54: 73 27 a0 b1  	csrr	a4, mhpmcounter26
80000c58: 23 a8 e7 0c  	sw	a4, 0xd0(a5)
80000c5c: 73 27 a0 b9  	csrr	a4, mhpmcounter26h
80000c60: 23 aa e7 0c  	sw	a4, 0xd4(a5)
80000c64: 73 27 b0 b1  	csrr	a4, mhpmcounter27
80000c68: 23 ac e7 0c  	sw	a4, 0xd8(a5)
80000c6c: 73 27 b0 b9  	csrr	a4, mhpmcounter27h
80000c70: 23 ae e7 0c  	sw	a4, 0xdc(a5)
80000c74: 73 27 c0 b1  	csrr	a4, mhpmcounter28
80000c78: 23 a0 e7 0e  	sw	a4, 0xe0(a5)
80000c7c: 73 27 c0 b9  	csrr	a4, mhpmcounter28h
80000c80: 23 a2 e7 0e  	sw	a4, 0xe4(a5)
80000c84: 73 27 d0 b1  	csrr	a4, mhpmcounter29
80000c88: 23 a4 e7 0e  	sw	a4, 0xe8(a5)
80000c8c: 73 27 d0 b9  	csrr	a4, mhpmcounter29h
80000c90: 23 a6 e7 0e  	sw	a4, 0xec(a5)
80000c94: 73 27 e0 b1  	csrr	a4, mhpmcounter30
80000c98: 23 a8 e7 0e  	sw	a4, 0xf0(a5)
80000c9c: 73 27 e0 b9  	csrr	a4, mhpmcounter30h
80000ca0: 23 aa e7 0e  	sw	a4, 0xf4(a5)
80000ca4: 73 27 f0 b1  	csrr	a4, mhpmcounter31
80000ca8: 23 ac e7 0e  	sw	a4, 0xf8(a5)
80000cac: 73 27 f0 b9  	csrr	a4, mhpmcounter31h
80000cb0: 23 ae e7 0e  	sw	a4, 0xfc(a5)
80000cb4: 67 80 00 00  	ret

80000cb8 <__vprintf_cb>:
80000cb8: 83 27 45 00  	lw	a5, 0x4(a0)
80000cbc: 13 01 01 ff  	addi	sp, sp, -0x10
80000cc0: 23 24 81 00  	sw	s0, 0x8(sp)
80000cc4: 83 a5 07 00  	lw	a1, 0x0(a5)
80000cc8: 13 04 05 00  	mv	s0, a0
80000ccc: 03 25 05 00  	lw	a0, 0x0(a0)
80000cd0: 23 26 11 00  	sw	ra, 0xc(sp)
80000cd4: ef 20 00 03  	jal	0x80002d04 <tiny_vprintf>
80000cd8: 83 20 c1 00  	lw	ra, 0xc(sp)
80000cdc: 23 24 a4 00  	sw	a0, 0x8(s0)
80000ce0: 03 24 81 00  	lw	s0, 0x8(sp)
80000ce4: 13 01 01 01  	addi	sp, sp, 0x10
80000ce8: 67 80 00 00  	ret

80000cec <vx_printf>:
80000cec: 13 01 01 fb  	addi	sp, sp, -0x50
80000cf0: 23 22 f1 04  	sw	a5, 0x44(sp)
80000cf4: 93 07 41 03  	addi	a5, sp, 0x34
80000cf8: 13 03 05 00  	mv	t1, a0
80000cfc: 23 2a b1 02  	sw	a1, 0x34(sp)
80000d00: 23 26 f1 00  	sw	a5, 0xc(sp)
80000d04: 23 28 f1 00  	sw	a5, 0x10(sp)
80000d08: 17 05 00 00  	auipc	a0, 0x0
80000d0c: 13 05 05 fb  	addi	a0, a0, -0x50
80000d10: 93 07 01 01  	addi	a5, sp, 0x10
80000d14: 93 05 41 01  	addi	a1, sp, 0x14
80000d18: 23 26 11 02  	sw	ra, 0x2c(sp)
80000d1c: 23 2c c1 02  	sw	a2, 0x38(sp)
80000d20: 23 2e d1 02  	sw	a3, 0x3c(sp)
80000d24: 23 20 e1 04  	sw	a4, 0x40(sp)
80000d28: 23 24 01 05  	sw	a6, 0x48(sp)
80000d2c: 23 26 11 05  	sw	a7, 0x4c(sp)
80000d30: 23 2a 61 00  	sw	t1, 0x14(sp)
80000d34: 23 2c f1 00  	sw	a5, 0x18(sp)
80000d38: ef 00 40 01  	jal	0x80000d4c <vx_serial>
80000d3c: 83 20 c1 02  	lw	ra, 0x2c(sp)
80000d40: 03 25 c1 01  	lw	a0, 0x1c(sp)
80000d44: 13 01 01 05  	addi	sp, sp, 0x50
80000d48: 67 80 00 00  	ret

80000d4c <vx_serial>:
80000d4c: 13 01 41 fe  	addi	sp, sp, -0x1c
80000d50: 23 2c 11 00  	sw	ra, 0x18(sp)
80000d54: 23 2a 51 01  	sw	s5, 0x14(sp)
80000d58: 23 28 41 01  	sw	s4, 0x10(sp)
80000d5c: 23 26 31 01  	sw	s3, 0xc(sp)
80000d60: 23 24 21 01  	sw	s2, 0x8(sp)
80000d64: 23 22 91 00  	sw	s1, 0x4(sp)
80000d68: 23 20 81 00  	sw	s0, 0x0(sp)
80000d6c: 13 0a 05 00  	mv	s4, a0
80000d70: 93 89 05 00  	mv	s3, a1
80000d74: 73 29 00 fc  	csrr	s2, nt
80000d78: f3 24 00 cc  	csrr	s1, tid
80000d7c: 13 04 00 00  	li	s0, 0x0

80000d80 <label_loop>:
80000d80: b3 02 94 40  	sub	t0, s0, s1
80000d84: 13 b3 12 00  	seqz	t1, t0
80000d88: 8b 2a 03 00  	vx_split	s5, t1
80000d8c: 63 96 02 00  	bnez	t0, 0x80000d98 <label_join>
80000d90: 13 85 09 00  	mv	a0, s3
80000d94: e7 00 0a 00  	jalr	s4

80000d98 <label_join>:
80000d98: 0b b0 0a 00  	vx_join	s5
80000d9c: 13 04 14 00  	addi	s0, s0, 0x1
80000da0: e3 40 24 ff  	blt	s0, s2, 0x80000d80 <label_loop>
80000da4: 83 20 81 01  	lw	ra, 0x18(sp)
80000da8: 83 2a 41 01  	lw	s5, 0x14(sp)
80000dac: 03 2a 01 01  	lw	s4, 0x10(sp)
80000db0: 83 29 c1 00  	lw	s3, 0xc(sp)
80000db4: 03 29 81 00  	lw	s2, 0x8(sp)
80000db8: 83 24 41 00  	lw	s1, 0x4(sp)
80000dbc: 03 24 01 00  	lw	s0, 0x0(sp)
80000dc0: 13 01 c1 01  	addi	sp, sp, 0x1c
80000dc4: 67 80 00 00  	ret

80000dc8 <_out_null>:
80000dc8: 67 80 00 00  	ret

80000dcc <_out_rev>:
80000dcc: 13 01 01 fd  	addi	sp, sp, -0x30
80000dd0: 23 22 91 02  	sw	s1, 0x24(sp)
80000dd4: 23 20 21 03  	sw	s2, 0x20(sp)
80000dd8: 23 2e 31 01  	sw	s3, 0x1c(sp)
80000ddc: 23 2c 41 01  	sw	s4, 0x18(sp)
80000de0: 23 2a 51 01  	sw	s5, 0x14(sp)
80000de4: 23 28 61 01  	sw	s6, 0x10(sp)
80000de8: 93 0a 06 00  	mv	s5, a2
80000dec: 23 24 81 01  	sw	s8, 0x8(sp)
80000df0: 23 22 91 01  	sw	s9, 0x4(sp)
80000df4: 23 20 a1 01  	sw	s10, 0x0(sp)
80000df8: 23 26 11 02  	sw	ra, 0x2c(sp)
80000dfc: 23 24 81 02  	sw	s0, 0x28(sp)
80000e00: 23 26 71 01  	sw	s7, 0xc(sp)
80000e04: 13 f6 38 00  	andi	a2, a7, 0x3
80000e08: 93 8c 08 00  	mv	s9, a7
80000e0c: 13 09 05 00  	mv	s2, a0
80000e10: 93 89 05 00  	mv	s3, a1
80000e14: 13 8a 06 00  	mv	s4, a3
80000e18: 13 0b 07 00  	mv	s6, a4
80000e1c: 13 8d 07 00  	mv	s10, a5
80000e20: 13 0c 08 00  	mv	s8, a6
80000e24: 93 84 0a 00  	mv	s1, s5
80000e28: 63 18 06 02  	bnez	a2, 0x80000e58 <_out_rev+0x8c>
80000e2c: b3 04 f8 40  	sub	s1, a6, a5
80000e30: b3 84 54 01  	add	s1, s1, s5
80000e34: 13 84 0a 00  	mv	s0, s5
80000e38: 63 fc 07 0b  	bgeu	a5, a6, 0x80000ef0 <_out_rev+0x124>
80000e3c: 13 06 04 00  	mv	a2, s0
80000e40: 93 06 0a 00  	mv	a3, s4
80000e44: 13 04 14 00  	addi	s0, s0, 0x1
80000e48: 93 85 09 00  	mv	a1, s3
80000e4c: 13 05 00 02  	li	a0, 0x20
80000e50: e7 00 09 00  	jalr	s2
80000e54: e3 14 94 fe  	bne	s0, s1, 0x80000e3c <_out_rev+0x70>
80000e58: 33 04 ab 01  	add	s0, s6, s10
80000e5c: b3 0b 94 00  	add	s7, s0, s1
80000e60: 63 02 0d 02  	beqz	s10, 0x80000e84 <_out_rev+0xb8>
80000e64: 03 45 f4 ff  	lbu	a0, -0x1(s0)
80000e68: 33 86 8b 40  	sub	a2, s7, s0
80000e6c: 93 06 0a 00  	mv	a3, s4
80000e70: 13 04 f4 ff  	addi	s0, s0, -0x1
80000e74: 93 85 09 00  	mv	a1, s3
80000e78: e7 00 09 00  	jalr	s2
80000e7c: e3 14 8b fe  	bne	s6, s0, 0x80000e64 <_out_rev+0x98>
80000e80: b3 84 a4 01  	add	s1, s1, s10
80000e84: 93 fc 2c 00  	andi	s9, s9, 0x2
80000e88: 63 86 0c 02  	beqz	s9, 0x80000eb4 <_out_rev+0xe8>
80000e8c: b3 8a 54 41  	sub	s5, s1, s5
80000e90: 63 f2 8a 03  	bgeu	s5, s8, 0x80000eb4 <_out_rev+0xe8>
80000e94: 13 86 04 00  	mv	a2, s1
80000e98: 93 8a 1a 00  	addi	s5, s5, 0x1
80000e9c: 93 06 0a 00  	mv	a3, s4
80000ea0: 93 85 09 00  	mv	a1, s3
80000ea4: 13 05 00 02  	li	a0, 0x20
80000ea8: 93 84 14 00  	addi	s1, s1, 0x1
80000eac: e7 00 09 00  	jalr	s2
80000eb0: e3 e2 8a ff  	bltu	s5, s8, 0x80000e94 <_out_rev+0xc8>
80000eb4: 83 20 c1 02  	lw	ra, 0x2c(sp)
80000eb8: 03 24 81 02  	lw	s0, 0x28(sp)
80000ebc: 03 29 01 02  	lw	s2, 0x20(sp)
80000ec0: 83 29 c1 01  	lw	s3, 0x1c(sp)
80000ec4: 03 2a 81 01  	lw	s4, 0x18(sp)
80000ec8: 83 2a 41 01  	lw	s5, 0x14(sp)
80000ecc: 03 2b 01 01  	lw	s6, 0x10(sp)
80000ed0: 83 2b c1 00  	lw	s7, 0xc(sp)
80000ed4: 03 2c 81 00  	lw	s8, 0x8(sp)
80000ed8: 83 2c 41 00  	lw	s9, 0x4(sp)
80000edc: 03 2d 01 00  	lw	s10, 0x0(sp)
80000ee0: 13 85 04 00  	mv	a0, s1
80000ee4: 83 24 41 02  	lw	s1, 0x24(sp)
80000ee8: 13 01 01 03  	addi	sp, sp, 0x30
80000eec: 67 80 00 00  	ret
80000ef0: 93 84 0a 00  	mv	s1, s5
80000ef4: 6f f0 5f f6  	j	0x80000e58 <_out_rev+0x8c>

80000ef8 <_ntoa_format>:
80000ef8: 83 23 81 00  	lw	t2, 0x8(sp)
80000efc: 83 22 01 00  	lw	t0, 0x0(sp)
80000f00: 83 2f 41 00  	lw	t6, 0x4(sp)
80000f04: 13 f3 23 00  	andi	t1, t2, 0x2
80000f08: 13 0f 08 00  	mv	t5, a6
80000f0c: 63 14 03 06  	bnez	t1, 0x80000f74 <_ntoa_format+0x7c>
80000f10: 63 94 0f 10  	bnez	t6, 0x80001018 <_ntoa_format+0x120>
80000f14: 63 f0 57 06  	bgeu	a5, t0, 0x80000f74 <_ntoa_format+0x7c>
80000f18: 13 03 00 02  	li	t1, 0x20
80000f1c: 13 f8 13 00  	andi	a6, t2, 0x1
80000f20: 63 82 67 2c  	beq	a5, t1, 0x800011e4 <_ntoa_format+0x2ec>
80000f24: 13 0e 00 03  	li	t3, 0x30
80000f28: 93 0e 00 02  	li	t4, 0x20
80000f2c: 6f 00 80 00  	j	0x80000f34 <_ntoa_format+0x3c>
80000f30: 63 8a d7 15  	beq	a5, t4, 0x80001084 <_ntoa_format+0x18c>
80000f34: 93 87 17 00  	addi	a5, a5, 0x1
80000f38: 33 03 f7 00  	add	t1, a4, a5
80000f3c: a3 0f c3 ff  	sb	t3, -0x1(t1)
80000f40: e3 e8 57 fe  	bltu	a5, t0, 0x80000f30 <_ntoa_format+0x38>
80000f44: 63 08 08 02  	beqz	a6, 0x80000f74 <_ntoa_format+0x7c>
80000f48: 63 f6 f7 03  	bgeu	a5, t6, 0x80000f74 <_ntoa_format+0x7c>
80000f4c: 13 08 00 02  	li	a6, 0x20
80000f50: 13 0e 00 03  	li	t3, 0x30
80000f54: 93 0e 00 02  	li	t4, 0x20
80000f58: 63 96 07 01  	bne	a5, a6, 0x80000f64 <_ntoa_format+0x6c>
80000f5c: 6f 00 00 13  	j	0x8000108c <_ntoa_format+0x194>
80000f60: 63 82 d7 07  	beq	a5, t4, 0x80000fc4 <_ntoa_format+0xcc>
80000f64: 93 87 17 00  	addi	a5, a5, 0x1
80000f68: 33 03 f7 00  	add	t1, a4, a5
80000f6c: a3 0f c3 ff  	sb	t3, -0x1(t1)
80000f70: e3 98 f7 ff  	bne	a5, t6, 0x80000f60 <_ntoa_format+0x68>
80000f74: 13 f8 03 01  	andi	a6, t2, 0x10
80000f78: 63 06 08 08  	beqz	a6, 0x80001004 <_ntoa_format+0x10c>
80000f7c: 13 f8 03 40  	andi	a6, t2, 0x400
80000f80: 63 10 08 0e  	bnez	a6, 0x80001060 <_ntoa_format+0x168>
80000f84: 63 9a 07 04  	bnez	a5, 0x80000fd8 <_ntoa_format+0xe0>
80000f88: 93 07 00 01  	li	a5, 0x10
80000f8c: 63 88 f8 20  	beq	a7, a5, 0x8000119c <_ntoa_format+0x2a4>
80000f90: 93 07 20 00  	li	a5, 0x2
80000f94: 63 86 f8 22  	beq	a7, a5, 0x800011c0 <_ntoa_format+0x2c8>
80000f98: 93 07 00 03  	li	a5, 0x30
80000f9c: 23 00 f7 00  	sb	a5, 0x0(a4)
80000fa0: 93 07 10 00  	li	a5, 0x1
80000fa4: 63 1a 0f 10  	bnez	t5, 0x800010b8 <_ntoa_format+0x1c0>
80000fa8: 13 f8 43 00  	andi	a6, t2, 0x4
80000fac: 63 06 08 18  	beqz	a6, 0x80001138 <_ntoa_format+0x240>
80000fb0: 33 08 f7 00  	add	a6, a4, a5
80000fb4: 93 08 b0 02  	li	a7, 0x2b
80000fb8: 23 00 18 01  	sb	a7, 0x0(a6)
80000fbc: 93 87 17 00  	addi	a5, a5, 0x1
80000fc0: 6f 00 c0 04  	j	0x8000100c <_ntoa_format+0x114>
80000fc4: 13 f8 03 01  	andi	a6, t2, 0x10
80000fc8: 93 07 00 02  	li	a5, 0x20
80000fcc: 63 00 08 04  	beqz	a6, 0x8000100c <_ntoa_format+0x114>
80000fd0: 13 f8 03 40  	andi	a6, t2, 0x400
80000fd4: 63 16 08 08  	bnez	a6, 0x80001060 <_ntoa_format+0x168>
80000fd8: 63 84 f2 00  	beq	t0, a5, 0x80000fe0 <_ntoa_format+0xe8>
80000fdc: 63 92 f7 09  	bne	a5, t6, 0x80001060 <_ntoa_format+0x168>
80000fe0: 13 88 f7 ff  	addi	a6, a5, -0x1
80000fe4: 63 06 08 18  	beqz	a6, 0x80001170 <_ntoa_format+0x278>
80000fe8: 13 03 00 01  	li	t1, 0x10
80000fec: 63 84 68 20  	beq	a7, t1, 0x800011f4 <_ntoa_format+0x2fc>
80000ff0: 13 03 20 00  	li	t1, 0x2
80000ff4: 63 84 68 10  	beq	a7, t1, 0x800010fc <_ntoa_format+0x204>
80000ff8: 33 08 07 01  	add	a6, a4, a6
80000ffc: 93 08 00 03  	li	a7, 0x30
80001000: 23 00 18 01  	sb	a7, 0x0(a6)
80001004: 13 08 00 02  	li	a6, 0x20
80001008: e3 9e 07 f9  	bne	a5, a6, 0x80000fa4 <_ntoa_format+0xac>
8000100c: 93 88 03 00  	mv	a7, t2
80001010: 13 88 0f 00  	mv	a6, t6
80001014: 6f f0 9f db  	j	0x80000dcc <_out_rev>
80001018: 13 f8 13 00  	andi	a6, t2, 0x1
8000101c: 63 0c 08 0a  	beqz	a6, 0x800010d4 <_ntoa_format+0x1dc>
80001020: 63 16 0f 0e  	bnez	t5, 0x8000110c <_ntoa_format+0x214>
80001024: 13 f3 c3 00  	andi	t1, t2, 0xc
80001028: 63 12 03 0e  	bnez	t1, 0x8000110c <_ntoa_format+0x214>
8000102c: e3 fe 57 f0  	bgeu	a5, t0, 0x80000f48 <_ntoa_format+0x50>
80001030: 13 03 00 02  	li	t1, 0x20
80001034: e3 98 67 ee  	bne	a5, t1, 0x80000f24 <_ntoa_format+0x2c>
80001038: 13 f3 03 01  	andi	t1, t2, 0x10
8000103c: 63 e8 f7 05  	bltu	a5, t6, 0x8000108c <_ntoa_format+0x194>
80001040: e3 1e 03 f2  	bnez	t1, 0x80000f7c <_ntoa_format+0x84>
80001044: 6f f0 9f fc  	j	0x8000100c <_ntoa_format+0x114>
80001048: 13 f8 03 01  	andi	a6, t2, 0x10
8000104c: e3 00 08 fc  	beqz	a6, 0x8000100c <_ntoa_format+0x114>
80001050: 13 f8 03 40  	andi	a6, t2, 0x400
80001054: e3 1c 08 fa  	bnez	a6, 0x8000100c <_ntoa_format+0x114>
80001058: 13 08 00 02  	li	a6, 0x20
8000105c: 63 86 0f 05  	beq	t6, a6, 0x800010a8 <_ntoa_format+0x1b0>
80001060: 13 08 00 01  	li	a6, 0x10
80001064: 63 88 08 0b  	beq	a7, a6, 0x80001114 <_ntoa_format+0x21c>
80001068: 13 08 20 00  	li	a6, 0x2
8000106c: 63 80 08 09  	beq	a7, a6, 0x800010ec <_ntoa_format+0x1f4>
80001070: 13 08 00 02  	li	a6, 0x20
80001074: e3 8c 07 f9  	beq	a5, a6, 0x8000100c <_ntoa_format+0x114>
80001078: 13 88 07 00  	mv	a6, a5
8000107c: 93 87 17 00  	addi	a5, a5, 0x1
80001080: 6f f0 9f f7  	j	0x80000ff8 <_ntoa_format+0x100>
80001084: e3 02 08 fc  	beqz	a6, 0x80001048 <_ntoa_format+0x150>
80001088: e3 fe f7 f3  	bgeu	a5, t6, 0x80000fc4 <_ntoa_format+0xcc>
8000108c: 13 f8 03 01  	andi	a6, t2, 0x10
80001090: 93 07 00 02  	li	a5, 0x20
80001094: e3 0c 08 f6  	beqz	a6, 0x8000100c <_ntoa_format+0x114>
80001098: 13 f8 03 40  	andi	a6, t2, 0x400
8000109c: e3 18 08 f6  	bnez	a6, 0x8000100c <_ntoa_format+0x114>
800010a0: 63 82 f2 18  	beq	t0, a5, 0x80001224 <_ntoa_format+0x32c>
800010a4: e3 9e ff fa  	bne	t6, a5, 0x80001060 <_ntoa_format+0x168>
800010a8: 93 0f 00 02  	li	t6, 0x20
800010ac: 93 07 00 02  	li	a5, 0x20
800010b0: 13 08 f0 01  	li	a6, 0x1f
800010b4: 6f f0 5f f3  	j	0x80000fe8 <_ntoa_format+0xf0>
800010b8: 33 08 f7 00  	add	a6, a4, a5
800010bc: 93 08 d0 02  	li	a7, 0x2d
800010c0: 23 00 18 01  	sb	a7, 0x0(a6)
800010c4: 93 87 17 00  	addi	a5, a5, 0x1
800010c8: 93 88 03 00  	mv	a7, t2
800010cc: 13 88 0f 00  	mv	a6, t6
800010d0: 6f f0 df cf  	j	0x80000dcc <_out_rev>
800010d4: e3 f0 57 ea  	bgeu	a5, t0, 0x80000f74 <_ntoa_format+0x7c>
800010d8: 13 03 00 02  	li	t1, 0x20
800010dc: e3 94 67 e4  	bne	a5, t1, 0x80000f24 <_ntoa_format+0x2c>
800010e0: 13 f3 03 01  	andi	t1, t2, 0x10
800010e4: e3 16 03 ee  	bnez	t1, 0x80000fd0 <_ntoa_format+0xd8>
800010e8: 6f f0 5f f2  	j	0x8000100c <_ntoa_format+0x114>
800010ec: 13 08 00 02  	li	a6, 0x20
800010f0: e3 8e 07 f1  	beq	a5, a6, 0x8000100c <_ntoa_format+0x114>
800010f4: 13 88 07 00  	mv	a6, a5
800010f8: 93 87 17 00  	addi	a5, a5, 0x1
800010fc: 33 08 07 01  	add	a6, a4, a6
80001100: 93 08 20 06  	li	a7, 0x62
80001104: 23 00 18 01  	sb	a7, 0x0(a6)
80001108: 6f f0 9f f6  	j	0x80001070 <_ntoa_format+0x178>
8000110c: 93 8f ff ff  	addi	t6, t6, -0x1
80001110: 6f f0 df f1  	j	0x8000102c <_ntoa_format+0x134>
80001114: 13 f8 03 02  	andi	a6, t2, 0x20
80001118: 63 1e 08 02  	bnez	a6, 0x80001154 <_ntoa_format+0x25c>
8000111c: 13 08 00 02  	li	a6, 0x20
80001120: e3 86 07 ef  	beq	a5, a6, 0x8000100c <_ntoa_format+0x114>
80001124: 33 08 f7 00  	add	a6, a4, a5
80001128: 93 08 80 07  	li	a7, 0x78
8000112c: 23 00 18 01  	sb	a7, 0x0(a6)
80001130: 93 87 17 00  	addi	a5, a5, 0x1
80001134: 6f f0 df f3  	j	0x80001070 <_ntoa_format+0x178>
80001138: 13 f8 83 00  	andi	a6, t2, 0x8
8000113c: e3 08 08 ec  	beqz	a6, 0x8000100c <_ntoa_format+0x114>
80001140: 33 08 f7 00  	add	a6, a4, a5
80001144: 93 08 00 02  	li	a7, 0x20
80001148: 23 00 18 01  	sb	a7, 0x0(a6)
8000114c: 93 87 17 00  	addi	a5, a5, 0x1
80001150: 6f f0 df eb  	j	0x8000100c <_ntoa_format+0x114>
80001154: 13 08 00 02  	li	a6, 0x20
80001158: e3 8a 07 eb  	beq	a5, a6, 0x8000100c <_ntoa_format+0x114>
8000115c: 33 08 f7 00  	add	a6, a4, a5
80001160: 93 08 80 05  	li	a7, 0x58
80001164: 23 00 18 01  	sb	a7, 0x0(a6)
80001168: 93 87 17 00  	addi	a5, a5, 0x1
8000116c: 6f f0 5f f0  	j	0x80001070 <_ntoa_format+0x178>
80001170: 93 07 00 01  	li	a5, 0x10
80001174: e3 9e f8 e0  	bne	a7, a5, 0x80000f90 <_ntoa_format+0x98>
80001178: 93 f7 03 02  	andi	a5, t2, 0x20
8000117c: 63 94 07 02  	bnez	a5, 0x800011a4 <_ntoa_format+0x2ac>
80001180: 93 07 80 07  	li	a5, 0x78
80001184: 23 00 f7 00  	sb	a5, 0x0(a4)
80001188: 93 07 00 03  	li	a5, 0x30
8000118c: a3 00 f7 00  	sb	a5, 0x1(a4)
80001190: 93 07 20 00  	li	a5, 0x2
80001194: e3 0a 0f e0  	beqz	t5, 0x80000fa8 <_ntoa_format+0xb0>
80001198: 6f f0 1f f2  	j	0x800010b8 <_ntoa_format+0x1c0>
8000119c: 93 f7 03 02  	andi	a5, t2, 0x20
800011a0: 63 84 07 02  	beqz	a5, 0x800011c8 <_ntoa_format+0x2d0>
800011a4: 93 07 80 05  	li	a5, 0x58
800011a8: 23 00 f7 00  	sb	a5, 0x0(a4)
800011ac: 93 07 00 03  	li	a5, 0x30
800011b0: a3 00 f7 00  	sb	a5, 0x1(a4)
800011b4: 93 07 20 00  	li	a5, 0x2
800011b8: e3 08 0f de  	beqz	t5, 0x80000fa8 <_ntoa_format+0xb0>
800011bc: 6f f0 df ef  	j	0x800010b8 <_ntoa_format+0x1c0>
800011c0: 93 07 20 06  	li	a5, 0x62
800011c4: 6f f0 1f fc  	j	0x80001184 <_ntoa_format+0x28c>
800011c8: 93 07 80 07  	li	a5, 0x78
800011cc: 23 00 f7 00  	sb	a5, 0x0(a4)
800011d0: 93 07 00 03  	li	a5, 0x30
800011d4: a3 00 f7 00  	sb	a5, 0x1(a4)
800011d8: 93 07 20 00  	li	a5, 0x2
800011dc: e3 06 0f dc  	beqz	t5, 0x80000fa8 <_ntoa_format+0xb0>
800011e0: 6f f0 9f ed  	j	0x800010b8 <_ntoa_format+0x1c0>
800011e4: 13 f3 03 01  	andi	t1, t2, 0x10
800011e8: e3 0e 08 ee  	beqz	a6, 0x800010e4 <_ntoa_format+0x1ec>
800011ec: e3 18 03 d8  	bnez	t1, 0x80000f7c <_ntoa_format+0x84>
800011f0: 6f f0 df e1  	j	0x8000100c <_ntoa_format+0x114>
800011f4: 93 87 e7 ff  	addi	a5, a5, -0x2
800011f8: 93 f8 03 02  	andi	a7, t2, 0x20
800011fc: b3 07 f7 00  	add	a5, a4, a5
80001200: 63 9a 08 00  	bnez	a7, 0x80001214 <_ntoa_format+0x31c>
80001204: 93 08 80 07  	li	a7, 0x78
80001208: 23 80 17 01  	sb	a7, 0x0(a5)
8000120c: 93 07 08 00  	mv	a5, a6
80001210: 6f f0 9f e6  	j	0x80001078 <_ntoa_format+0x180>
80001214: 93 08 80 05  	li	a7, 0x58
80001218: 23 80 17 01  	sb	a7, 0x0(a5)
8000121c: 93 07 08 00  	mv	a5, a6
80001220: 6f f0 9f e5  	j	0x80001078 <_ntoa_format+0x180>
80001224: 13 08 f0 01  	li	a6, 0x1f
80001228: 6f f0 1f dc  	j	0x80000fe8 <_ntoa_format+0xf0>

8000122c <_out_char>:
8000122c: 63 14 05 00  	bnez	a0, 0x80001234 <_out_char+0x8>
80001230: 67 80 00 00  	ret
80001234: 6f f0 0f 9b  	j	0x800003e4 <vx_putchar>

80001238 <_etoa>:
80001238: 13 01 01 f7  	addi	sp, sp, -0x90
8000123c: 23 20 21 09  	sw	s2, 0x80(sp)
80001240: 23 2e 31 07  	sw	s3, 0x7c(sp)
80001244: 23 2c 41 07  	sw	s4, 0x78(sp)
80001248: 23 2a 51 07  	sw	s5, 0x74(sp)
8000124c: 93 09 05 00  	mv	s3, a0
80001250: 13 8a 05 00  	mv	s4, a1
80001254: 13 09 06 00  	mv	s2, a2
80001258: 93 8a 06 00  	mv	s5, a3
8000125c: 13 06 07 00  	mv	a2, a4
80001260: 93 86 07 00  	mv	a3, a5
80001264: 13 05 07 00  	mv	a0, a4
80001268: 93 85 07 00  	mv	a1, a5
8000126c: 23 24 81 08  	sw	s0, 0x88(sp)
80001270: 23 22 91 08  	sw	s1, 0x84(sp)
80001274: 23 28 61 07  	sw	s6, 0x70(sp)
80001278: 23 24 81 07  	sw	s8, 0x68(sp)
8000127c: 23 22 91 07  	sw	s9, 0x64(sp)
80001280: 23 26 11 08  	sw	ra, 0x8c(sp)
80001284: 23 26 71 07  	sw	s7, 0x6c(sp)
80001288: 23 20 a1 07  	sw	s10, 0x60(sp)
8000128c: 23 2e b1 05  	sw	s11, 0x5c(sp)
80001290: 13 04 07 00  	mv	s0, a4
80001294: 93 84 07 00  	mv	s1, a5
80001298: 13 0c 08 00  	mv	s8, a6
8000129c: 13 8b 08 00  	mv	s6, a7
800012a0: ef 20 50 4d  	jal	0x80003f74 <__nedf2>
800012a4: 83 2c 01 09  	lw	s9, 0x90(sp)
800012a8: 63 12 05 58  	bnez	a0, 0x8000182c <_etoa+0x5f4>
800012ac: 97 67 00 00  	auipc	a5, 0x6
800012b0: 93 87 47 01  	addi	a5, a5, 0x14
800012b4: 03 a6 07 00  	lw	a2, 0x0(a5)
800012b8: 83 a6 47 00  	lw	a3, 0x4(a5)
800012bc: 13 05 04 00  	mv	a0, s0
800012c0: 93 85 04 00  	mv	a1, s1
800012c4: ef 20 90 5a  	jal	0x8000406c <__gtdf2>
800012c8: 63 42 a0 56  	bgtz	a0, 0x8000182c <_etoa+0x5f4>
800012cc: 97 67 00 00  	auipc	a5, 0x6
800012d0: 93 87 c7 ff  	addi	a5, a5, -0x4
800012d4: 03 a6 07 00  	lw	a2, 0x0(a5)
800012d8: 83 a6 47 00  	lw	a3, 0x4(a5)
800012dc: 13 05 04 00  	mv	a0, s0
800012e0: 93 85 04 00  	mv	a1, s1
800012e4: ef 20 10 49  	jal	0x80003f74 <__nedf2>
800012e8: 63 42 05 54  	bltz	a0, 0x8000182c <_etoa+0x5f4>
800012ec: 13 05 04 00  	mv	a0, s0
800012f0: 93 85 04 00  	mv	a1, s1
800012f4: 13 06 00 00  	li	a2, 0x0
800012f8: 93 06 00 00  	li	a3, 0x0
800012fc: ef 20 90 47  	jal	0x80003f74 <__nedf2>
80001300: b7 0b 00 80  	lui	s7, 0x80000
80001304: 23 2a 81 00  	sw	s0, 0x14(sp)
80001308: b3 cb 9b 00  	xor	s7, s7, s1
8000130c: 63 44 05 00  	bltz	a0, 0x80001314 <_etoa+0xdc>
80001310: 93 8b 04 00  	mv	s7, s1
80001314: 93 f7 0c 40  	andi	a5, s9, 0x400
80001318: 23 26 f1 02  	sw	a5, 0x2c(sp)
8000131c: 63 94 07 00  	bnez	a5, 0x80001324 <_etoa+0xec>
80001320: 13 0c 60 00  	li	s8, 0x6
80001324: 13 d5 4b 01  	srli	a0, s7, 0x14
80001328: 13 75 f5 7f  	andi	a0, a0, 0x7ff
8000132c: 13 05 15 c0  	addi	a0, a0, -0x3ff
80001330: ef 30 50 1a  	jal	0x80004cd4 <__floatsidf>
80001334: 97 67 00 00  	auipc	a5, 0x6
80001338: 93 87 c7 f9  	addi	a5, a5, -0x64
8000133c: 03 a6 07 00  	lw	a2, 0x0(a5)
80001340: 83 a6 47 00  	lw	a3, 0x4(a5)
80001344: ef 30 10 38  	jal	0x80004ec4 <__muldf3>
80001348: 97 67 00 00  	auipc	a5, 0x6
8000134c: 93 87 07 f9  	addi	a5, a5, -0x70
80001350: 03 a6 07 00  	lw	a2, 0x0(a5)
80001354: 83 a6 47 00  	lw	a3, 0x4(a5)
80001358: ef 20 c0 0d  	jal	0x80003434 <__adddf3>
8000135c: 97 67 00 00  	auipc	a5, 0x6
80001360: 93 87 47 f8  	addi	a5, a5, -0x7c
80001364: 13 97 cb 00  	slli	a4, s7, 0xc
80001368: 13 57 c7 00  	srli	a4, a4, 0xc
8000136c: 03 a6 07 00  	lw	a2, 0x0(a5)
80001370: 83 a6 47 00  	lw	a3, 0x4(a5)
80001374: b7 07 f0 3f  	lui	a5, 0x3ff00
80001378: b3 e7 e7 00  	or	a5, a5, a4
8000137c: 93 0d 05 00  	mv	s11, a0
80001380: 13 8d 05 00  	mv	s10, a1
80001384: 13 05 04 00  	mv	a0, s0
80001388: 93 85 07 00  	mv	a1, a5
8000138c: ef 40 40 42  	jal	0x800057b0 <__subdf3>
80001390: 97 67 00 00  	auipc	a5, 0x6
80001394: 93 87 87 f5  	addi	a5, a5, -0xa8
80001398: 03 a6 07 00  	lw	a2, 0x0(a5)
8000139c: 83 a6 47 00  	lw	a3, 0x4(a5)
800013a0: ef 30 50 32  	jal	0x80004ec4 <__muldf3>
800013a4: 13 06 05 00  	mv	a2, a0
800013a8: 93 86 05 00  	mv	a3, a1
800013ac: 13 85 0d 00  	mv	a0, s11
800013b0: 93 05 0d 00  	mv	a1, s10
800013b4: ef 20 00 08  	jal	0x80003434 <__adddf3>
800013b8: ef 30 80 7a  	jal	0x80004b60 <__fixdfsi>
800013bc: 13 0d 05 00  	mv	s10, a0
800013c0: ef 30 50 11  	jal	0x80004cd4 <__floatsidf>
800013c4: 97 67 00 00  	auipc	a5, 0x6
800013c8: 93 87 c7 f2  	addi	a5, a5, -0xd4
800013cc: 03 a6 07 00  	lw	a2, 0x0(a5)
800013d0: 83 a6 47 00  	lw	a3, 0x4(a5)
800013d4: 93 8d 05 00  	mv	s11, a1
800013d8: 23 28 a1 00  	sw	a0, 0x10(sp)
800013dc: ef 30 90 2e  	jal	0x80004ec4 <__muldf3>
800013e0: 17 67 00 00  	auipc	a4, 0x6
800013e4: 13 07 87 f1  	addi	a4, a4, -0xe8
800013e8: 03 26 07 00  	lw	a2, 0x0(a4)
800013ec: 83 26 47 00  	lw	a3, 0x4(a4)
800013f0: ef 20 40 04  	jal	0x80003434 <__adddf3>
800013f4: ef 30 c0 76  	jal	0x80004b60 <__fixdfsi>
800013f8: 83 27 01 01  	lw	a5, 0x10(sp)
800013fc: 97 66 00 00  	auipc	a3, 0x6
80001400: 93 86 46 f0  	addi	a3, a3, -0xfc
80001404: 03 a6 06 00  	lw	a2, 0x0(a3)
80001408: 83 a6 46 00  	lw	a3, 0x4(a3)
8000140c: 13 07 05 00  	mv	a4, a0
80001410: 93 85 0d 00  	mv	a1, s11
80001414: 13 85 07 00  	mv	a0, a5
80001418: 93 0d 07 00  	mv	s11, a4
8000141c: ef 30 90 2a  	jal	0x80004ec4 <__muldf3>
80001420: 93 07 05 00  	mv	a5, a0
80001424: 13 85 0d 00  	mv	a0, s11
80001428: 23 28 f1 00  	sw	a5, 0x10(sp)
8000142c: 23 2c b1 01  	sw	s11, 0x18(sp)
80001430: 93 8d 05 00  	mv	s11, a1
80001434: ef 30 10 0a  	jal	0x80004cd4 <__floatsidf>
80001438: 17 67 00 00  	auipc	a4, 0x6
8000143c: 13 07 07 ed  	addi	a4, a4, -0x130
80001440: 03 26 07 00  	lw	a2, 0x0(a4)
80001444: 83 26 47 00  	lw	a3, 0x4(a4)
80001448: ef 30 d0 27  	jal	0x80004ec4 <__muldf3>
8000144c: 83 27 01 01  	lw	a5, 0x10(sp)
80001450: 13 06 05 00  	mv	a2, a0
80001454: 93 86 05 00  	mv	a3, a1
80001458: 13 85 07 00  	mv	a0, a5
8000145c: 93 85 0d 00  	mv	a1, s11
80001460: ef 40 00 35  	jal	0x800057b0 <__subdf3>
80001464: 13 06 05 00  	mv	a2, a0
80001468: 93 86 05 00  	mv	a3, a1
8000146c: 23 2e a1 00  	sw	a0, 0x1c(sp)
80001470: 23 28 b1 00  	sw	a1, 0x10(sp)
80001474: ef 30 10 25  	jal	0x80004ec4 <__muldf3>
80001478: 83 27 01 01  	lw	a5, 0x10(sp)
8000147c: 03 27 c1 01  	lw	a4, 0x1c(sp)
80001480: 93 0d 05 00  	mv	s11, a0
80001484: 93 86 07 00  	mv	a3, a5
80001488: 13 88 05 00  	mv	a6, a1
8000148c: 13 06 07 00  	mv	a2, a4
80001490: 93 85 07 00  	mv	a1, a5
80001494: 13 05 07 00  	mv	a0, a4
80001498: 23 22 f1 02  	sw	a5, 0x24(sp)
8000149c: 23 24 e1 02  	sw	a4, 0x28(sp)
800014a0: 23 28 01 01  	sw	a6, 0x10(sp)
800014a4: ef 10 10 79  	jal	0x80003434 <__adddf3>
800014a8: 97 66 00 00  	auipc	a3, 0x6
800014ac: 93 86 86 e6  	addi	a3, a3, -0x198
800014b0: 13 88 05 00  	mv	a6, a1
800014b4: 03 a6 06 00  	lw	a2, 0x0(a3)
800014b8: 83 25 01 01  	lw	a1, 0x10(sp)
800014bc: 83 a6 46 00  	lw	a3, 0x4(a3)
800014c0: 93 08 05 00  	mv	a7, a0
800014c4: 13 85 0d 00  	mv	a0, s11
800014c8: 23 20 11 03  	sw	a7, 0x20(sp)
800014cc: 23 2e 01 01  	sw	a6, 0x1c(sp)
800014d0: ef 20 50 49  	jal	0x80004164 <__divdf3>
800014d4: 17 67 00 00  	auipc	a4, 0x6
800014d8: 13 07 47 e4  	addi	a4, a4, -0x1bc
800014dc: 03 26 07 00  	lw	a2, 0x0(a4)
800014e0: 83 26 47 00  	lw	a3, 0x4(a4)
800014e4: ef 10 10 75  	jal	0x80003434 <__adddf3>
800014e8: 93 86 05 00  	mv	a3, a1
800014ec: 83 25 01 01  	lw	a1, 0x10(sp)
800014f0: 13 06 05 00  	mv	a2, a0
800014f4: 13 85 0d 00  	mv	a0, s11
800014f8: ef 20 d0 46  	jal	0x80004164 <__divdf3>
800014fc: 97 66 00 00  	auipc	a3, 0x6
80001500: 93 86 46 e2  	addi	a3, a3, -0x1dc
80001504: 03 a6 06 00  	lw	a2, 0x0(a3)
80001508: 83 a6 46 00  	lw	a3, 0x4(a3)
8000150c: ef 10 90 72  	jal	0x80003434 <__adddf3>
80001510: 93 86 05 00  	mv	a3, a1
80001514: 83 25 01 01  	lw	a1, 0x10(sp)
80001518: 13 06 05 00  	mv	a2, a0
8000151c: 13 85 0d 00  	mv	a0, s11
80001520: ef 20 50 44  	jal	0x80004164 <__divdf3>
80001524: 03 27 81 02  	lw	a4, 0x28(sp)
80001528: 83 27 41 02  	lw	a5, 0x24(sp)
8000152c: 97 66 00 00  	auipc	a3, 0x6
80001530: 93 86 c6 df  	addi	a3, a3, -0x204
80001534: 13 03 05 00  	mv	t1, a0
80001538: 93 8d 05 00  	mv	s11, a1
8000153c: 03 a5 06 00  	lw	a0, 0x0(a3)
80001540: 83 a5 46 00  	lw	a1, 0x4(a3)
80001544: 13 06 07 00  	mv	a2, a4
80001548: 93 86 07 00  	mv	a3, a5
8000154c: 23 28 61 00  	sw	t1, 0x10(sp)
80001550: ef 40 00 26  	jal	0x800057b0 <__subdf3>
80001554: 03 23 01 01  	lw	t1, 0x10(sp)
80001558: 13 06 05 00  	mv	a2, a0
8000155c: 93 86 05 00  	mv	a3, a1
80001560: 13 05 03 00  	mv	a0, t1
80001564: 93 85 0d 00  	mv	a1, s11
80001568: ef 10 d0 6c  	jal	0x80003434 <__adddf3>
8000156c: 83 28 01 02  	lw	a7, 0x20(sp)
80001570: 03 28 c1 01  	lw	a6, 0x1c(sp)
80001574: 13 06 05 00  	mv	a2, a0
80001578: 93 86 05 00  	mv	a3, a1
8000157c: 13 85 08 00  	mv	a0, a7
80001580: 93 05 08 00  	mv	a1, a6
80001584: ef 20 10 3e  	jal	0x80004164 <__divdf3>
80001588: 97 67 00 00  	auipc	a5, 0x6
8000158c: 93 87 87 da  	addi	a5, a5, -0x258
80001590: 03 a6 07 00  	lw	a2, 0x0(a5)
80001594: 83 a6 47 00  	lw	a3, 0x4(a5)
80001598: ef 10 d0 69  	jal	0x80003434 <__adddf3>
8000159c: 83 27 81 01  	lw	a5, 0x18(sp)
800015a0: 13 06 00 00  	li	a2, 0x0
800015a4: 93 87 f7 3f  	addi	a5, a5, 0x3ff
800015a8: 93 97 47 01  	slli	a5, a5, 0x14
800015ac: 93 86 07 00  	mv	a3, a5
800015b0: ef 30 50 11  	jal	0x80004ec4 <__muldf3>
800015b4: 13 06 05 00  	mv	a2, a0
800015b8: 23 2c a1 00  	sw	a0, 0x18(sp)
800015bc: 93 86 05 00  	mv	a3, a1
800015c0: 23 28 b1 00  	sw	a1, 0x10(sp)
800015c4: 13 05 04 00  	mv	a0, s0
800015c8: 93 85 0b 00  	mv	a1, s7
800015cc: ef 20 90 1a  	jal	0x80003f74 <__nedf2>
800015d0: 83 27 01 01  	lw	a5, 0x10(sp)
800015d4: 03 27 81 01  	lw	a4, 0x18(sp)
800015d8: 63 56 05 02  	bgez	a0, 0x80001604 <_etoa+0x3cc>
800015dc: 97 66 00 00  	auipc	a3, 0x6
800015e0: 93 86 c6 d3  	addi	a3, a3, -0x2c4
800015e4: 03 a6 06 00  	lw	a2, 0x0(a3)
800015e8: 83 a6 46 00  	lw	a3, 0x4(a3)
800015ec: 13 05 07 00  	mv	a0, a4
800015f0: 93 85 07 00  	mv	a1, a5
800015f4: ef 20 10 37  	jal	0x80004164 <__divdf3>
800015f8: 13 0d fd ff  	addi	s10, s10, -0x1
800015fc: 13 07 05 00  	mv	a4, a0
80001600: 93 87 05 00  	mv	a5, a1
80001604: 93 0d 3d 06  	addi	s11, s10, 0x63
80001608: 93 d6 bc 00  	srli	a3, s9, 0xb
8000160c: 13 06 60 0c  	li	a2, 0xc6
80001610: b3 3d b6 01  	sltu	s11, a2, s11
80001614: 93 f6 16 00  	andi	a3, a3, 0x1
80001618: 93 8d 4d 00  	addi	s11, s11, 0x4
8000161c: 63 8a 06 06  	beqz	a3, 0x80001690 <_etoa+0x458>
80001620: 97 66 00 00  	auipc	a3, 0x6
80001624: 93 86 86 d1  	addi	a3, a3, -0x2e8
80001628: 03 a6 06 00  	lw	a2, 0x0(a3)
8000162c: 83 a6 46 00  	lw	a3, 0x4(a3)
80001630: 13 05 04 00  	mv	a0, s0
80001634: 93 85 0b 00  	mv	a1, s7
80001638: 23 2c f1 00  	sw	a5, 0x18(sp)
8000163c: 23 28 e1 00  	sw	a4, 0x10(sp)
80001640: ef 20 d0 22  	jal	0x8000406c <__gtdf2>
80001644: 03 27 01 01  	lw	a4, 0x10(sp)
80001648: 83 27 81 01  	lw	a5, 0x18(sp)
8000164c: 63 44 05 26  	bltz	a0, 0x800018b4 <_etoa+0x67c>
80001650: 97 66 00 00  	auipc	a3, 0x6
80001654: 93 86 06 cf  	addi	a3, a3, -0x310
80001658: 03 a6 06 00  	lw	a2, 0x0(a3)
8000165c: 83 a6 46 00  	lw	a3, 0x4(a3)
80001660: 13 05 04 00  	mv	a0, s0
80001664: 93 85 0b 00  	mv	a1, s7
80001668: ef 20 d0 10  	jal	0x80003f74 <__nedf2>
8000166c: 03 27 01 01  	lw	a4, 0x10(sp)
80001670: 83 27 81 01  	lw	a5, 0x18(sp)
80001674: 63 50 05 24  	bgez	a0, 0x800018b4 <_etoa+0x67c>
80001678: 63 58 8d 25  	bge	s10, s8, 0x800018c8 <_etoa+0x690>
8000167c: 33 0d ac 41  	sub	s10, s8, s10
80001680: 13 0c fd ff  	addi	s8, s10, -0x1
80001684: 93 ec 0c 40  	ori	s9, s9, 0x400
80001688: 93 0d 00 00  	li	s11, 0x0
8000168c: 13 0d 00 00  	li	s10, 0x0
80001690: 93 08 00 00  	li	a7, 0x0
80001694: 63 f4 6d 01  	bgeu	s11, s6, 0x8000169c <_etoa+0x464>
80001698: b3 08 bb 41  	sub	a7, s6, s11
8000169c: 93 f6 2c 00  	andi	a3, s9, 0x2
800016a0: 23 2c d1 00  	sw	a3, 0x18(sp)
800016a4: 63 88 06 00  	beqz	a3, 0x800016b4 <_etoa+0x47c>
800016a8: 93 b6 1d 00  	seqz	a3, s11
800016ac: b3 06 d0 40  	neg	a3, a3
800016b0: b3 f8 d8 00  	and	a7, a7, a3
800016b4: 63 1c 0d 1c  	bnez	s10, 0x8000188c <_etoa+0x654>
800016b8: 13 05 04 00  	mv	a0, s0
800016bc: 93 85 04 00  	mv	a1, s1
800016c0: 13 06 00 00  	li	a2, 0x0
800016c4: 93 06 00 00  	li	a3, 0x0
800016c8: 23 28 11 01  	sw	a7, 0x10(sp)
800016cc: ef 20 90 0a  	jal	0x80003f74 <__nedf2>
800016d0: 83 28 01 01  	lw	a7, 0x10(sp)
800016d4: 63 56 05 00  	bgez	a0, 0x800016e0 <_etoa+0x4a8>
800016d8: b7 07 00 80  	lui	a5, 0x80000
800016dc: b3 cb 77 01  	xor	s7, a5, s7
800016e0: 83 27 41 01  	lw	a5, 0x14(sp)
800016e4: 13 08 0c 00  	mv	a6, s8
800016e8: 93 86 0a 00  	mv	a3, s5
800016ec: 13 86 07 00  	mv	a2, a5
800016f0: b7 f7 ff ff  	lui	a5, 0xfffff
800016f4: 93 87 f7 7f  	addi	a5, a5, 0x7ff
800016f8: b3 f7 fc 00  	and	a5, s9, a5
800016fc: 23 20 f1 00  	sw	a5, 0x0(sp)
80001700: 13 07 06 00  	mv	a4, a2
80001704: 93 87 0b 00  	mv	a5, s7
80001708: 13 06 09 00  	mv	a2, s2
8000170c: 93 05 0a 00  	mv	a1, s4
80001710: 13 85 09 00  	mv	a0, s3
80001714: ef 00 c0 1b  	jal	0x800018d0 <_ftoa>
80001718: 13 04 05 00  	mv	s0, a0
8000171c: 63 88 0d 0c  	beqz	s11, 0x800017ec <_etoa+0x5b4>
80001720: 13 c5 fc ff  	not	a0, s9
80001724: 13 75 05 02  	andi	a0, a0, 0x20
80001728: 13 06 04 00  	mv	a2, s0
8000172c: 93 05 0a 00  	mv	a1, s4
80001730: 93 86 0a 00  	mv	a3, s5
80001734: 13 05 55 04  	addi	a0, a0, 0x45
80001738: e7 80 09 00  	jalr	s3
8000173c: 93 57 fd 41  	srai	a5, s10, 0x1f
80001740: 33 c7 a7 01  	xor	a4, a5, s10
80001744: 33 07 f7 40  	sub	a4, a4, a5
80001748: 13 06 14 00  	addi	a2, s0, 0x1
8000174c: 13 58 fd 01  	srli	a6, s10, 0x1f
80001750: 93 8d fd ff  	addi	s11, s11, -0x1
80001754: 93 07 00 00  	li	a5, 0x0
80001758: 93 05 a0 00  	li	a1, 0xa
8000175c: 13 03 90 00  	li	t1, 0x9
80001760: 13 0e 00 02  	li	t3, 0x20
80001764: 6f 00 80 00  	j	0x8000176c <_etoa+0x534>
80001768: 63 84 c7 03  	beq	a5, t3, 0x80001790 <_etoa+0x558>
8000176c: b3 76 b7 02  	remu	a3, a4, a1
80001770: 13 05 01 03  	addi	a0, sp, 0x30
80001774: 93 87 17 00  	addi	a5, a5, 0x1
80001778: b3 08 f5 00  	add	a7, a0, a5
8000177c: 13 05 07 00  	mv	a0, a4
80001780: 93 86 06 03  	addi	a3, a3, 0x30
80001784: a3 8f d8 fe  	sb	a3, -0x1(a7)
80001788: 33 57 b7 02  	divu	a4, a4, a1
8000178c: e3 6e a3 fc  	bltu	t1, a0, 0x80001768 <_etoa+0x530>
80001790: 13 07 50 00  	li	a4, 0x5
80001794: 23 24 e1 00  	sw	a4, 0x8(sp)
80001798: 23 22 b1 01  	sw	s11, 0x4(sp)
8000179c: 23 20 01 00  	sw	zero, 0x0(sp)
800017a0: 93 08 a0 00  	li	a7, 0xa
800017a4: 13 07 01 03  	addi	a4, sp, 0x30
800017a8: 93 86 0a 00  	mv	a3, s5
800017ac: 93 05 0a 00  	mv	a1, s4
800017b0: 13 85 09 00  	mv	a0, s3
800017b4: ef f0 4f f4  	jal	0x80000ef8 <_ntoa_format>
800017b8: 83 27 81 01  	lw	a5, 0x18(sp)
800017bc: 13 04 05 00  	mv	s0, a0
800017c0: 63 86 07 02  	beqz	a5, 0x800017ec <_etoa+0x5b4>
800017c4: 33 09 25 41  	sub	s2, a0, s2
800017c8: 63 72 69 03  	bgeu	s2, s6, 0x800017ec <_etoa+0x5b4>
800017cc: 13 06 04 00  	mv	a2, s0
800017d0: 13 09 19 00  	addi	s2, s2, 0x1
800017d4: 93 86 0a 00  	mv	a3, s5
800017d8: 93 05 0a 00  	mv	a1, s4
800017dc: 13 05 00 02  	li	a0, 0x20
800017e0: 13 04 14 00  	addi	s0, s0, 0x1
800017e4: e7 80 09 00  	jalr	s3
800017e8: e3 62 69 ff  	bltu	s2, s6, 0x800017cc <_etoa+0x594>
800017ec: 83 20 c1 08  	lw	ra, 0x8c(sp)
800017f0: 13 05 04 00  	mv	a0, s0
800017f4: 03 24 81 08  	lw	s0, 0x88(sp)
800017f8: 83 24 41 08  	lw	s1, 0x84(sp)
800017fc: 03 29 01 08  	lw	s2, 0x80(sp)
80001800: 83 29 c1 07  	lw	s3, 0x7c(sp)
80001804: 03 2a 81 07  	lw	s4, 0x78(sp)
80001808: 83 2a 41 07  	lw	s5, 0x74(sp)
8000180c: 03 2b 01 07  	lw	s6, 0x70(sp)
80001810: 83 2b c1 06  	lw	s7, 0x6c(sp)
80001814: 03 2c 81 06  	lw	s8, 0x68(sp)
80001818: 83 2c 41 06  	lw	s9, 0x64(sp)
8000181c: 03 2d 01 06  	lw	s10, 0x60(sp)
80001820: 83 2d c1 05  	lw	s11, 0x5c(sp)
80001824: 13 01 01 09  	addi	sp, sp, 0x90
80001828: 67 80 00 00  	ret
8000182c: 13 07 04 00  	mv	a4, s0
80001830: 03 24 81 08  	lw	s0, 0x88(sp)
80001834: 23 28 91 09  	sw	s9, 0x90(sp)
80001838: 83 20 c1 08  	lw	ra, 0x8c(sp)
8000183c: 83 2b c1 06  	lw	s7, 0x6c(sp)
80001840: 83 2c 41 06  	lw	s9, 0x64(sp)
80001844: 03 2d 01 06  	lw	s10, 0x60(sp)
80001848: 83 2d c1 05  	lw	s11, 0x5c(sp)
8000184c: 93 87 04 00  	mv	a5, s1
80001850: 93 08 0b 00  	mv	a7, s6
80001854: 83 24 41 08  	lw	s1, 0x84(sp)
80001858: 03 2b 01 07  	lw	s6, 0x70(sp)
8000185c: 13 08 0c 00  	mv	a6, s8
80001860: 93 86 0a 00  	mv	a3, s5
80001864: 03 2c 81 06  	lw	s8, 0x68(sp)
80001868: 83 2a 41 07  	lw	s5, 0x74(sp)
8000186c: 13 06 09 00  	mv	a2, s2
80001870: 93 05 0a 00  	mv	a1, s4
80001874: 03 29 01 08  	lw	s2, 0x80(sp)
80001878: 03 2a 81 07  	lw	s4, 0x78(sp)
8000187c: 13 85 09 00  	mv	a0, s3
80001880: 83 29 c1 07  	lw	s3, 0x7c(sp)
80001884: 13 01 01 09  	addi	sp, sp, 0x90
80001888: 6f 00 80 04  	j	0x800018d0 <_ftoa>
8000188c: 93 85 0b 00  	mv	a1, s7
80001890: 13 06 07 00  	mv	a2, a4
80001894: 13 05 04 00  	mv	a0, s0
80001898: 93 86 07 00  	mv	a3, a5
8000189c: 23 28 11 01  	sw	a7, 0x10(sp)
800018a0: ef 20 50 0c  	jal	0x80004164 <__divdf3>
800018a4: 83 28 01 01  	lw	a7, 0x10(sp)
800018a8: 23 2a a1 00  	sw	a0, 0x14(sp)
800018ac: 93 8b 05 00  	mv	s7, a1
800018b0: 6f f0 9f e0  	j	0x800016b8 <_etoa+0x480>
800018b4: e3 0e 0c dc  	beqz	s8, 0x80001690 <_etoa+0x458>
800018b8: 83 26 c1 02  	lw	a3, 0x2c(sp)
800018bc: b3 36 d0 00  	snez	a3, a3
800018c0: 33 0c dc 40  	sub	s8, s8, a3
800018c4: 6f f0 df dc  	j	0x80001690 <_etoa+0x458>
800018c8: 13 0c 00 00  	li	s8, 0x0
800018cc: 6f f0 9f db  	j	0x80001684 <_etoa+0x44c>

800018d0 <_ftoa>:
800018d0: 13 01 01 f8  	addi	sp, sp, -0x80
800018d4: 23 26 31 07  	sw	s3, 0x6c(sp)
800018d8: 23 2c 81 05  	sw	s8, 0x58(sp)
800018dc: 23 2a 91 05  	sw	s9, 0x54(sp)
800018e0: 23 28 a1 05  	sw	s10, 0x50(sp)
800018e4: 93 09 05 00  	mv	s3, a0
800018e8: 13 8c 05 00  	mv	s8, a1
800018ec: 93 0c 06 00  	mv	s9, a2
800018f0: 13 8d 06 00  	mv	s10, a3
800018f4: 13 06 07 00  	mv	a2, a4
800018f8: 93 86 07 00  	mv	a3, a5
800018fc: 13 05 07 00  	mv	a0, a4
80001900: 93 85 07 00  	mv	a1, a5
80001904: 23 2c 81 06  	sw	s0, 0x78(sp)
80001908: 23 2a 91 06  	sw	s1, 0x74(sp)
8000190c: 23 28 21 07  	sw	s2, 0x70(sp)
80001910: 23 20 61 07  	sw	s6, 0x60(sp)
80001914: 23 26 b1 05  	sw	s11, 0x4c(sp)
80001918: 23 2e 11 06  	sw	ra, 0x7c(sp)
8000191c: 23 24 41 07  	sw	s4, 0x68(sp)
80001920: 23 22 51 07  	sw	s5, 0x64(sp)
80001924: 23 2e 71 05  	sw	s7, 0x5c(sp)
80001928: 93 04 07 00  	mv	s1, a4
8000192c: 13 84 07 00  	mv	s0, a5
80001930: 13 0b 08 00  	mv	s6, a6
80001934: 13 89 08 00  	mv	s2, a7
80001938: ef 20 c0 63  	jal	0x80003f74 <__nedf2>
8000193c: 83 2d 01 08  	lw	s11, 0x80(sp)
80001940: 63 14 05 20  	bnez	a0, 0x80001b48 <_ftoa+0x278>
80001944: 97 67 00 00  	auipc	a5, 0x6
80001948: 93 87 47 98  	addi	a5, a5, -0x67c
8000194c: 03 a6 07 00  	lw	a2, 0x0(a5)
80001950: 83 a6 47 00  	lw	a3, 0x4(a5)
80001954: 13 85 04 00  	mv	a0, s1
80001958: 93 05 04 00  	mv	a1, s0
8000195c: ef 20 80 61  	jal	0x80003f74 <__nedf2>
80001960: 63 40 05 2e  	bltz	a0, 0x80001c40 <_ftoa+0x370>
80001964: 97 67 00 00  	auipc	a5, 0x6
80001968: 93 87 c7 95  	addi	a5, a5, -0x6a4
8000196c: 03 a6 07 00  	lw	a2, 0x0(a5)
80001970: 83 a6 47 00  	lw	a3, 0x4(a5)
80001974: 13 85 04 00  	mv	a0, s1
80001978: 93 05 04 00  	mv	a1, s0
8000197c: ef 20 00 6f  	jal	0x8000406c <__gtdf2>
80001980: 63 44 a0 1a  	bgtz	a0, 0x80001b28 <_ftoa+0x258>
80001984: 17 6a 00 00  	auipc	s4, 0x6
80001988: 13 0a 4a 9c  	addi	s4, s4, -0x63c
8000198c: 03 26 0a 00  	lw	a2, 0x0(s4)
80001990: 83 26 4a 00  	lw	a3, 0x4(s4)
80001994: 13 85 04 00  	mv	a0, s1
80001998: 93 05 04 00  	mv	a1, s0
8000199c: ef 20 00 6d  	jal	0x8000406c <__gtdf2>
800019a0: 63 40 a0 24  	bgtz	a0, 0x80001be0 <_ftoa+0x310>
800019a4: 97 67 00 00  	auipc	a5, 0x6
800019a8: 93 87 c7 9a  	addi	a5, a5, -0x654
800019ac: 03 a6 07 00  	lw	a2, 0x0(a5)
800019b0: 83 a6 47 00  	lw	a3, 0x4(a5)
800019b4: 13 85 04 00  	mv	a0, s1
800019b8: 93 05 04 00  	mv	a1, s0
800019bc: ef 20 80 5b  	jal	0x80003f74 <__nedf2>
800019c0: 63 40 05 22  	bltz	a0, 0x80001be0 <_ftoa+0x310>
800019c4: 13 85 04 00  	mv	a0, s1
800019c8: 93 05 04 00  	mv	a1, s0
800019cc: 13 06 00 00  	li	a2, 0x0
800019d0: 93 06 00 00  	li	a3, 0x0
800019d4: ef 20 00 5a  	jal	0x80003f74 <__nedf2>
800019d8: 63 40 05 1e  	bltz	a0, 0x80001bb8 <_ftoa+0x2e8>
800019dc: 23 2c 01 00  	sw	zero, 0x18(sp)
800019e0: 93 fa 0d 40  	andi	s5, s11, 0x400
800019e4: 63 8c 0a 40  	beqz	s5, 0x80001dfc <_ftoa+0x52c>
800019e8: 93 07 90 00  	li	a5, 0x9
800019ec: 63 f6 67 51  	bgeu	a5, s6, 0x80001ef8 <_ftoa+0x628>
800019f0: 93 0a 7b ff  	addi	s5, s6, -0x9
800019f4: 93 06 00 00  	li	a3, 0x0
800019f8: 93 0b 01 02  	addi	s7, sp, 0x20
800019fc: 13 05 00 03  	li	a0, 0x30
80001a00: 93 05 00 02  	li	a1, 0x20
80001a04: 93 86 16 00  	addi	a3, a3, 0x1
80001a08: 33 86 db 00  	add	a2, s7, a3
80001a0c: a3 0f a6 fe  	sb	a0, -0x1(a2)
80001a10: 33 03 db 40  	sub	t1, s6, a3
80001a14: 63 80 b6 44  	beq	a3, a1, 0x80001e54 <_ftoa+0x584>
80001a18: e3 96 56 ff  	bne	a3, s5, 0x80001a04 <_ftoa+0x134>
80001a1c: 83 27 0a 00  	lw	a5, 0x0(s4)
80001a20: 03 28 4a 00  	lw	a6, 0x4(s4)
80001a24: 23 20 f1 00  	sw	a5, 0x0(sp)
80001a28: 23 22 01 01  	sw	a6, 0x4(sp)
80001a2c: 93 05 04 00  	mv	a1, s0
80001a30: 13 85 04 00  	mv	a0, s1
80001a34: 23 2a 61 00  	sw	t1, 0x14(sp)
80001a38: ef 30 80 12  	jal	0x80004b60 <__fixdfsi>
80001a3c: 13 0a 05 00  	mv	s4, a0
80001a40: ef 30 40 29  	jal	0x80004cd4 <__floatsidf>
80001a44: 13 06 05 00  	mv	a2, a0
80001a48: 93 86 05 00  	mv	a3, a1
80001a4c: 13 85 04 00  	mv	a0, s1
80001a50: 93 05 04 00  	mv	a1, s0
80001a54: ef 30 d0 55  	jal	0x800057b0 <__subdf3>
80001a58: 03 26 01 00  	lw	a2, 0x0(sp)
80001a5c: 83 26 41 00  	lw	a3, 0x4(sp)
80001a60: ef 30 40 46  	jal	0x80004ec4 <__muldf3>
80001a64: 13 8b 05 00  	mv	s6, a1
80001a68: 23 28 a1 00  	sw	a0, 0x10(sp)
80001a6c: ef 30 80 1c  	jal	0x80004c34 <__fixunsdfsi>
80001a70: 23 26 a1 00  	sw	a0, 0xc(sp)
80001a74: ef 30 40 36  	jal	0x80004dd8 <__floatunsidf>
80001a78: 83 27 01 01  	lw	a5, 0x10(sp)
80001a7c: 13 06 05 00  	mv	a2, a0
80001a80: 93 86 05 00  	mv	a3, a1
80001a84: 13 85 07 00  	mv	a0, a5
80001a88: 93 05 0b 00  	mv	a1, s6
80001a8c: ef 30 50 52  	jal	0x800057b0 <__subdf3>
80001a90: 17 6b 00 00  	auipc	s6, 0x6
80001a94: 13 0b 8b 86  	addi	s6, s6, -0x798
80001a98: 03 26 0b 00  	lw	a2, 0x0(s6)
80001a9c: 83 26 4b 00  	lw	a3, 0x4(s6)
80001aa0: 23 28 a1 00  	sw	a0, 0x10(sp)
80001aa4: 23 2e b1 00  	sw	a1, 0x1c(sp)
80001aa8: ef 20 40 5c  	jal	0x8000406c <__gtdf2>
80001aac: 83 28 c1 00  	lw	a7, 0xc(sp)
80001ab0: 03 23 41 01  	lw	t1, 0x14(sp)
80001ab4: 63 56 a0 30  	blez	a0, 0x80001dc0 <_ftoa+0x4f0>
80001ab8: 93 88 18 00  	addi	a7, a7, 0x1
80001abc: 13 85 08 00  	mv	a0, a7
80001ac0: 23 28 61 00  	sw	t1, 0x10(sp)
80001ac4: 23 26 11 01  	sw	a7, 0xc(sp)
80001ac8: ef 30 00 31  	jal	0x80004dd8 <__floatunsidf>
80001acc: 03 26 01 00  	lw	a2, 0x0(sp)
80001ad0: 83 26 41 00  	lw	a3, 0x4(sp)
80001ad4: ef 20 80 59  	jal	0x8000406c <__gtdf2>
80001ad8: 83 28 c1 00  	lw	a7, 0xc(sp)
80001adc: 03 23 01 01  	lw	t1, 0x10(sp)
80001ae0: 63 46 05 00  	bltz	a0, 0x80001aec <_ftoa+0x21c>
80001ae4: 13 0a 1a 00  	addi	s4, s4, 0x1
80001ae8: 93 08 00 00  	li	a7, 0x0
80001aec: 63 06 03 16  	beqz	t1, 0x80001c58 <_ftoa+0x388>
80001af0: 13 05 00 02  	li	a0, 0x20
80001af4: 13 06 a0 00  	li	a2, 0xa
80001af8: 13 0e 90 00  	li	t3, 0x9
80001afc: 63 88 aa 34  	beq	s5, a0, 0x80001e4c <_ftoa+0x57c>
80001b00: b3 f6 c8 02  	remu	a3, a7, a2
80001b04: 93 8a 1a 00  	addi	s5, s5, 0x1
80001b08: b3 85 5b 01  	add	a1, s7, s5
80001b0c: 13 03 f3 ff  	addi	t1, t1, -0x1
80001b10: 93 86 06 03  	addi	a3, a3, 0x30
80001b14: a3 8f d5 fe  	sb	a3, -0x1(a1)
80001b18: b3 d6 c8 02  	divu	a3, a7, a2
80001b1c: 63 72 1e 31  	bgeu	t3, a7, 0x80001e20 <_ftoa+0x550>
80001b20: 93 88 06 00  	mv	a7, a3
80001b24: 6f f0 9f fd  	j	0x80001afc <_ftoa+0x22c>
80001b28: 93 f7 4d 00  	andi	a5, s11, 0x4
80001b2c: 63 9e 07 06  	bnez	a5, 0x80001ba8 <_ftoa+0x2d8>
80001b30: 17 47 00 00  	auipc	a4, 0x4
80001b34: 13 07 07 3b  	addi	a4, a4, 0x3b0
80001b38: 93 07 30 00  	li	a5, 0x3
80001b3c: 93 88 0d 00  	mv	a7, s11
80001b40: 13 08 09 00  	mv	a6, s2
80001b44: 6f 00 80 01  	j	0x80001b5c <_ftoa+0x28c>
80001b48: 93 88 0d 00  	mv	a7, s11
80001b4c: 13 08 09 00  	mv	a6, s2
80001b50: 93 07 30 00  	li	a5, 0x3
80001b54: 17 47 00 00  	auipc	a4, 0x4
80001b58: 13 07 07 39  	addi	a4, a4, 0x390
80001b5c: 03 24 81 07  	lw	s0, 0x78(sp)
80001b60: 83 20 c1 07  	lw	ra, 0x7c(sp)
80001b64: 83 24 41 07  	lw	s1, 0x74(sp)
80001b68: 03 29 01 07  	lw	s2, 0x70(sp)
80001b6c: 03 2a 81 06  	lw	s4, 0x68(sp)
80001b70: 83 2a 41 06  	lw	s5, 0x64(sp)
80001b74: 03 2b 01 06  	lw	s6, 0x60(sp)
80001b78: 83 2b c1 05  	lw	s7, 0x5c(sp)
80001b7c: 83 2d c1 04  	lw	s11, 0x4c(sp)
80001b80: 93 06 0d 00  	mv	a3, s10
80001b84: 13 86 0c 00  	mv	a2, s9
80001b88: 03 2d 01 05  	lw	s10, 0x50(sp)
80001b8c: 83 2c 41 05  	lw	s9, 0x54(sp)
80001b90: 93 05 0c 00  	mv	a1, s8
80001b94: 13 85 09 00  	mv	a0, s3
80001b98: 03 2c 81 05  	lw	s8, 0x58(sp)
80001b9c: 83 29 c1 06  	lw	s3, 0x6c(sp)
80001ba0: 13 01 01 08  	addi	sp, sp, 0x80
80001ba4: 6f f0 8f a2  	j	0x80000dcc <_out_rev>
80001ba8: 17 47 00 00  	auipc	a4, 0x4
80001bac: 13 07 07 33  	addi	a4, a4, 0x330
80001bb0: 93 07 40 00  	li	a5, 0x4
80001bb4: 6f f0 9f f8  	j	0x80001b3c <_ftoa+0x26c>
80001bb8: 13 86 04 00  	mv	a2, s1
80001bbc: 93 06 04 00  	mv	a3, s0
80001bc0: 13 05 00 00  	li	a0, 0x0
80001bc4: 93 05 00 00  	li	a1, 0x0
80001bc8: ef 30 90 3e  	jal	0x800057b0 <__subdf3>
80001bcc: 93 07 10 00  	li	a5, 0x1
80001bd0: 93 04 05 00  	mv	s1, a0
80001bd4: 13 84 05 00  	mv	s0, a1
80001bd8: 23 2c f1 00  	sw	a5, 0x18(sp)
80001bdc: 6f f0 5f e0  	j	0x800019e0 <_ftoa+0x110>
80001be0: 93 07 04 00  	mv	a5, s0
80001be4: 03 24 81 07  	lw	s0, 0x78(sp)
80001be8: 23 20 b1 09  	sw	s11, 0x80(sp)
80001bec: 83 20 c1 07  	lw	ra, 0x7c(sp)
80001bf0: 03 2a 81 06  	lw	s4, 0x68(sp)
80001bf4: 83 2a 41 06  	lw	s5, 0x64(sp)
80001bf8: 83 2b c1 05  	lw	s7, 0x5c(sp)
80001bfc: 83 2d c1 04  	lw	s11, 0x4c(sp)
80001c00: 13 87 04 00  	mv	a4, s1
80001c04: 93 08 09 00  	mv	a7, s2
80001c08: 83 24 41 07  	lw	s1, 0x74(sp)
80001c0c: 03 29 01 07  	lw	s2, 0x70(sp)
80001c10: 13 08 0b 00  	mv	a6, s6
80001c14: 93 06 0d 00  	mv	a3, s10
80001c18: 03 2b 01 06  	lw	s6, 0x60(sp)
80001c1c: 03 2d 01 05  	lw	s10, 0x50(sp)
80001c20: 13 86 0c 00  	mv	a2, s9
80001c24: 93 05 0c 00  	mv	a1, s8
80001c28: 83 2c 41 05  	lw	s9, 0x54(sp)
80001c2c: 03 2c 81 05  	lw	s8, 0x58(sp)
80001c30: 13 85 09 00  	mv	a0, s3
80001c34: 83 29 c1 06  	lw	s3, 0x6c(sp)
80001c38: 13 01 01 08  	addi	sp, sp, 0x80
80001c3c: 6f f0 cf df  	j	0x80001238 <_etoa>
80001c40: 93 88 0d 00  	mv	a7, s11
80001c44: 13 08 09 00  	mv	a6, s2
80001c48: 93 07 40 00  	li	a5, 0x4
80001c4c: 17 47 00 00  	auipc	a4, 0x4
80001c50: 13 07 c7 29  	addi	a4, a4, 0x29c
80001c54: 6f f0 9f f0  	j	0x80001b5c <_ftoa+0x28c>
80001c58: 13 05 0a 00  	mv	a0, s4
80001c5c: ef 30 80 07  	jal	0x80004cd4 <__floatsidf>
80001c60: 13 06 05 00  	mv	a2, a0
80001c64: 93 86 05 00  	mv	a3, a1
80001c68: 13 85 04 00  	mv	a0, s1
80001c6c: 93 05 04 00  	mv	a1, s0
80001c70: ef 30 10 34  	jal	0x800057b0 <__subdf3>
80001c74: 03 24 0b 00  	lw	s0, 0x0(s6)
80001c78: 83 24 4b 00  	lw	s1, 0x4(s6)
80001c7c: 23 20 a1 00  	sw	a0, 0x0(sp)
80001c80: 13 06 04 00  	mv	a2, s0
80001c84: 93 86 04 00  	mv	a3, s1
80001c88: 13 8b 05 00  	mv	s6, a1
80001c8c: ef 20 80 2e  	jal	0x80003f74 <__nedf2>
80001c90: 63 5e 05 00  	bgez	a0, 0x80001cac <_ftoa+0x3dc>
80001c94: 03 25 01 00  	lw	a0, 0x0(sp)
80001c98: 93 05 0b 00  	mv	a1, s6
80001c9c: 13 06 04 00  	mv	a2, s0
80001ca0: 93 86 04 00  	mv	a3, s1
80001ca4: ef 20 80 3c  	jal	0x8000406c <__gtdf2>
80001ca8: 63 56 a0 00  	blez	a0, 0x80001cb4 <_ftoa+0x3e4>
80001cac: 93 76 1a 00  	andi	a3, s4, 0x1
80001cb0: 33 0a da 00  	add	s4, s4, a3
80001cb4: 13 05 00 02  	li	a0, 0x20
80001cb8: 13 06 a0 00  	li	a2, 0xa
80001cbc: 63 8a aa 0a  	beq	s5, a0, 0x80001d70 <_ftoa+0x4a0>
80001cc0: b3 66 ca 02  	rem	a3, s4, a2
80001cc4: 93 8a 1a 00  	addi	s5, s5, 0x1
80001cc8: b3 85 5b 01  	add	a1, s7, s5
80001ccc: 33 4a ca 02  	div	s4, s4, a2
80001cd0: 93 86 06 03  	addi	a3, a3, 0x30
80001cd4: a3 8f d5 fe  	sb	a3, -0x1(a1)
80001cd8: e3 12 0a fe  	bnez	s4, 0x80001cbc <_ftoa+0x3ec>
80001cdc: 93 f6 3d 00  	andi	a3, s11, 0x3
80001ce0: 13 06 10 00  	li	a2, 0x1
80001ce4: 63 82 c6 24  	beq	a3, a2, 0x80001f28 <_ftoa+0x658>
80001ce8: 93 06 00 02  	li	a3, 0x20
80001cec: 63 82 da 02  	beq	s5, a3, 0x80001d10 <_ftoa+0x440>
80001cf0: 83 27 81 01  	lw	a5, 0x18(sp)
80001cf4: 63 80 07 18  	beqz	a5, 0x80001e74 <_ftoa+0x5a4>
80001cf8: 93 87 0a 02  	addi	a5, s5, 0x20
80001cfc: 13 07 01 02  	addi	a4, sp, 0x20
80001d00: b3 86 e7 00  	add	a3, a5, a4
80001d04: 13 06 d0 02  	li	a2, 0x2d
80001d08: 23 80 c6 fe  	sb	a2, -0x20(a3)
80001d0c: 93 8a 1a 00  	addi	s5, s5, 0x1
80001d10: 93 88 0d 00  	mv	a7, s11
80001d14: 13 08 09 00  	mv	a6, s2
80001d18: 93 87 0a 00  	mv	a5, s5
80001d1c: 13 87 0b 00  	mv	a4, s7
80001d20: 93 06 0d 00  	mv	a3, s10
80001d24: 13 86 0c 00  	mv	a2, s9
80001d28: 93 05 0c 00  	mv	a1, s8
80001d2c: 13 85 09 00  	mv	a0, s3
80001d30: ef f0 cf 89  	jal	0x80000dcc <_out_rev>
80001d34: 83 20 c1 07  	lw	ra, 0x7c(sp)
80001d38: 03 24 81 07  	lw	s0, 0x78(sp)
80001d3c: 83 24 41 07  	lw	s1, 0x74(sp)
80001d40: 03 29 01 07  	lw	s2, 0x70(sp)
80001d44: 83 29 c1 06  	lw	s3, 0x6c(sp)
80001d48: 03 2a 81 06  	lw	s4, 0x68(sp)
80001d4c: 83 2a 41 06  	lw	s5, 0x64(sp)
80001d50: 03 2b 01 06  	lw	s6, 0x60(sp)
80001d54: 83 2b c1 05  	lw	s7, 0x5c(sp)
80001d58: 03 2c 81 05  	lw	s8, 0x58(sp)
80001d5c: 83 2c 41 05  	lw	s9, 0x54(sp)
80001d60: 03 2d 01 05  	lw	s10, 0x50(sp)
80001d64: 83 2d c1 04  	lw	s11, 0x4c(sp)
80001d68: 13 01 01 08  	addi	sp, sp, 0x80
80001d6c: 67 80 00 00  	ret
80001d70: 93 f6 3d 00  	andi	a3, s11, 0x3
80001d74: 13 06 10 00  	li	a2, 0x1
80001d78: e3 9c c6 f8  	bne	a3, a2, 0x80001d10 <_ftoa+0x440>
80001d7c: e3 0a 09 f8  	beqz	s2, 0x80001d10 <_ftoa+0x440>
80001d80: 83 27 81 01  	lw	a5, 0x18(sp)
80001d84: 63 94 07 16  	bnez	a5, 0x80001eec <_ftoa+0x61c>
80001d88: 93 f6 cd 00  	andi	a3, s11, 0xc
80001d8c: 63 90 06 16  	bnez	a3, 0x80001eec <_ftoa+0x61c>
80001d90: 63 fe 2a 0d  	bgeu	s5, s2, 0x80001e6c <_ftoa+0x59c>
80001d94: 93 06 00 02  	li	a3, 0x20
80001d98: 13 06 00 03  	li	a2, 0x30
80001d9c: 93 05 00 02  	li	a1, 0x20
80001da0: 63 8c da 00  	beq	s5, a3, 0x80001db8 <_ftoa+0x4e8>
80001da4: 93 8a 1a 00  	addi	s5, s5, 0x1
80001da8: b3 86 5b 01  	add	a3, s7, s5
80001dac: a3 8f c6 fe  	sb	a2, -0x1(a3)
80001db0: e3 8c 2a f3  	beq	s5, s2, 0x80001ce8 <_ftoa+0x418>
80001db4: e3 98 ba fe  	bne	s5, a1, 0x80001da4 <_ftoa+0x4d4>
80001db8: 93 0a 00 02  	li	s5, 0x20
80001dbc: 6f f0 5f f5  	j	0x80001d10 <_ftoa+0x440>
80001dc0: 97 57 00 00  	auipc	a5, 0x5
80001dc4: 93 87 87 53  	addi	a5, a5, 0x538
80001dc8: 03 25 01 01  	lw	a0, 0x10(sp)
80001dcc: 83 25 c1 01  	lw	a1, 0x1c(sp)
80001dd0: 03 a6 07 00  	lw	a2, 0x0(a5)
80001dd4: 83 a6 47 00  	lw	a3, 0x4(a5)
80001dd8: 23 26 11 01  	sw	a7, 0xc(sp)
80001ddc: 23 20 61 00  	sw	t1, 0x0(sp)
80001de0: ef 20 40 19  	jal	0x80003f74 <__nedf2>
80001de4: 03 23 01 00  	lw	t1, 0x0(sp)
80001de8: 83 28 c1 00  	lw	a7, 0xc(sp)
80001dec: e3 40 05 d0  	bltz	a0, 0x80001aec <_ftoa+0x21c>
80001df0: 63 96 08 0e  	bnez	a7, 0x80001edc <_ftoa+0x60c>
80001df4: 93 88 18 00  	addi	a7, a7, 0x1
80001df8: 6f f0 5f cf  	j	0x80001aec <_ftoa+0x21c>
80001dfc: 17 57 00 00  	auipc	a4, 0x5
80001e00: 13 07 47 54  	addi	a4, a4, 0x544
80001e04: 83 27 07 00  	lw	a5, 0x0(a4)
80001e08: 03 28 47 00  	lw	a6, 0x4(a4)
80001e0c: 13 03 60 00  	li	t1, 0x6
80001e10: 23 20 f1 00  	sw	a5, 0x0(sp)
80001e14: 23 22 01 01  	sw	a6, 0x4(sp)
80001e18: 93 0b 01 02  	addi	s7, sp, 0x20
80001e1c: 6f f0 1f c1  	j	0x80001a2c <_ftoa+0x15c>
80001e20: 63 86 aa 02  	beq	s5, a0, 0x80001e4c <_ftoa+0x57c>
80001e24: 33 06 53 01  	add	a2, t1, s5
80001e28: 13 05 00 03  	li	a0, 0x30
80001e2c: 93 05 00 02  	li	a1, 0x20
80001e30: 63 16 03 00  	bnez	t1, 0x80001e3c <_ftoa+0x56c>
80001e34: 6f 00 c0 06  	j	0x80001ea0 <_ftoa+0x5d0>
80001e38: 63 86 ca 06  	beq	s5, a2, 0x80001ea4 <_ftoa+0x5d4>
80001e3c: 93 8a 1a 00  	addi	s5, s5, 0x1
80001e40: b3 86 5b 01  	add	a3, s7, s5
80001e44: a3 8f a6 fe  	sb	a0, -0x1(a3)
80001e48: e3 98 ba fe  	bne	s5, a1, 0x80001e38 <_ftoa+0x568>
80001e4c: 93 0a 00 02  	li	s5, 0x20
80001e50: 6f f0 5f e6  	j	0x80001cb4 <_ftoa+0x3e4>
80001e54: 83 27 0a 00  	lw	a5, 0x0(s4)
80001e58: 03 28 4a 00  	lw	a6, 0x4(s4)
80001e5c: 93 0a 00 02  	li	s5, 0x20
80001e60: 23 20 f1 00  	sw	a5, 0x0(sp)
80001e64: 23 22 01 01  	sw	a6, 0x4(sp)
80001e68: 6f f0 5f bc  	j	0x80001a2c <_ftoa+0x15c>
80001e6c: 93 06 00 02  	li	a3, 0x20
80001e70: e3 80 da ea  	beq	s5, a3, 0x80001d10 <_ftoa+0x440>
80001e74: 93 f6 4d 00  	andi	a3, s11, 0x4
80001e78: 63 94 06 04  	bnez	a3, 0x80001ec0 <_ftoa+0x5f0>
80001e7c: 93 f6 8d 00  	andi	a3, s11, 0x8
80001e80: e3 88 06 e8  	beqz	a3, 0x80001d10 <_ftoa+0x440>
80001e84: 93 87 0a 02  	addi	a5, s5, 0x20
80001e88: 13 07 01 02  	addi	a4, sp, 0x20
80001e8c: b3 86 e7 00  	add	a3, a5, a4
80001e90: 13 06 00 02  	li	a2, 0x20
80001e94: 23 80 c6 fe  	sb	a2, -0x20(a3)
80001e98: 93 8a 1a 00  	addi	s5, s5, 0x1
80001e9c: 6f f0 5f e7  	j	0x80001d10 <_ftoa+0x440>
80001ea0: 13 86 0a 00  	mv	a2, s5
80001ea4: 93 07 06 02  	addi	a5, a2, 0x20
80001ea8: 13 07 01 02  	addi	a4, sp, 0x20
80001eac: b3 86 e7 00  	add	a3, a5, a4
80001eb0: 93 0a 16 00  	addi	s5, a2, 0x1
80001eb4: 13 06 e0 02  	li	a2, 0x2e
80001eb8: 23 80 c6 fe  	sb	a2, -0x20(a3)
80001ebc: 6f f0 9f df  	j	0x80001cb4 <_ftoa+0x3e4>
80001ec0: 93 87 0a 02  	addi	a5, s5, 0x20
80001ec4: 13 07 01 02  	addi	a4, sp, 0x20
80001ec8: b3 86 e7 00  	add	a3, a5, a4
80001ecc: 13 06 b0 02  	li	a2, 0x2b
80001ed0: 23 80 c6 fe  	sb	a2, -0x20(a3)
80001ed4: 93 8a 1a 00  	addi	s5, s5, 0x1
80001ed8: 6f f0 9f e3  	j	0x80001d10 <_ftoa+0x440>
80001edc: 93 f6 18 00  	andi	a3, a7, 0x1
80001ee0: e3 86 06 c0  	beqz	a3, 0x80001aec <_ftoa+0x21c>
80001ee4: 93 88 18 00  	addi	a7, a7, 0x1
80001ee8: 6f f0 5f c0  	j	0x80001aec <_ftoa+0x21c>
80001eec: 13 09 f9 ff  	addi	s2, s2, -0x1
80001ef0: e3 e2 2a eb  	bltu	s5, s2, 0x80001d94 <_ftoa+0x4c4>
80001ef4: 6f f0 5f df  	j	0x80001ce8 <_ftoa+0x418>
80001ef8: 13 17 3b 00  	slli	a4, s6, 0x3
80001efc: 97 47 00 00  	auipc	a5, 0x4
80001f00: 93 87 47 19  	addi	a5, a5, 0x194
80001f04: b3 87 e7 00  	add	a5, a5, a4
80001f08: 03 a8 47 00  	lw	a6, 0x4(a5)
80001f0c: 83 a7 07 00  	lw	a5, 0x0(a5)
80001f10: 13 03 0b 00  	mv	t1, s6
80001f14: 23 22 01 01  	sw	a6, 0x4(sp)
80001f18: 23 20 f1 00  	sw	a5, 0x0(sp)
80001f1c: 93 0a 00 00  	li	s5, 0x0
80001f20: 93 0b 01 02  	addi	s7, sp, 0x20
80001f24: 6f f0 9f b0  	j	0x80001a2c <_ftoa+0x15c>
80001f28: e3 00 09 dc  	beqz	s2, 0x80001ce8 <_ftoa+0x418>
80001f2c: 6f f0 5f e5  	j	0x80001d80 <_ftoa+0x4b0>

80001f30 <_vsnprintf>:
80001f30: 13 01 01 f7  	addi	sp, sp, -0x90
80001f34: 23 20 21 09  	sw	s2, 0x80(sp)
80001f38: 23 28 61 07  	sw	s6, 0x70(sp)
80001f3c: 23 26 71 07  	sw	s7, 0x6c(sp)
80001f40: 23 22 91 07  	sw	s9, 0x64(sp)
80001f44: 23 2e b1 05  	sw	s11, 0x5c(sp)
80001f48: 23 26 11 08  	sw	ra, 0x8c(sp)
80001f4c: 23 24 81 08  	sw	s0, 0x88(sp)
80001f50: 23 22 91 08  	sw	s1, 0x84(sp)
80001f54: 23 2e 31 07  	sw	s3, 0x7c(sp)
80001f58: 23 2c 41 07  	sw	s4, 0x78(sp)
80001f5c: 23 2a 51 07  	sw	s5, 0x74(sp)
80001f60: 23 24 81 07  	sw	s8, 0x68(sp)
80001f64: 23 20 a1 07  	sw	s10, 0x60(sp)
80001f68: 13 8b 05 00  	mv	s6, a1
80001f6c: 93 0d 06 00  	mv	s11, a2
80001f70: 13 89 06 00  	mv	s2, a3
80001f74: 93 0c 07 00  	mv	s9, a4
80001f78: 97 fb ff ff  	auipc	s7, 0xfffff
80001f7c: 93 8b 0b e5  	addi	s7, s7, -0x1b0
80001f80: 63 84 05 00  	beqz	a1, 0x80001f88 <_vsnprintf+0x58>
80001f84: 93 0b 05 00  	mv	s7, a0
80001f88: 03 45 09 00  	lbu	a0, 0x0(s2)
80001f8c: 13 04 00 00  	li	s0, 0x0
80001f90: 63 04 05 78  	beqz	a0, 0x80002718 <_vsnprintf+0x7e8>
80001f94: b7 97 00 00  	lui	a5, 0x9
80001f98: 93 87 17 04  	addi	a5, a5, 0x41
80001f9c: 93 0a 50 02  	li	s5, 0x25
80001fa0: 13 0a 00 01  	li	s4, 0x10
80001fa4: 97 49 00 00  	auipc	s3, 0x4
80001fa8: 93 89 c9 f4  	addi	s3, s3, -0xb4
80001fac: 23 2a f1 00  	sw	a5, 0x14(sp)
80001fb0: 6f 00 00 02  	j	0x80001fd0 <_vsnprintf+0xa0>
80001fb4: 13 06 04 00  	mv	a2, s0
80001fb8: 93 86 0d 00  	mv	a3, s11
80001fbc: 93 05 0b 00  	mv	a1, s6
80001fc0: 13 04 14 00  	addi	s0, s0, 0x1
80001fc4: e7 80 0b 00  	jalr	s7
80001fc8: 03 45 09 00  	lbu	a0, 0x0(s2)
80001fcc: 63 0a 05 1c  	beqz	a0, 0x800021a0 <_vsnprintf+0x270>
80001fd0: 13 09 19 00  	addi	s2, s2, 0x1
80001fd4: e3 10 55 ff  	bne	a0, s5, 0x80001fb4 <_vsnprintf+0x84>
80001fd8: 93 06 00 00  	li	a3, 0x0
80001fdc: 03 45 09 00  	lbu	a0, 0x0(s2)
80001fe0: 13 07 19 00  	addi	a4, s2, 0x1
80001fe4: 93 07 05 fe  	addi	a5, a0, -0x20
80001fe8: 93 f7 f7 0f  	andi	a5, a5, 0xff
80001fec: 63 6c fa 00  	bltu	s4, a5, 0x80002004 <_vsnprintf+0xd4>
80001ff0: 93 97 27 00  	slli	a5, a5, 0x2
80001ff4: b3 87 37 01  	add	a5, a5, s3
80001ff8: 83 a7 07 00  	lw	a5, 0x0(a5)
80001ffc: b3 87 37 01  	add	a5, a5, s3
80002000: 67 80 07 00  	jr	a5
80002004: 93 07 05 fd  	addi	a5, a0, -0x30
80002008: 93 f7 f7 0f  	andi	a5, a5, 0xff
8000200c: 13 06 90 00  	li	a2, 0x9
80002010: 63 78 f6 1e  	bgeu	a2, a5, 0x80002200 <_vsnprintf+0x2d0>
80002014: 93 07 a0 02  	li	a5, 0x2a
80002018: 93 08 00 00  	li	a7, 0x0
8000201c: 63 02 f5 26  	beq	a0, a5, 0x80002280 <_vsnprintf+0x350>
80002020: 93 07 e0 02  	li	a5, 0x2e
80002024: 13 08 00 00  	li	a6, 0x0
80002028: 63 04 f5 22  	beq	a0, a5, 0x80002250 <_vsnprintf+0x320>
8000202c: 93 07 85 f9  	addi	a5, a0, -0x68
80002030: 93 f7 f7 0f  	andi	a5, a5, 0xff
80002034: 13 06 20 01  	li	a2, 0x12
80002038: 63 64 f6 06  	bltu	a2, a5, 0x800020a0 <_vsnprintf+0x170>
8000203c: 17 46 00 00  	auipc	a2, 0x4
80002040: 13 06 86 ef  	addi	a2, a2, -0x108
80002044: 93 97 27 00  	slli	a5, a5, 0x2
80002048: b3 87 c7 00  	add	a5, a5, a2
8000204c: 83 a7 07 00  	lw	a5, 0x0(a5)
80002050: b3 87 c7 00  	add	a5, a5, a2
80002054: 67 80 07 00  	jr	a5
80002058: 93 e6 16 00  	ori	a3, a3, 0x1
8000205c: 13 09 07 00  	mv	s2, a4
80002060: 6f f0 df f7  	j	0x80001fdc <_vsnprintf+0xac>
80002064: 93 e6 26 00  	ori	a3, a3, 0x2
80002068: 13 09 07 00  	mv	s2, a4
8000206c: 6f f0 1f f7  	j	0x80001fdc <_vsnprintf+0xac>
80002070: 93 e6 46 00  	ori	a3, a3, 0x4
80002074: 13 09 07 00  	mv	s2, a4
80002078: 6f f0 5f f6  	j	0x80001fdc <_vsnprintf+0xac>
8000207c: 93 e6 06 01  	ori	a3, a3, 0x10
80002080: 13 09 07 00  	mv	s2, a4
80002084: 6f f0 9f f5  	j	0x80001fdc <_vsnprintf+0xac>
80002088: 93 e6 86 00  	ori	a3, a3, 0x8
8000208c: 13 09 07 00  	mv	s2, a4
80002090: 6f f0 df f4  	j	0x80001fdc <_vsnprintf+0xac>
80002094: 03 45 19 00  	lbu	a0, 0x1(s2)
80002098: 93 e6 06 10  	ori	a3, a3, 0x100
8000209c: 13 07 17 00  	addi	a4, a4, 0x1
800020a0: 93 07 70 06  	li	a5, 0x67
800020a4: 13 09 07 00  	mv	s2, a4
800020a8: 63 ec a7 02  	bltu	a5, a0, 0x800020e0 <_vsnprintf+0x1b0>
800020ac: 93 07 40 02  	li	a5, 0x24
800020b0: e3 f2 a7 f0  	bgeu	a5, a0, 0x80001fb4 <_vsnprintf+0x84>
800020b4: 93 07 b5 fd  	addi	a5, a0, -0x25
800020b8: 93 f7 f7 0f  	andi	a5, a5, 0xff
800020bc: 13 07 20 04  	li	a4, 0x42
800020c0: e3 6a f7 ee  	bltu	a4, a5, 0x80001fb4 <_vsnprintf+0x84>
800020c4: 17 47 00 00  	auipc	a4, 0x4
800020c8: 13 07 c7 eb  	addi	a4, a4, -0x144
800020cc: 93 97 27 00  	slli	a5, a5, 0x2
800020d0: b3 87 e7 00  	add	a5, a5, a4
800020d4: 83 a7 07 00  	lw	a5, 0x0(a5)
800020d8: b3 87 e7 00  	add	a5, a5, a4
800020dc: 67 80 07 00  	jr	a5
800020e0: 93 07 75 f9  	addi	a5, a0, -0x69
800020e4: 93 f7 f7 0f  	andi	a5, a5, 0xff
800020e8: 13 07 f0 00  	li	a4, 0xf
800020ec: e3 64 f7 ec  	bltu	a4, a5, 0x80001fb4 <_vsnprintf+0x84>
800020f0: 03 27 41 01  	lw	a4, 0x14(sp)
800020f4: 93 04 10 00  	li	s1, 0x1
800020f8: b3 94 f4 00  	sll	s1, s1, a5
800020fc: b3 f4 e4 00  	and	s1, s1, a4
80002100: 63 96 04 58  	bnez	s1, 0x8000268c <_vsnprintf+0x75c>
80002104: 13 07 a0 00  	li	a4, 0xa
80002108: 63 88 e7 2e  	beq	a5, a4, 0x800023f8 <_vsnprintf+0x4c8>
8000210c: 13 07 70 00  	li	a4, 0x7
80002110: e3 92 e7 ea  	bne	a5, a4, 0x80001fb4 <_vsnprintf+0x84>
80002114: 83 a7 0c 00  	lw	a5, 0x0(s9)
80002118: 93 e5 16 02  	ori	a1, a3, 0x21
8000211c: 93 8c 4c 00  	addi	s9, s9, 0x4
80002120: 63 82 07 3e  	beqz	a5, 0x80002504 <_vsnprintf+0x5d4>
80002124: 13 07 01 03  	addi	a4, sp, 0x30
80002128: 93 08 90 00  	li	a7, 0x9
8000212c: 13 05 f0 00  	li	a0, 0xf
80002130: 13 03 00 02  	li	t1, 0x20
80002134: 6f 00 c0 00  	j	0x80002140 <_vsnprintf+0x210>
80002138: 63 86 64 02  	beq	s1, t1, 0x80002164 <_vsnprintf+0x234>
8000213c: 93 87 06 00  	mv	a5, a3
80002140: 13 fe f7 00  	andi	t3, a5, 0xf
80002144: 13 06 7e 03  	addi	a2, t3, 0x37
80002148: 63 e4 c8 01  	bltu	a7, t3, 0x80002150 <_vsnprintf+0x220>
8000214c: 13 06 0e 03  	addi	a2, t3, 0x30
80002150: 93 84 14 00  	addi	s1, s1, 0x1
80002154: b3 06 97 00  	add	a3, a4, s1
80002158: a3 8f c6 fe  	sb	a2, -0x1(a3)
8000215c: 93 d6 47 00  	srli	a3, a5, 0x4
80002160: e3 6c f5 fc  	bltu	a0, a5, 0x80002138 <_vsnprintf+0x208>
80002164: 93 07 80 00  	li	a5, 0x8
80002168: 23 22 f1 00  	sw	a5, 0x4(sp)
8000216c: 23 20 01 01  	sw	a6, 0x0(sp)
80002170: 13 06 04 00  	mv	a2, s0
80002174: 23 24 b1 00  	sw	a1, 0x8(sp)
80002178: 93 08 00 01  	li	a7, 0x10
8000217c: 13 08 00 00  	li	a6, 0x0
80002180: 93 87 04 00  	mv	a5, s1
80002184: 93 86 0d 00  	mv	a3, s11
80002188: 93 05 0b 00  	mv	a1, s6
8000218c: 13 85 0b 00  	mv	a0, s7
80002190: ef e0 9f d6  	jal	0x80000ef8 <_ntoa_format>
80002194: 13 04 05 00  	mv	s0, a0
80002198: 03 45 09 00  	lbu	a0, 0x0(s2)
8000219c: e3 1a 05 e2  	bnez	a0, 0x80001fd0 <_vsnprintf+0xa0>
800021a0: 93 04 04 00  	mv	s1, s0
800021a4: 63 64 b4 01  	bltu	s0, s11, 0x800021ac <_vsnprintf+0x27c>
800021a8: 13 84 fd ff  	addi	s0, s11, -0x1
800021ac: 93 86 0d 00  	mv	a3, s11
800021b0: 13 06 04 00  	mv	a2, s0
800021b4: 93 05 0b 00  	mv	a1, s6
800021b8: 13 05 00 00  	li	a0, 0x0
800021bc: e7 80 0b 00  	jalr	s7
800021c0: 83 20 c1 08  	lw	ra, 0x8c(sp)
800021c4: 03 24 81 08  	lw	s0, 0x88(sp)
800021c8: 03 29 01 08  	lw	s2, 0x80(sp)
800021cc: 83 29 c1 07  	lw	s3, 0x7c(sp)
800021d0: 03 2a 81 07  	lw	s4, 0x78(sp)
800021d4: 83 2a 41 07  	lw	s5, 0x74(sp)
800021d8: 03 2b 01 07  	lw	s6, 0x70(sp)
800021dc: 83 2b c1 06  	lw	s7, 0x6c(sp)
800021e0: 03 2c 81 06  	lw	s8, 0x68(sp)
800021e4: 83 2c 41 06  	lw	s9, 0x64(sp)
800021e8: 03 2d 01 06  	lw	s10, 0x60(sp)
800021ec: 83 2d c1 05  	lw	s11, 0x5c(sp)
800021f0: 13 85 04 00  	mv	a0, s1
800021f4: 83 24 41 08  	lw	s1, 0x84(sp)
800021f8: 13 01 01 09  	addi	sp, sp, 0x90
800021fc: 67 80 00 00  	ret
80002200: 93 08 00 00  	li	a7, 0x0
80002204: 13 06 90 00  	li	a2, 0x9
80002208: 93 85 08 00  	mv	a1, a7
8000220c: 6f 00 80 00  	j	0x80002214 <_vsnprintf+0x2e4>
80002210: 13 07 17 00  	addi	a4, a4, 0x1
80002214: 93 98 25 00  	slli	a7, a1, 0x2
80002218: b3 88 b8 00  	add	a7, a7, a1
8000221c: 93 98 18 00  	slli	a7, a7, 0x1
80002220: b3 88 a8 00  	add	a7, a7, a0
80002224: 03 45 07 00  	lbu	a0, 0x0(a4)
80002228: 13 09 07 00  	mv	s2, a4
8000222c: 93 85 08 fd  	addi	a1, a7, -0x30
80002230: 93 07 05 fd  	addi	a5, a0, -0x30
80002234: 93 f7 f7 0f  	andi	a5, a5, 0xff
80002238: e3 7c f6 fc  	bgeu	a2, a5, 0x80002210 <_vsnprintf+0x2e0>
8000223c: 93 07 e0 02  	li	a5, 0x2e
80002240: 93 88 05 00  	mv	a7, a1
80002244: 13 07 17 00  	addi	a4, a4, 0x1
80002248: 13 08 00 00  	li	a6, 0x0
8000224c: e3 10 f5 de  	bne	a0, a5, 0x8000202c <_vsnprintf+0xfc>
80002250: 03 45 19 00  	lbu	a0, 0x1(s2)
80002254: 93 05 90 00  	li	a1, 0x9
80002258: 13 06 07 00  	mv	a2, a4
8000225c: 93 07 05 fd  	addi	a5, a0, -0x30
80002260: 93 f7 f7 0f  	andi	a5, a5, 0xff
80002264: 93 e6 06 40  	ori	a3, a3, 0x400
80002268: 63 fa f5 22  	bgeu	a1, a5, 0x8000249c <_vsnprintf+0x56c>
8000226c: 93 07 a0 02  	li	a5, 0x2a
80002270: 63 02 f5 26  	beq	a0, a5, 0x800024d4 <_vsnprintf+0x5a4>
80002274: 13 09 07 00  	mv	s2, a4
80002278: 13 07 17 00  	addi	a4, a4, 0x1
8000227c: 6f f0 1f db  	j	0x8000202c <_vsnprintf+0xfc>
80002280: 83 a8 0c 00  	lw	a7, 0x0(s9)
80002284: 93 8c 4c 00  	addi	s9, s9, 0x4
80002288: 63 ca 08 00  	bltz	a7, 0x8000229c <_vsnprintf+0x36c>
8000228c: 03 45 19 00  	lbu	a0, 0x1(s2)
80002290: 13 09 07 00  	mv	s2, a4
80002294: 13 07 17 00  	addi	a4, a4, 0x1
80002298: 6f f0 9f d8  	j	0x80002020 <_vsnprintf+0xf0>
8000229c: 03 45 19 00  	lbu	a0, 0x1(s2)
800022a0: 93 e6 26 00  	ori	a3, a3, 0x2
800022a4: 13 09 07 00  	mv	s2, a4
800022a8: b3 08 10 41  	neg	a7, a7
800022ac: 13 07 17 00  	addi	a4, a4, 0x1
800022b0: 6f f0 1f d7  	j	0x80002020 <_vsnprintf+0xf0>
800022b4: 93 07 70 06  	li	a5, 0x67
800022b8: 63 0a f5 32  	beq	a0, a5, 0x800025ec <_vsnprintf+0x6bc>
800022bc: 93 07 70 04  	li	a5, 0x47
800022c0: 63 0a f5 42  	beq	a0, a5, 0x800026f4 <_vsnprintf+0x7c4>
800022c4: 93 07 50 04  	li	a5, 0x45
800022c8: 63 0c f5 42  	beq	a0, a5, 0x80002700 <_vsnprintf+0x7d0>
800022cc: 93 8c 7c 00  	addi	s9, s9, 0x7
800022d0: 93 fc 8c ff  	andi	s9, s9, -0x8
800022d4: 03 a7 0c 00  	lw	a4, 0x0(s9)
800022d8: 83 a7 4c 00  	lw	a5, 0x4(s9)
800022dc: 13 06 04 00  	mv	a2, s0
800022e0: 23 20 d1 00  	sw	a3, 0x0(sp)
800022e4: 93 05 0b 00  	mv	a1, s6
800022e8: 93 86 0d 00  	mv	a3, s11
800022ec: 13 85 0b 00  	mv	a0, s7
800022f0: ef e0 9f f4  	jal	0x80001238 <_etoa>
800022f4: 93 8c 8c 00  	addi	s9, s9, 0x8
800022f8: 13 04 05 00  	mv	s0, a0
800022fc: 6f f0 df cc  	j	0x80001fc8 <_vsnprintf+0x98>
80002300: 03 45 19 00  	lbu	a0, 0x1(s2)
80002304: 93 07 c0 06  	li	a5, 0x6c
80002308: e3 18 f5 d8  	bne	a0, a5, 0x80002098 <_vsnprintf+0x168>
8000230c: 03 45 29 00  	lbu	a0, 0x2(s2)
80002310: 93 e6 06 30  	ori	a3, a3, 0x300
80002314: 13 07 39 00  	addi	a4, s2, 0x3
80002318: 6f f0 9f d8  	j	0x800020a0 <_vsnprintf+0x170>
8000231c: 03 45 19 00  	lbu	a0, 0x1(s2)
80002320: 93 e6 06 20  	ori	a3, a3, 0x200
80002324: 13 07 17 00  	addi	a4, a4, 0x1
80002328: 6f f0 9f d7  	j	0x800020a0 <_vsnprintf+0x170>
8000232c: 03 45 19 00  	lbu	a0, 0x1(s2)
80002330: 93 07 80 06  	li	a5, 0x68
80002334: 63 0a f5 3c  	beq	a0, a5, 0x80002708 <_vsnprintf+0x7d8>
80002338: 93 e6 06 08  	ori	a3, a3, 0x80
8000233c: 13 07 17 00  	addi	a4, a4, 0x1
80002340: 6f f0 1f d6  	j	0x800020a0 <_vsnprintf+0x170>
80002344: 93 07 60 04  	li	a5, 0x46
80002348: 63 0a f5 2a  	beq	a0, a5, 0x800025fc <_vsnprintf+0x6cc>
8000234c: 93 8c 7c 00  	addi	s9, s9, 0x7
80002350: 93 fc 8c ff  	andi	s9, s9, -0x8
80002354: 03 a7 0c 00  	lw	a4, 0x0(s9)
80002358: 83 a7 4c 00  	lw	a5, 0x4(s9)
8000235c: 13 06 04 00  	mv	a2, s0
80002360: 23 20 d1 00  	sw	a3, 0x0(sp)
80002364: 93 05 0b 00  	mv	a1, s6
80002368: 93 86 0d 00  	mv	a3, s11
8000236c: 13 85 0b 00  	mv	a0, s7
80002370: ef f0 0f d6  	jal	0x800018d0 <_ftoa>
80002374: 93 8c 8c 00  	addi	s9, s9, 0x8
80002378: 13 04 05 00  	mv	s0, a0
8000237c: 6f f0 df c4  	j	0x80001fc8 <_vsnprintf+0x98>
80002380: 13 06 04 00  	mv	a2, s0
80002384: 93 86 0d 00  	mv	a3, s11
80002388: 93 05 0b 00  	mv	a1, s6
8000238c: 13 05 50 02  	li	a0, 0x25
80002390: 13 04 14 00  	addi	s0, s0, 0x1
80002394: e7 80 0b 00  	jalr	s7
80002398: 6f f0 1f c3  	j	0x80001fc8 <_vsnprintf+0x98>
8000239c: 93 f6 26 00  	andi	a3, a3, 0x2
800023a0: 13 8c 4c 00  	addi	s8, s9, 0x4
800023a4: 93 04 14 00  	addi	s1, s0, 0x1
800023a8: 63 86 06 3a  	beqz	a3, 0x80002754 <_vsnprintf+0x824>
800023ac: 03 c5 0c 00  	lbu	a0, 0x0(s9)
800023b0: 23 2c 11 01  	sw	a7, 0x18(sp)
800023b4: 13 06 04 00  	mv	a2, s0
800023b8: 93 86 0d 00  	mv	a3, s11
800023bc: 93 05 0b 00  	mv	a1, s6
800023c0: e7 80 0b 00  	jalr	s7
800023c4: 83 28 81 01  	lw	a7, 0x18(sp)
800023c8: 93 07 10 00  	li	a5, 0x1
800023cc: 33 04 14 01  	add	s0, s0, a7
800023d0: 63 f4 17 59  	bgeu	a5, a7, 0x80002958 <_vsnprintf+0xa28>
800023d4: 13 86 04 00  	mv	a2, s1
800023d8: 93 86 0d 00  	mv	a3, s11
800023dc: 93 84 14 00  	addi	s1, s1, 0x1
800023e0: 93 05 0b 00  	mv	a1, s6
800023e4: 13 05 00 02  	li	a0, 0x20
800023e8: e7 80 0b 00  	jalr	s7
800023ec: e3 94 84 fe  	bne	s1, s0, 0x800023d4 <_vsnprintf+0x4a4>
800023f0: 93 0c 0c 00  	mv	s9, s8
800023f4: 6f f0 5f bd  	j	0x80001fc8 <_vsnprintf+0x98>
800023f8: 03 ad 0c 00  	lw	s10, 0x0(s9)
800023fc: 93 87 4c 00  	addi	a5, s9, 0x4
80002400: 23 2c f1 00  	sw	a5, 0x18(sp)
80002404: 03 46 0d 00  	lbu	a2, 0x0(s10)
80002408: 13 05 06 00  	mv	a0, a2
8000240c: 63 16 08 0e  	bnez	a6, 0x800024f8 <_vsnprintf+0x5c8>
80002410: 93 07 e0 ff  	li	a5, -0x2
80002414: 63 04 06 02  	beqz	a2, 0x8000243c <_vsnprintf+0x50c>
80002418: 93 87 17 00  	addi	a5, a5, 0x1
8000241c: 33 07 fd 00  	add	a4, s10, a5
80002420: 93 04 0d 00  	mv	s1, s10
80002424: 6f 00 80 00  	j	0x8000242c <_vsnprintf+0x4fc>
80002428: 63 88 e4 00  	beq	s1, a4, 0x80002438 <_vsnprintf+0x508>
8000242c: 83 c7 14 00  	lbu	a5, 0x1(s1)
80002430: 93 84 14 00  	addi	s1, s1, 0x1
80002434: e3 9a 07 fe  	bnez	a5, 0x80002428 <_vsnprintf+0x4f8>
80002438: b3 84 a4 41  	sub	s1, s1, s10
8000243c: 13 fc 06 40  	andi	s8, a3, 0x400
80002440: 63 06 0c 00  	beqz	s8, 0x8000244c <_vsnprintf+0x51c>
80002444: 63 74 98 00  	bgeu	a6, s1, 0x8000244c <_vsnprintf+0x51c>
80002448: 93 04 08 00  	mv	s1, a6
8000244c: 93 f6 26 00  	andi	a3, a3, 0x2
80002450: 63 8c 06 36  	beqz	a3, 0x800027c8 <_vsnprintf+0x898>
80002454: 63 02 06 20  	beqz	a2, 0x80002658 <_vsnprintf+0x728>
80002458: 63 06 0c 1a  	beqz	s8, 0x80002604 <_vsnprintf+0x6d4>
8000245c: b3 0c 88 00  	add	s9, a6, s0
80002460: 13 06 04 00  	mv	a2, s0
80002464: 13 8c 06 00  	mv	s8, a3
80002468: 23 2e 91 00  	sw	s1, 0x1c(sp)
8000246c: 23 20 11 03  	sw	a7, 0x20(sp)
80002470: 63 8a cc 2a  	beq	s9, a2, 0x80002724 <_vsnprintf+0x7f4>
80002474: 93 86 0d 00  	mv	a3, s11
80002478: 93 05 0b 00  	mv	a1, s6
8000247c: 93 04 16 00  	addi	s1, a2, 0x1
80002480: e7 80 0b 00  	jalr	s7
80002484: b3 87 84 40  	sub	a5, s1, s0
80002488: b3 07 fd 00  	add	a5, s10, a5
8000248c: 03 c5 07 00  	lbu	a0, 0x0(a5)
80002490: 63 06 05 2a  	beqz	a0, 0x8000273c <_vsnprintf+0x80c>
80002494: 13 86 04 00  	mv	a2, s1
80002498: 6f f0 9f fd  	j	0x80002470 <_vsnprintf+0x540>
8000249c: 13 07 90 00  	li	a4, 0x9
800024a0: 93 17 28 00  	slli	a5, a6, 0x2
800024a4: b3 87 07 01  	add	a5, a5, a6
800024a8: 13 06 16 00  	addi	a2, a2, 0x1
800024ac: 93 97 17 00  	slli	a5, a5, 0x1
800024b0: b3 87 a7 00  	add	a5, a5, a0
800024b4: 03 45 06 00  	lbu	a0, 0x0(a2)
800024b8: 13 88 07 fd  	addi	a6, a5, -0x30
800024bc: 93 07 05 fd  	addi	a5, a0, -0x30
800024c0: 93 f7 f7 0f  	andi	a5, a5, 0xff
800024c4: e3 7e f7 fc  	bgeu	a4, a5, 0x800024a0 <_vsnprintf+0x570>
800024c8: 13 09 06 00  	mv	s2, a2
800024cc: 13 07 16 00  	addi	a4, a2, 0x1
800024d0: 6f f0 df b5  	j	0x8000202c <_vsnprintf+0xfc>
800024d4: 03 a8 0c 00  	lw	a6, 0x0(s9)
800024d8: 03 45 29 00  	lbu	a0, 0x2(s2)
800024dc: 13 09 29 00  	addi	s2, s2, 0x2
800024e0: 93 47 f8 ff  	not	a5, a6
800024e4: 93 d7 f7 41  	srai	a5, a5, 0x1f
800024e8: 33 78 f8 00  	and	a6, a6, a5
800024ec: 93 8c 4c 00  	addi	s9, s9, 0x4
800024f0: 13 07 19 00  	addi	a4, s2, 0x1
800024f4: 6f f0 9f b3  	j	0x8000202c <_vsnprintf+0xfc>
800024f8: e3 02 06 f4  	beqz	a2, 0x8000243c <_vsnprintf+0x50c>
800024fc: 93 07 f8 ff  	addi	a5, a6, -0x1
80002500: 6f f0 9f f1  	j	0x80002418 <_vsnprintf+0x4e8>
80002504: 93 f5 f6 fe  	andi	a1, a3, -0x11
80002508: 93 f7 06 40  	andi	a5, a3, 0x400
8000250c: 93 e5 15 02  	ori	a1, a1, 0x21
80002510: 13 07 01 03  	addi	a4, sp, 0x30
80002514: e3 98 07 c4  	bnez	a5, 0x80002164 <_vsnprintf+0x234>
80002518: 6f f0 df c0  	j	0x80002124 <_vsnprintf+0x1f4>
8000251c: 93 07 20 06  	li	a5, 0x62
80002520: 63 02 f5 44  	beq	a0, a5, 0x80002964 <_vsnprintf+0xa34>
80002524: 93 07 80 05  	li	a5, 0x58
80002528: 63 08 f5 44  	beq	a0, a5, 0x80002978 <_vsnprintf+0xa48>
8000252c: 13 f5 06 40  	andi	a0, a3, 0x400
80002530: 13 fe e6 fe  	andi	t3, a3, -0x12
80002534: 63 06 05 3e  	beqz	a0, 0x80002920 <_vsnprintf+0x9f0>
80002538: 93 76 0e 20  	andi	a3, t3, 0x200
8000253c: 63 92 06 2e  	bnez	a3, 0x80002820 <_vsnprintf+0x8f0>
80002540: 93 77 0e 10  	andi	a5, t3, 0x100
80002544: 93 84 4c 00  	addi	s1, s9, 0x4
80002548: 63 96 07 52  	bnez	a5, 0x80002a74 <_vsnprintf+0xb44>
8000254c: 13 77 0e 04  	andi	a4, t3, 0x40
80002550: 63 12 07 3c  	bnez	a4, 0x80002914 <_vsnprintf+0x9e4>
80002554: 13 77 0e 08  	andi	a4, t3, 0x80
80002558: 63 0a 07 72  	beqz	a4, 0x80002c8c <_vsnprintf+0xd5c>
8000255c: 03 97 0c 00  	lh	a4, 0x0(s9)
80002560: 13 56 f7 40  	srai	a2, a4, 0xf
80002564: b3 46 c7 00  	xor	a3, a4, a2
80002568: b3 86 c6 40  	sub	a3, a3, a2
8000256c: 93 96 06 01  	slli	a3, a3, 0x10
80002570: 93 d6 06 01  	srli	a3, a3, 0x10
80002574: 93 55 f7 01  	srli	a1, a4, 0x1f
80002578: 63 08 07 4e  	beqz	a4, 0x80002a68 <_vsnprintf+0xb38>
8000257c: 13 85 06 00  	mv	a0, a3
80002580: 13 07 01 03  	addi	a4, sp, 0x30
80002584: 13 06 a0 00  	li	a2, 0xa
80002588: 93 0e 90 00  	li	t4, 0x9
8000258c: 13 0f 00 02  	li	t5, 0x20
80002590: 6f 00 80 00  	j	0x80002598 <_vsnprintf+0x668>
80002594: 63 82 e7 03  	beq	a5, t5, 0x800025b8 <_vsnprintf+0x688>
80002598: b3 76 c5 02  	remu	a3, a0, a2
8000259c: 93 87 17 00  	addi	a5, a5, 0x1
800025a0: b3 0f f7 00  	add	t6, a4, a5
800025a4: 13 03 05 00  	mv	t1, a0
800025a8: 93 86 06 03  	addi	a3, a3, 0x30
800025ac: a3 8f df fe  	sb	a3, -0x1(t6)
800025b0: 33 55 c5 02  	divu	a0, a0, a2
800025b4: e3 e0 6e fe  	bltu	t4, t1, 0x80002594 <_vsnprintf+0x664>
800025b8: 23 22 11 01  	sw	a7, 0x4(sp)
800025bc: 23 20 01 01  	sw	a6, 0x0(sp)
800025c0: 13 06 04 00  	mv	a2, s0
800025c4: 23 24 c1 01  	sw	t3, 0x8(sp)
800025c8: 93 08 a0 00  	li	a7, 0xa
800025cc: 13 88 05 00  	mv	a6, a1
800025d0: 93 86 0d 00  	mv	a3, s11
800025d4: 93 05 0b 00  	mv	a1, s6
800025d8: 13 85 0b 00  	mv	a0, s7
800025dc: ef e0 df 91  	jal	0x80000ef8 <_ntoa_format>
800025e0: 13 04 05 00  	mv	s0, a0
800025e4: 93 8c 04 00  	mv	s9, s1
800025e8: 6f f0 1f 9e  	j	0x80001fc8 <_vsnprintf+0x98>
800025ec: b7 17 00 00  	lui	a5, 0x1
800025f0: 93 87 07 80  	addi	a5, a5, -0x800
800025f4: b3 e6 f6 00  	or	a3, a3, a5
800025f8: 6f f0 5f cd  	j	0x800022cc <_vsnprintf+0x39c>
800025fc: 93 e6 06 02  	ori	a3, a3, 0x20
80002600: 6f f0 df d4  	j	0x8000234c <_vsnprintf+0x41c>
80002604: 23 2e 91 00  	sw	s1, 0x1c(sp)
80002608: 13 0c 09 00  	mv	s8, s2
8000260c: 93 8c 06 00  	mv	s9, a3
80002610: 93 04 04 00  	mv	s1, s0
80002614: 13 89 08 00  	mv	s2, a7
80002618: 13 86 04 00  	mv	a2, s1
8000261c: 93 86 0d 00  	mv	a3, s11
80002620: 93 05 0b 00  	mv	a1, s6
80002624: e7 80 0b 00  	jalr	s7
80002628: 93 84 14 00  	addi	s1, s1, 0x1
8000262c: 33 87 84 40  	sub	a4, s1, s0
80002630: 33 07 ed 00  	add	a4, s10, a4
80002634: 03 45 07 00  	lbu	a0, 0x0(a4)
80002638: e3 10 05 fe  	bnez	a0, 0x80002618 <_vsnprintf+0x6e8>
8000263c: 93 08 09 00  	mv	a7, s2
80002640: 13 09 0c 00  	mv	s2, s8
80002644: 13 8c 04 00  	mv	s8, s1
80002648: 83 24 c1 01  	lw	s1, 0x1c(sp)
8000264c: 93 86 0c 00  	mv	a3, s9
80002650: 13 04 0c 00  	mv	s0, s8
80002654: 63 88 06 02  	beqz	a3, 0x80002684 <_vsnprintf+0x754>
80002658: 13 0c 04 00  	mv	s8, s0
8000265c: 63 f4 14 03  	bgeu	s1, a7, 0x80002684 <_vsnprintf+0x754>
80002660: b3 88 88 00  	add	a7, a7, s0
80002664: 33 84 98 40  	sub	s0, a7, s1
80002668: 13 06 0c 00  	mv	a2, s8
8000266c: 93 86 0d 00  	mv	a3, s11
80002670: 13 0c 1c 00  	addi	s8, s8, 0x1
80002674: 93 05 0b 00  	mv	a1, s6
80002678: 13 05 00 02  	li	a0, 0x20
8000267c: e7 80 0b 00  	jalr	s7
80002680: e3 14 8c fe  	bne	s8, s0, 0x80002668 <_vsnprintf+0x738>
80002684: 83 2c 81 01  	lw	s9, 0x18(sp)
80002688: 6f f0 1f 94  	j	0x80001fc8 <_vsnprintf+0x98>
8000268c: 93 07 80 07  	li	a5, 0x78
80002690: 63 16 f5 34  	bne	a0, a5, 0x800029dc <_vsnprintf+0xaac>
80002694: 13 f6 06 40  	andi	a2, a3, 0x400
80002698: 63 04 06 62  	beqz	a2, 0x80002cc0 <_vsnprintf+0xd90>
8000269c: 93 fe 26 ff  	andi	t4, a3, -0xe
800026a0: 13 0d 00 01  	li	s10, 0x10
800026a4: 93 f5 0e 20  	andi	a1, t4, 0x200
800026a8: 63 94 05 2e  	bnez	a1, 0x80002990 <_vsnprintf+0xa60>
800026ac: 93 f7 0e 10  	andi	a5, t4, 0x100
800026b0: 93 84 4c 00  	addi	s1, s9, 0x4
800026b4: 63 9e 07 4e  	bnez	a5, 0x80002bb0 <_vsnprintf+0xc80>
800026b8: 13 f7 0e 04  	andi	a4, t4, 0x40
800026bc: 63 02 07 4e  	beqz	a4, 0x80002ba0 <_vsnprintf+0xc70>
800026c0: 83 c5 0c 00  	lbu	a1, 0x0(s9)
800026c4: 63 90 05 34  	bnez	a1, 0x80002a04 <_vsnprintf+0xad4>
800026c8: 93 fe fe fe  	andi	t4, t4, -0x11
800026cc: 63 0c 06 32  	beqz	a2, 0x80002a04 <_vsnprintf+0xad4>
800026d0: 93 07 00 00  	li	a5, 0x0
800026d4: 13 07 01 03  	addi	a4, sp, 0x30
800026d8: 23 22 11 01  	sw	a7, 0x4(sp)
800026dc: 23 20 01 01  	sw	a6, 0x0(sp)
800026e0: 13 06 04 00  	mv	a2, s0
800026e4: 23 24 d1 01  	sw	t4, 0x8(sp)
800026e8: 93 08 0d 00  	mv	a7, s10
800026ec: 13 08 00 00  	li	a6, 0x0
800026f0: 6f f0 1f ee  	j	0x800025d0 <_vsnprintf+0x6a0>
800026f4: b7 17 00 00  	lui	a5, 0x1
800026f8: 93 87 07 80  	addi	a5, a5, -0x800
800026fc: b3 e6 f6 00  	or	a3, a3, a5
80002700: 93 e6 06 02  	ori	a3, a3, 0x20
80002704: 6f f0 9f bc  	j	0x800022cc <_vsnprintf+0x39c>
80002708: 03 45 29 00  	lbu	a0, 0x2(s2)
8000270c: 93 e6 06 0c  	ori	a3, a3, 0xc0
80002710: 13 07 39 00  	addi	a4, s2, 0x3
80002714: 6f f0 df 98  	j	0x800020a0 <_vsnprintf+0x170>
80002718: 93 04 00 00  	li	s1, 0x0
8000271c: e3 68 b4 a9  	bltu	s0, s11, 0x800021ac <_vsnprintf+0x27c>
80002720: 6f f0 9f a8  	j	0x800021a8 <_vsnprintf+0x278>
80002724: 93 06 0c 00  	mv	a3, s8
80002728: 83 24 c1 01  	lw	s1, 0x1c(sp)
8000272c: 83 28 01 02  	lw	a7, 0x20(sp)
80002730: 13 84 0c 00  	mv	s0, s9
80002734: e3 88 06 f4  	beqz	a3, 0x80002684 <_vsnprintf+0x754>
80002738: 6f f0 1f f2  	j	0x80002658 <_vsnprintf+0x728>
8000273c: 93 06 0c 00  	mv	a3, s8
80002740: 13 8c 04 00  	mv	s8, s1
80002744: 83 28 01 02  	lw	a7, 0x20(sp)
80002748: 83 24 c1 01  	lw	s1, 0x1c(sp)
8000274c: 13 04 0c 00  	mv	s0, s8
80002750: 6f f0 5f f0  	j	0x80002654 <_vsnprintf+0x724>
80002754: 93 07 10 00  	li	a5, 0x1
80002758: 63 f6 17 1f  	bgeu	a5, a7, 0x80002944 <_vsnprintf+0xa14>
8000275c: 93 87 0c 00  	mv	a5, s9
80002760: 93 04 f4 ff  	addi	s1, s0, -0x1
80002764: 93 0c 09 00  	mv	s9, s2
80002768: b3 84 14 01  	add	s1, s1, a7
8000276c: 23 2c 11 01  	sw	a7, 0x18(sp)
80002770: 13 09 04 00  	mv	s2, s0
80002774: 13 8d 07 00  	mv	s10, a5
80002778: 13 06 04 00  	mv	a2, s0
8000277c: 93 86 0d 00  	mv	a3, s11
80002780: 13 04 14 00  	addi	s0, s0, 0x1
80002784: 93 05 0b 00  	mv	a1, s6
80002788: 13 05 00 02  	li	a0, 0x20
8000278c: e7 80 0b 00  	jalr	s7
80002790: e3 14 94 fe  	bne	s0, s1, 0x80002778 <_vsnprintf+0x848>
80002794: 93 07 0d 00  	mv	a5, s10
80002798: 83 28 81 01  	lw	a7, 0x18(sp)
8000279c: 03 c5 07 00  	lbu	a0, 0x0(a5)
800027a0: 13 0d 04 00  	mv	s10, s0
800027a4: 93 86 0d 00  	mv	a3, s11
800027a8: 13 04 09 00  	mv	s0, s2
800027ac: 13 06 0d 00  	mv	a2, s10
800027b0: 93 05 0b 00  	mv	a1, s6
800027b4: 13 89 0c 00  	mv	s2, s9
800027b8: 33 04 14 01  	add	s0, s0, a7
800027bc: 93 0c 0c 00  	mv	s9, s8
800027c0: e7 80 0b 00  	jalr	s7
800027c4: 6f f0 5f 80  	j	0x80001fc8 <_vsnprintf+0x98>
800027c8: 63 f6 14 4f  	bgeu	s1, a7, 0x80002cb4 <_vsnprintf+0xd84>
800027cc: b3 87 88 00  	add	a5, a7, s0
800027d0: b3 84 97 40  	sub	s1, a5, s1
800027d4: 93 8c 06 00  	mv	s9, a3
800027d8: 23 2e 11 01  	sw	a7, 0x1c(sp)
800027dc: 23 20 01 03  	sw	a6, 0x20(sp)
800027e0: 13 06 04 00  	mv	a2, s0
800027e4: 93 86 0d 00  	mv	a3, s11
800027e8: 13 04 14 00  	addi	s0, s0, 0x1
800027ec: 93 05 0b 00  	mv	a1, s6
800027f0: 13 05 00 02  	li	a0, 0x20
800027f4: e7 80 0b 00  	jalr	s7
800027f8: e3 14 94 fe  	bne	s0, s1, 0x800027e0 <_vsnprintf+0x8b0>
800027fc: 83 28 c1 01  	lw	a7, 0x1c(sp)
80002800: 03 28 01 02  	lw	a6, 0x20(sp)
80002804: 03 46 0d 00  	lbu	a2, 0x0(s10)
80002808: 93 86 0c 00  	mv	a3, s9
8000280c: 93 84 18 00  	addi	s1, a7, 0x1
80002810: 13 05 06 00  	mv	a0, a2
80002814: e3 12 06 c4  	bnez	a2, 0x80002458 <_vsnprintf+0x528>
80002818: 83 2c 81 01  	lw	s9, 0x18(sp)
8000281c: 6f f0 cf fa  	j	0x80001fc8 <_vsnprintf+0x98>
80002820: 93 8c 7c 00  	addi	s9, s9, 0x7
80002824: 93 fc 8c ff  	andi	s9, s9, -0x8
80002828: 83 a5 4c 00  	lw	a1, 0x4(s9)
8000282c: 03 a6 0c 00  	lw	a2, 0x0(s9)
80002830: 93 8c 8c 00  	addi	s9, s9, 0x8
80002834: 93 df f5 01  	srli	t6, a1, 0x1f
80002838: b3 67 b6 00  	or	a5, a2, a1
8000283c: 63 86 07 0e  	beqz	a5, 0x80002928 <_vsnprintf+0x9f8>
80002840: 93 d7 f5 41  	srai	a5, a1, 0x1f
80002844: 33 c6 c7 00  	xor	a2, a5, a2
80002848: 33 07 f6 40  	sub	a4, a2, a5
8000284c: b3 c5 b7 00  	xor	a1, a5, a1
80002850: b3 36 e6 00  	sltu	a3, a2, a4
80002854: b3 87 f5 40  	sub	a5, a1, a5
80002858: 13 06 07 00  	mv	a2, a4
8000285c: b3 85 d7 40  	sub	a1, a5, a3
80002860: b7 de cc cc  	lui	t4, 0xccccd
80002864: 13 85 de cc  	addi	a0, t4, -0x333
80002868: 93 07 00 00  	li	a5, 0x0
8000286c: 13 07 01 03  	addi	a4, sp, 0x30
80002870: 13 0f 50 00  	li	t5, 0x5
80002874: 93 8e ce cc  	addi	t4, t4, -0x334
80002878: 93 03 00 02  	li	t2, 0x20
8000287c: 93 84 05 00  	mv	s1, a1
80002880: b3 06 96 00  	add	a3, a2, s1
80002884: b3 b5 c6 00  	sltu	a1, a3, a2
80002888: b3 86 b6 00  	add	a3, a3, a1
8000288c: b3 f6 e6 03  	remu	a3, a3, t5
80002890: 13 83 04 00  	mv	t1, s1
80002894: 93 87 17 00  	addi	a5, a5, 0x1
80002898: 93 00 06 00  	mv	ra, a2
8000289c: b3 02 f7 00  	add	t0, a4, a5
800028a0: b3 06 d6 40  	sub	a3, a2, a3
800028a4: b3 35 d6 00  	sltu	a1, a2, a3
800028a8: b3 85 b4 40  	sub	a1, s1, a1
800028ac: 33 8c d6 03  	mul	s8, a3, t4
800028b0: b3 85 a5 02  	mul	a1, a1, a0
800028b4: b3 b4 a6 02  	mulhu	s1, a3, a0
800028b8: b3 85 85 01  	add	a1, a1, s8
800028bc: b3 86 a6 02  	mul	a3, a3, a0
800028c0: b3 85 95 00  	add	a1, a1, s1
800028c4: 13 9c f5 01  	slli	s8, a1, 0x1f
800028c8: 93 d4 15 00  	srli	s1, a1, 0x1
800028cc: 93 d6 16 00  	srli	a3, a3, 0x1
800028d0: b3 66 dc 00  	or	a3, s8, a3
800028d4: 93 95 26 00  	slli	a1, a3, 0x2
800028d8: b3 85 d5 00  	add	a1, a1, a3
800028dc: 93 95 15 00  	slli	a1, a1, 0x1
800028e0: 33 06 b6 40  	sub	a2, a2, a1
800028e4: 13 06 06 03  	addi	a2, a2, 0x30
800028e8: a3 8f c2 fe  	sb	a2, -0x1(t0)
800028ec: 13 86 06 00  	mv	a2, a3
800028f0: 63 04 03 04  	beqz	t1, 0x80002938 <_vsnprintf+0xa08>
800028f4: e3 96 77 f8  	bne	a5, t2, 0x80002880 <_vsnprintf+0x950>
800028f8: 23 22 11 01  	sw	a7, 0x4(sp)
800028fc: 23 20 01 01  	sw	a6, 0x0(sp)
80002900: 13 06 04 00  	mv	a2, s0
80002904: 23 24 c1 01  	sw	t3, 0x8(sp)
80002908: 93 08 a0 00  	li	a7, 0xa
8000290c: 13 88 0f 00  	mv	a6, t6
80002910: 6f f0 5f 87  	j	0x80002184 <_vsnprintf+0x254>
80002914: 03 c7 0c 00  	lbu	a4, 0x0(s9)
80002918: 93 06 07 00  	mv	a3, a4
8000291c: 6f f0 9f c5  	j	0x80002574 <_vsnprintf+0x644>
80002920: 13 fe f6 fe  	andi	t3, a3, -0x11
80002924: 6f f0 5f c1  	j	0x80002538 <_vsnprintf+0x608>
80002928: 63 10 05 38  	bnez	a0, 0x80002ca8 <_vsnprintf+0xd78>
8000292c: 13 06 00 00  	li	a2, 0x0
80002930: 93 05 00 00  	li	a1, 0x0
80002934: 6f f0 df f2  	j	0x80002860 <_vsnprintf+0x930>
80002938: 93 06 90 00  	li	a3, 0x9
8000293c: e3 ec 16 fa  	bltu	a3, ra, 0x800028f4 <_vsnprintf+0x9c4>
80002940: 6f f0 9f fb  	j	0x800028f8 <_vsnprintf+0x9c8>
80002944: 03 c5 0c 00  	lbu	a0, 0x0(s9)
80002948: 93 86 0d 00  	mv	a3, s11
8000294c: 13 06 04 00  	mv	a2, s0
80002950: 93 05 0b 00  	mv	a1, s6
80002954: e7 80 0b 00  	jalr	s7
80002958: 13 84 04 00  	mv	s0, s1
8000295c: 93 0c 0c 00  	mv	s9, s8
80002960: 6f f0 8f e6  	j	0x80001fc8 <_vsnprintf+0x98>
80002964: 13 f6 06 40  	andi	a2, a3, 0x400
80002968: 63 00 06 2e  	beqz	a2, 0x80002c48 <_vsnprintf+0xd18>
8000296c: 93 fe 26 ff  	andi	t4, a3, -0xe
80002970: 13 0d 20 00  	li	s10, 0x2
80002974: 6f f0 1f d3  	j	0x800026a4 <_vsnprintf+0x774>
80002978: 13 f6 06 40  	andi	a2, a3, 0x400
8000297c: 63 00 06 34  	beqz	a2, 0x80002cbc <_vsnprintf+0xd8c>
80002980: 93 fe 26 ff  	andi	t4, a3, -0xe
80002984: 93 ee 0e 02  	ori	t4, t4, 0x20
80002988: 13 0d 00 01  	li	s10, 0x10
8000298c: 6f f0 9f d1  	j	0x800026a4 <_vsnprintf+0x774>
80002990: 93 8c 7c 00  	addi	s9, s9, 0x7
80002994: 93 fc 8c ff  	andi	s9, s9, -0x8
80002998: 83 a6 0c 00  	lw	a3, 0x0(s9)
8000299c: 83 a4 4c 00  	lw	s1, 0x4(s9)
800029a0: 93 8c 8c 00  	addi	s9, s9, 0x8
800029a4: b3 e7 96 00  	or	a5, a3, s1
800029a8: 63 9e 07 12  	bnez	a5, 0x80002ae4 <_vsnprintf+0xbb4>
800029ac: 93 fe fe fe  	andi	t4, t4, -0x11
800029b0: 63 0a 06 12  	beqz	a2, 0x80002ae4 <_vsnprintf+0xbb4>
800029b4: 13 0c 00 00  	li	s8, 0x0
800029b8: 13 07 01 03  	addi	a4, sp, 0x30
800029bc: 23 22 11 01  	sw	a7, 0x4(sp)
800029c0: 23 20 01 01  	sw	a6, 0x0(sp)
800029c4: 13 06 04 00  	mv	a2, s0
800029c8: 23 24 d1 01  	sw	t4, 0x8(sp)
800029cc: 93 08 0d 00  	mv	a7, s10
800029d0: 13 08 00 00  	li	a6, 0x0
800029d4: 93 07 0c 00  	mv	a5, s8
800029d8: 6f f0 cf fa  	j	0x80002184 <_vsnprintf+0x254>
800029dc: 93 07 f0 06  	li	a5, 0x6f
800029e0: 63 18 f5 2e  	bne	a0, a5, 0x80002cd0 <_vsnprintf+0xda0>
800029e4: 13 f6 06 40  	andi	a2, a3, 0x400
800029e8: 93 fe 36 ff  	andi	t4, a3, -0xd
800029ec: 13 0d 80 00  	li	s10, 0x8
800029f0: e3 0a 06 ca  	beqz	a2, 0x800026a4 <_vsnprintf+0x774>
800029f4: 13 8e 06 00  	mv	t3, a3
800029f8: 13 0d 80 00  	li	s10, 0x8
800029fc: 93 7e 2e ff  	andi	t4, t3, -0xe
80002a00: 6f f0 5f ca  	j	0x800026a4 <_vsnprintf+0x774>
80002a04: 13 f6 0e 02  	andi	a2, t4, 0x20
80002a08: 13 07 10 06  	li	a4, 0x61
80002a0c: 63 04 06 00  	beqz	a2, 0x80002a14 <_vsnprintf+0xae4>
80002a10: 13 07 10 04  	li	a4, 0x41
80002a14: 13 7f f7 0f  	andi	t5, a4, 0xff
80002a18: 13 03 90 00  	li	t1, 0x9
80002a1c: 13 07 01 03  	addi	a4, sp, 0x30
80002a20: 13 0f 6f ff  	addi	t5, t5, -0xa
80002a24: 13 0e 00 02  	li	t3, 0x20
80002a28: 6f 00 80 02  	j	0x80002a50 <_vsnprintf+0xb20>
80002a2c: 93 86 06 03  	addi	a3, a3, 0x30
80002a30: 93 f6 f6 0f  	andi	a3, a3, 0xff
80002a34: 93 87 17 00  	addi	a5, a5, 0x1
80002a38: 33 06 f7 00  	add	a2, a4, a5
80002a3c: a3 0f d6 fe  	sb	a3, -0x1(a2)
80002a40: b3 d6 a5 03  	divu	a3, a1, s10
80002a44: e3 ea a5 c9  	bltu	a1, s10, 0x800026d8 <_vsnprintf+0x7a8>
80002a48: e3 88 c7 c9  	beq	a5, t3, 0x800026d8 <_vsnprintf+0x7a8>
80002a4c: 93 85 06 00  	mv	a1, a3
80002a50: 33 f6 a5 03  	remu	a2, a1, s10
80002a54: 93 76 f6 0f  	andi	a3, a2, 0xff
80002a58: e3 7a c3 fc  	bgeu	t1, a2, 0x80002a2c <_vsnprintf+0xafc>
80002a5c: b3 86 e6 01  	add	a3, a3, t5
80002a60: 93 f6 f6 0f  	andi	a3, a3, 0xff
80002a64: 6f f0 1f fd  	j	0x80002a34 <_vsnprintf+0xb04>
80002a68: 13 07 01 03  	addi	a4, sp, 0x30
80002a6c: e3 16 05 b4  	bnez	a0, 0x800025b8 <_vsnprintf+0x688>
80002a70: 6f f0 1f b1  	j	0x80002580 <_vsnprintf+0x650>
80002a74: 83 a7 0c 00  	lw	a5, 0x0(s9)
80002a78: 93 d5 f7 01  	srli	a1, a5, 0x1f
80002a7c: 63 8c 07 1c  	beqz	a5, 0x80002c54 <_vsnprintf+0xd24>
80002a80: 13 d7 f7 41  	srai	a4, a5, 0x1f
80002a84: 33 45 f7 00  	xor	a0, a4, a5
80002a88: 33 05 e5 40  	sub	a0, a0, a4
80002a8c: 13 07 01 03  	addi	a4, sp, 0x30
80002a90: 13 06 a0 00  	li	a2, 0xa
80002a94: 93 0e 90 00  	li	t4, 0x9
80002a98: 13 0f 00 02  	li	t5, 0x20
80002a9c: 6f 00 80 00  	j	0x80002aa4 <_vsnprintf+0xb74>
80002aa0: 63 82 e6 03  	beq	a3, t5, 0x80002ac4 <_vsnprintf+0xb94>
80002aa4: b3 77 c5 02  	remu	a5, a0, a2
80002aa8: 93 86 16 00  	addi	a3, a3, 0x1
80002aac: b3 0f d7 00  	add	t6, a4, a3
80002ab0: 13 03 05 00  	mv	t1, a0
80002ab4: 93 87 07 03  	addi	a5, a5, 0x30
80002ab8: a3 8f ff fe  	sb	a5, -0x1(t6)
80002abc: 33 55 c5 02  	divu	a0, a0, a2
80002ac0: e3 e0 6e fe  	bltu	t4, t1, 0x80002aa0 <_vsnprintf+0xb70>
80002ac4: 23 22 11 01  	sw	a7, 0x4(sp)
80002ac8: 23 20 01 01  	sw	a6, 0x0(sp)
80002acc: 13 06 04 00  	mv	a2, s0
80002ad0: 23 24 c1 01  	sw	t3, 0x8(sp)
80002ad4: 93 08 a0 00  	li	a7, 0xa
80002ad8: 13 88 05 00  	mv	a6, a1
80002adc: 93 87 06 00  	mv	a5, a3
80002ae0: 6f f0 1f af  	j	0x800025d0 <_vsnprintf+0x6a0>
80002ae4: 13 f7 0e 02  	andi	a4, t4, 0x20
80002ae8: 93 07 10 06  	li	a5, 0x61
80002aec: 63 04 07 00  	beqz	a4, 0x80002af4 <_vsnprintf+0xbc4>
80002af0: 93 07 10 04  	li	a5, 0x41
80002af4: 13 f6 f7 0f  	andi	a2, a5, 0xff
80002af8: 13 0c 00 00  	li	s8, 0x0
80002afc: 13 07 01 03  	addi	a4, sp, 0x30
80002b00: 93 07 66 ff  	addi	a5, a2, -0xa
80002b04: 23 20 81 02  	sw	s0, 0x20(sp)
80002b08: 23 24 71 03  	sw	s7, 0x28(sp)
80002b0c: 23 26 61 03  	sw	s6, 0x2c(sp)
80002b10: 23 2c 11 01  	sw	a7, 0x18(sp)
80002b14: 13 0b 0c 00  	mv	s6, s8
80002b18: 23 2e 01 01  	sw	a6, 0x1c(sp)
80002b1c: 13 0c 09 00  	mv	s8, s2
80002b20: 23 22 d1 03  	sw	t4, 0x24(sp)
80002b24: 13 84 06 00  	mv	s0, a3
80002b28: 93 0b 07 00  	mv	s7, a4
80002b2c: 13 89 07 00  	mv	s2, a5
80002b30: 6f 00 40 04  	j	0x80002b74 <_vsnprintf+0xc44>
80002b34: 93 07 05 03  	addi	a5, a0, 0x30
80002b38: 93 f7 f7 0f  	andi	a5, a5, 0xff
80002b3c: 13 0b 1b 00  	addi	s6, s6, 0x1
80002b40: 33 88 6b 01  	add	a6, s7, s6
80002b44: a3 0f f8 fe  	sb	a5, -0x1(a6)
80002b48: 13 06 0d 00  	mv	a2, s10
80002b4c: 93 06 00 00  	li	a3, 0x0
80002b50: 13 05 04 00  	mv	a0, s0
80002b54: 93 85 04 00  	mv	a1, s1
80002b58: ef 20 50 46  	jal	0x800057bc <__udivdi3>
80002b5c: 93 07 00 00  	li	a5, 0x0
80002b60: 63 80 97 10  	beq	a5, s1, 0x80002c60 <_vsnprintf+0xd30>
80002b64: 93 07 00 02  	li	a5, 0x20
80002b68: 63 0e fb 0e  	beq	s6, a5, 0x80002c64 <_vsnprintf+0xd34>
80002b6c: 13 04 05 00  	mv	s0, a0
80002b70: 93 84 05 00  	mv	s1, a1
80002b74: 13 06 0d 00  	mv	a2, s10
80002b78: 93 06 00 00  	li	a3, 0x0
80002b7c: 13 05 04 00  	mv	a0, s0
80002b80: 93 85 04 00  	mv	a1, s1
80002b84: ef 20 d0 79  	jal	0x80005b20 <__umoddi3>
80002b88: 13 75 f5 0f  	andi	a0, a0, 0xff
80002b8c: 93 07 90 00  	li	a5, 0x9
80002b90: e3 f2 a7 fa  	bgeu	a5, a0, 0x80002b34 <_vsnprintf+0xc04>
80002b94: b3 07 25 01  	add	a5, a0, s2
80002b98: 93 f7 f7 0f  	andi	a5, a5, 0xff
80002b9c: 6f f0 1f fa  	j	0x80002b3c <_vsnprintf+0xc0c>
80002ba0: 13 f7 0e 08  	andi	a4, t4, 0x80
80002ba4: 63 0e 07 0e  	beqz	a4, 0x80002ca0 <_vsnprintf+0xd70>
80002ba8: 83 d5 0c 00  	lhu	a1, 0x0(s9)
80002bac: 6f f0 9f b1  	j	0x800026c4 <_vsnprintf+0x794>
80002bb0: 83 a7 0c 00  	lw	a5, 0x0(s9)
80002bb4: 63 98 07 00  	bnez	a5, 0x80002bc4 <_vsnprintf+0xc94>
80002bb8: 93 fe fe fe  	andi	t4, t4, -0x11
80002bbc: 13 07 01 03  	addi	a4, sp, 0x30
80002bc0: 63 14 06 06  	bnez	a2, 0x80002c28 <_vsnprintf+0xcf8>
80002bc4: 13 f6 0e 02  	andi	a2, t4, 0x20
80002bc8: 13 07 10 06  	li	a4, 0x61
80002bcc: 63 04 06 00  	beqz	a2, 0x80002bd4 <_vsnprintf+0xca4>
80002bd0: 13 07 10 04  	li	a4, 0x41
80002bd4: 13 7f f7 0f  	andi	t5, a4, 0xff
80002bd8: 13 0e 90 00  	li	t3, 0x9
80002bdc: 13 07 01 03  	addi	a4, sp, 0x30
80002be0: 13 0f 6f ff  	addi	t5, t5, -0xa
80002be4: 13 03 00 02  	li	t1, 0x20
80002be8: 6f 00 80 02  	j	0x80002c10 <_vsnprintf+0xce0>
80002bec: 93 86 06 03  	addi	a3, a3, 0x30
80002bf0: 93 f6 f6 0f  	andi	a3, a3, 0xff
80002bf4: 93 85 15 00  	addi	a1, a1, 0x1
80002bf8: 33 06 b7 00  	add	a2, a4, a1
80002bfc: a3 0f d6 fe  	sb	a3, -0x1(a2)
80002c00: b3 d6 a7 03  	divu	a3, a5, s10
80002c04: 63 e2 a7 03  	bltu	a5, s10, 0x80002c28 <_vsnprintf+0xcf8>
80002c08: 63 80 65 02  	beq	a1, t1, 0x80002c28 <_vsnprintf+0xcf8>
80002c0c: 93 87 06 00  	mv	a5, a3
80002c10: 33 f6 a7 03  	remu	a2, a5, s10
80002c14: 93 76 f6 0f  	andi	a3, a2, 0xff
80002c18: e3 7a ce fc  	bgeu	t3, a2, 0x80002bec <_vsnprintf+0xcbc>
80002c1c: b3 86 e6 01  	add	a3, a3, t5
80002c20: 93 f6 f6 0f  	andi	a3, a3, 0xff
80002c24: 6f f0 1f fd  	j	0x80002bf4 <_vsnprintf+0xcc4>
80002c28: 23 22 11 01  	sw	a7, 0x4(sp)
80002c2c: 23 20 01 01  	sw	a6, 0x0(sp)
80002c30: 13 06 04 00  	mv	a2, s0
80002c34: 23 24 d1 01  	sw	t4, 0x8(sp)
80002c38: 93 08 0d 00  	mv	a7, s10
80002c3c: 13 08 00 00  	li	a6, 0x0
80002c40: 93 87 05 00  	mv	a5, a1
80002c44: 6f f0 df 98  	j	0x800025d0 <_vsnprintf+0x6a0>
80002c48: 93 fe 36 ff  	andi	t4, a3, -0xd
80002c4c: 13 0d 20 00  	li	s10, 0x2
80002c50: 6f f0 5f a5  	j	0x800026a4 <_vsnprintf+0x774>
80002c54: 13 07 01 03  	addi	a4, sp, 0x30
80002c58: e3 16 05 e6  	bnez	a0, 0x80002ac4 <_vsnprintf+0xb94>
80002c5c: 6f f0 1f e3  	j	0x80002a8c <_vsnprintf+0xb5c>
80002c60: e3 72 a4 f1  	bgeu	s0, s10, 0x80002b64 <_vsnprintf+0xc34>
80002c64: 13 09 0c 00  	mv	s2, s8
80002c68: 13 87 0b 00  	mv	a4, s7
80002c6c: 13 0c 0b 00  	mv	s8, s6
80002c70: 83 28 81 01  	lw	a7, 0x18(sp)
80002c74: 03 28 c1 01  	lw	a6, 0x1c(sp)
80002c78: 03 24 01 02  	lw	s0, 0x20(sp)
80002c7c: 83 2e 41 02  	lw	t4, 0x24(sp)
80002c80: 03 2b c1 02  	lw	s6, 0x2c(sp)
80002c84: 83 2b 81 02  	lw	s7, 0x28(sp)
80002c88: 6f f0 5f d3  	j	0x800029bc <_vsnprintf+0xa8c>
80002c8c: 03 a7 0c 00  	lw	a4, 0x0(s9)
80002c90: 13 56 f7 41  	srai	a2, a4, 0x1f
80002c94: b3 46 e6 00  	xor	a3, a2, a4
80002c98: b3 86 c6 40  	sub	a3, a3, a2
80002c9c: 6f f0 9f 8d  	j	0x80002574 <_vsnprintf+0x644>
80002ca0: 83 a5 0c 00  	lw	a1, 0x0(s9)
80002ca4: 6f f0 1f a2  	j	0x800026c4 <_vsnprintf+0x794>
80002ca8: 93 07 00 00  	li	a5, 0x0
80002cac: 13 07 01 03  	addi	a4, sp, 0x30
80002cb0: 6f f0 9f c4  	j	0x800028f8 <_vsnprintf+0x9c8>
80002cb4: 93 84 14 00  	addi	s1, s1, 0x1
80002cb8: 6f f0 9f b5  	j	0x80002810 <_vsnprintf+0x8e0>
80002cbc: 93 e6 06 02  	ori	a3, a3, 0x20
80002cc0: 93 fe 36 ff  	andi	t4, a3, -0xd
80002cc4: 13 06 00 00  	li	a2, 0x0
80002cc8: 13 0d 00 01  	li	s10, 0x10
80002ccc: 6f f0 9f 9d  	j	0x800026a4 <_vsnprintf+0x774>
80002cd0: 93 07 90 06  	li	a5, 0x69
80002cd4: 13 fe f6 fe  	andi	t3, a3, -0x11
80002cd8: 63 1a f5 00  	bne	a0, a5, 0x80002cec <_vsnprintf+0xdbc>
80002cdc: 13 f5 06 40  	andi	a0, a3, 0x400
80002ce0: e3 0c 05 84  	beqz	a0, 0x80002538 <_vsnprintf+0x608>
80002ce4: 13 fe e6 fe  	andi	t3, a3, -0x12
80002ce8: 6f f0 1f 85  	j	0x80002538 <_vsnprintf+0x608>
80002cec: 13 f6 06 40  	andi	a2, a3, 0x400
80002cf0: 93 fe 36 fe  	andi	t4, a3, -0x1d
80002cf4: 13 0d a0 00  	li	s10, 0xa
80002cf8: e3 06 06 9a  	beqz	a2, 0x800026a4 <_vsnprintf+0x774>
80002cfc: 93 7e 2e ff  	andi	t4, t3, -0xe
80002d00: 6f f0 5f 9a  	j	0x800026a4 <_vsnprintf+0x774>

80002d04 <tiny_vprintf>:
80002d04: 13 01 01 fe  	addi	sp, sp, -0x20
80002d08: 93 06 05 00  	mv	a3, a0
80002d0c: 13 87 05 00  	mv	a4, a1
80002d10: 13 06 f0 ff  	li	a2, -0x1
80002d14: 93 05 c1 00  	addi	a1, sp, 0xc
80002d18: 17 e5 ff ff  	auipc	a0, 0xffffe
80002d1c: 13 05 45 51  	addi	a0, a0, 0x514
80002d20: 23 2e 11 00  	sw	ra, 0x1c(sp)
80002d24: ef f0 cf a0  	jal	0x80001f30 <_vsnprintf>
80002d28: 83 20 c1 01  	lw	ra, 0x1c(sp)
80002d2c: 13 01 01 02  	addi	sp, sp, 0x20
80002d30: 67 80 00 00  	ret

80002d34 <dummy>:
80002d34: 67 80 00 00  	ret

80002d38 <libc_exit_fini>:
80002d38: 13 01 01 ff  	addi	sp, sp, -0x10
80002d3c: 23 26 11 00  	sw	ra, 0xc(sp)
80002d40: 23 24 81 00  	sw	s0, 0x8(sp)
80002d44: 23 22 91 00  	sw	s1, 0x4(sp)
80002d48: 17 45 00 00  	auipc	a0, 0x4
80002d4c: 03 25 c5 56  	lw	a0, 0x56c(a0)
80002d50: 97 45 00 00  	auipc	a1, 0x4
80002d54: 03 a4 85 56  	lw	s0, 0x568(a1)
80002d58: 63 7c a4 00  	bgeu	s0, a0, 0x80002d70 <libc_exit_fini+0x38>
80002d5c: 83 25 c5 ff  	lw	a1, -0x4(a0)
80002d60: 93 04 c5 ff  	addi	s1, a0, -0x4
80002d64: e7 80 05 00  	jalr	a1
80002d68: 13 85 04 00  	mv	a0, s1
80002d6c: e3 68 94 fe  	bltu	s0, s1, 0x80002d5c <libc_exit_fini+0x24>
80002d70: 83 20 c1 00  	lw	ra, 0xc(sp)
80002d74: 03 24 81 00  	lw	s0, 0x8(sp)
80002d78: 83 24 41 00  	lw	s1, 0x4(sp)
80002d7c: 13 01 01 01  	addi	sp, sp, 0x10
80002d80: 6f f0 5f fb  	j	0x80002d34 <dummy>

80002d84 <memcpy>:
80002d84: 13 01 01 ff  	addi	sp, sp, -0x10
80002d88: 23 26 81 00  	sw	s0, 0xc(sp)
80002d8c: 23 24 91 00  	sw	s1, 0x8(sp)
80002d90: 23 22 21 01  	sw	s2, 0x4(sp)
80002d94: 23 20 31 01  	sw	s3, 0x0(sp)
80002d98: 93 f6 35 00  	andi	a3, a1, 0x3
80002d9c: b3 36 d0 00  	snez	a3, a3
80002da0: 33 37 c0 00  	snez	a4, a2
80002da4: b3 f7 e6 00  	and	a5, a3, a4
80002da8: 0b a7 17 00  	vx_split_n	a4, a5
80002dac: 93 06 05 00  	mv	a3, a0
80002db0: 63 86 07 04  	beqz	a5, 0x80002dfc <memcpy+0x78>
80002db4: 93 87 15 00  	addi	a5, a1, 0x1
80002db8: 73 28 40 cc  	csrr	a6, tmask
80002dbc: 93 88 05 00  	mv	a7, a1
80002dc0: 93 02 05 00  	mv	t0, a0
80002dc4: 03 c3 08 00  	lbu	t1, 0x0(a7)
80002dc8: 93 85 18 00  	addi	a1, a7, 0x1
80002dcc: 93 86 12 00  	addi	a3, t0, 0x1
80002dd0: 23 80 62 00  	sb	t1, 0x0(t0)
80002dd4: 13 06 f6 ff  	addi	a2, a2, -0x1
80002dd8: 93 f8 37 00  	andi	a7, a5, 0x3
80002ddc: 93 b8 18 00  	seqz	a7, a7
80002de0: 93 32 16 00  	seqz	t0, a2
80002de4: 33 e3 58 00  	or	t1, a7, t0
80002de8: 93 87 17 00  	addi	a5, a5, 0x1
80002dec: 8b 50 03 01  	vx_pred_n	t1, a6
80002df0: 93 88 05 00  	mv	a7, a1
80002df4: 93 82 06 00  	mv	t0, a3
80002df8: e3 06 03 fc  	beqz	t1, 0x80002dc4 <memcpy+0x40>
80002dfc: 0b 30 07 00  	vx_join	a4
80002e00: 13 08 00 00  	li	a6, 0x0
80002e04: 93 fe 36 00  	andi	t4, a3, 0x3
80002e08: 33 33 d0 01  	snez	t1, t4
80002e0c: 0b 27 13 00  	vx_split_n	a4, t1
80002e10: 93 08 10 00  	li	a7, 0x1
80002e14: 63 06 03 38  	beqz	t1, 0x800031a0 <memcpy+0x41c>
80002e18: 93 37 06 02  	sltiu	a5, a2, 0x20
80002e1c: 13 c3 17 00  	xori	t1, a5, 0x1
80002e20: 8b 28 13 00  	vx_split_n	a7, t1
80002e24: 93 82 05 00  	mv	t0, a1
80002e28: 93 87 06 00  	mv	a5, a3
80002e2c: 13 08 06 00  	mv	a6, a2
80002e30: 63 0a 03 1e  	beqz	t1, 0x80003024 <memcpy+0x2a0>
80002e34: 03 a3 05 00  	lw	t1, 0x0(a1)
80002e38: 93 a7 3e 00  	slti	a5, t4, 0x3
80002e3c: 13 ce 17 00  	xori	t3, a5, 0x1
80002e40: 8b 23 1e 00  	vx_split_n	t2, t3
80002e44: 13 0f 10 00  	li	t5, 0x1
80002e48: 63 06 0e 08  	beqz	t3, 0x80002ed4 <memcpy+0x150>
80002e4c: 93 87 16 00  	addi	a5, a3, 0x1
80002e50: 23 80 66 00  	sb	t1, 0x0(a3)
80002e54: 13 08 f6 ff  	addi	a6, a2, -0x1
80002e58: 93 82 05 01  	addi	t0, a1, 0x10
80002e5c: 73 2e 40 cc  	csrr	t3, tmask
80002e60: 13 0f 03 00  	mv	t5, t1
80002e64: 83 af 42 ff  	lw	t6, -0xc(t0)
80002e68: 13 5f 8f 00  	srli	t5, t5, 0x8
80002e6c: 13 94 8f 01  	slli	s0, t6, 0x18
80002e70: 83 a4 82 ff  	lw	s1, -0x8(t0)
80002e74: 33 6f e4 01  	or	t5, s0, t5
80002e78: 23 a0 e7 01  	sw	t5, 0x0(a5)
80002e7c: 13 df 8f 00  	srli	t5, t6, 0x8
80002e80: 93 9f 84 01  	slli	t6, s1, 0x18
80002e84: 03 a4 c2 ff  	lw	s0, -0x4(t0)
80002e88: 33 ef ef 01  	or	t5, t6, t5
80002e8c: 23 a2 e7 01  	sw	t5, 0x4(a5)
80002e90: 93 d4 84 00  	srli	s1, s1, 0x8
80002e94: 93 1f 84 01  	slli	t6, s0, 0x18
80002e98: 03 af 02 00  	lw	t5, 0x0(t0)
80002e9c: b3 ef 9f 00  	or	t6, t6, s1
80002ea0: 23 a4 f7 01  	sw	t6, 0x8(a5)
80002ea4: 13 54 84 00  	srli	s0, s0, 0x8
80002ea8: 93 1f 8f 01  	slli	t6, t5, 0x18
80002eac: b3 ef 8f 00  	or	t6, t6, s0
80002eb0: 23 a6 f7 01  	sw	t6, 0xc(a5)
80002eb4: 93 87 07 01  	addi	a5, a5, 0x10
80002eb8: 13 08 08 ff  	addi	a6, a6, -0x10
80002ebc: 93 82 02 01  	addi	t0, t0, 0x10
80002ec0: 93 3f 38 01  	sltiu	t6, a6, 0x13
80002ec4: 8b d0 cf 01  	vx_pred_n	t6, t3
80002ec8: e3 8e 0f f8  	beqz	t6, 0x80002e64 <memcpy+0xe0>
80002ecc: 13 0f 00 00  	li	t5, 0x0
80002ed0: 93 82 12 ff  	addi	t0, t0, -0xf
80002ed4: 13 8e 05 01  	addi	t3, a1, 0x10
80002ed8: 0b b0 03 00  	vx_join	t2
80002edc: 8b 23 1f 00  	vx_split_n	t2, t5
80002ee0: 63 00 0f 14  	beqz	t5, 0x80003020 <memcpy+0x29c>
80002ee4: 93 8e ee ff  	addi	t4, t4, -0x2
80002ee8: 33 34 d0 01  	snez	s0, t4
80002eec: 0b 2f 14 00  	vx_split_n	t5, s0
80002ef0: 93 0f 10 00  	li	t6, 0x1
80002ef4: 93 5e 83 00  	srli	t4, t1, 0x8
80002ef8: 63 0c 04 08  	beqz	s0, 0x80002f90 <memcpy+0x20c>
80002efc: 23 80 66 00  	sb	t1, 0x0(a3)
80002f00: a3 80 d6 01  	sb	t4, 0x1(a3)
80002f04: 13 58 03 01  	srli	a6, t1, 0x10
80002f08: 93 87 36 00  	addi	a5, a3, 0x3
80002f0c: 23 81 06 01  	sb	a6, 0x2(a3)
80002f10: 13 08 d6 ff  	addi	a6, a2, -0x3
80002f14: 93 82 05 01  	addi	t0, a1, 0x10
80002f18: f3 2f 40 cc  	csrr	t6, tmask
80002f1c: 13 04 03 00  	mv	s0, t1
80002f20: 83 a4 42 ff  	lw	s1, -0xc(t0)
80002f24: 13 54 84 01  	srli	s0, s0, 0x18
80002f28: 13 99 84 00  	slli	s2, s1, 0x8
80002f2c: 83 a9 82 ff  	lw	s3, -0x8(t0)
80002f30: 33 64 89 00  	or	s0, s2, s0
80002f34: 23 a0 87 00  	sw	s0, 0x0(a5)
80002f38: 93 d4 84 01  	srli	s1, s1, 0x18
80002f3c: 13 94 89 00  	slli	s0, s3, 0x8
80002f40: 03 a9 c2 ff  	lw	s2, -0x4(t0)
80002f44: 33 64 94 00  	or	s0, s0, s1
80002f48: 23 a2 87 00  	sw	s0, 0x4(a5)
80002f4c: 93 d4 89 01  	srli	s1, s3, 0x18
80002f50: 93 19 89 00  	slli	s3, s2, 0x8
80002f54: 03 a4 02 00  	lw	s0, 0x0(t0)
80002f58: b3 e4 99 00  	or	s1, s3, s1
80002f5c: 23 a4 97 00  	sw	s1, 0x8(a5)
80002f60: 93 54 89 01  	srli	s1, s2, 0x18
80002f64: 13 19 84 00  	slli	s2, s0, 0x8
80002f68: b3 64 99 00  	or	s1, s2, s1
80002f6c: 23 a6 97 00  	sw	s1, 0xc(a5)
80002f70: 93 87 07 01  	addi	a5, a5, 0x10
80002f74: 13 08 08 ff  	addi	a6, a6, -0x10
80002f78: 93 82 02 01  	addi	t0, t0, 0x10
80002f7c: 93 34 18 01  	sltiu	s1, a6, 0x11
80002f80: 8b d0 f4 01  	vx_pred_n	s1, t6
80002f84: e3 8e 04 f8  	beqz	s1, 0x80002f20 <memcpy+0x19c>
80002f88: 93 0f 00 00  	li	t6, 0x0
80002f8c: 93 82 32 ff  	addi	t0, t0, -0xd
80002f90: 0b 30 0f 00  	vx_join	t5
80002f94: 0b af 1f 00  	vx_split_n	t5, t6
80002f98: 63 82 0f 08  	beqz	t6, 0x8000301c <memcpy+0x298>
80002f9c: 23 80 66 00  	sb	t1, 0x0(a3)
80002fa0: 93 87 26 00  	addi	a5, a3, 0x2
80002fa4: a3 80 d6 01  	sb	t4, 0x1(a3)
80002fa8: 13 08 e6 ff  	addi	a6, a2, -0x2
80002fac: f3 22 40 cc  	csrr	t0, tmask
80002fb0: 83 2e 4e ff  	lw	t4, -0xc(t3)
80002fb4: 13 53 03 01  	srli	t1, t1, 0x10
80002fb8: 93 9f 0e 01  	slli	t6, t4, 0x10
80002fbc: 03 24 8e ff  	lw	s0, -0x8(t3)
80002fc0: 33 e3 6f 00  	or	t1, t6, t1
80002fc4: 23 a0 67 00  	sw	t1, 0x0(a5)
80002fc8: 13 d3 0e 01  	srli	t1, t4, 0x10
80002fcc: 93 1e 04 01  	slli	t4, s0, 0x10
80002fd0: 83 2f ce ff  	lw	t6, -0x4(t3)
80002fd4: 33 e3 6e 00  	or	t1, t4, t1
80002fd8: 23 a2 67 00  	sw	t1, 0x4(a5)
80002fdc: 13 54 04 01  	srli	s0, s0, 0x10
80002fe0: 93 9e 0f 01  	slli	t4, t6, 0x10
80002fe4: 03 23 0e 00  	lw	t1, 0x0(t3)
80002fe8: b3 ee 8e 00  	or	t4, t4, s0
80002fec: 23 a4 d7 01  	sw	t4, 0x8(a5)
80002ff0: 93 de 0f 01  	srli	t4, t6, 0x10
80002ff4: 93 1f 03 01  	slli	t6, t1, 0x10
80002ff8: b3 ee df 01  	or	t4, t6, t4
80002ffc: 23 a6 d7 01  	sw	t4, 0xc(a5)
80003000: 93 87 07 01  	addi	a5, a5, 0x10
80003004: 13 08 08 ff  	addi	a6, a6, -0x10
80003008: 13 0e 0e 01  	addi	t3, t3, 0x10
8000300c: 93 3e 28 01  	sltiu	t4, a6, 0x12
80003010: 8b d0 5e 00  	vx_pred_n	t4, t0
80003014: e3 8e 0e f8  	beqz	t4, 0x80002fb0 <memcpy+0x22c>
80003018: 93 02 2e ff  	addi	t0, t3, -0xe
8000301c: 0b 30 0f 00  	vx_join	t5
80003020: 0b b0 03 00  	vx_join	t2
80003024: 0b b0 08 00  	vx_join	a7
80003028: 93 38 08 01  	sltiu	a7, a6, 0x10
8000302c: 13 c3 18 00  	xori	t1, a7, 0x1
80003030: 8b 28 13 00  	vx_split_n	a7, t1
80003034: 63 08 03 08  	beqz	t1, 0x800030c4 <memcpy+0x340>
80003038: 03 c3 02 00  	lbu	t1, 0x0(t0)
8000303c: 83 c3 12 00  	lbu	t2, 0x1(t0)
80003040: 03 ce 22 00  	lbu	t3, 0x2(t0)
80003044: 23 80 67 00  	sb	t1, 0x0(a5)
80003048: a3 80 77 00  	sb	t2, 0x1(a5)
8000304c: 03 c3 32 00  	lbu	t1, 0x3(t0)
80003050: 23 81 c7 01  	sb	t3, 0x2(a5)
80003054: 83 c3 42 00  	lbu	t2, 0x4(t0)
80003058: 03 ce 52 00  	lbu	t3, 0x5(t0)
8000305c: a3 81 67 00  	sb	t1, 0x3(a5)
80003060: 03 c3 62 00  	lbu	t1, 0x6(t0)
80003064: 23 82 77 00  	sb	t2, 0x4(a5)
80003068: a3 82 c7 01  	sb	t3, 0x5(a5)
8000306c: 83 c3 72 00  	lbu	t2, 0x7(t0)
80003070: 23 83 67 00  	sb	t1, 0x6(a5)
80003074: 03 c3 82 00  	lbu	t1, 0x8(t0)
80003078: 03 ce 92 00  	lbu	t3, 0x9(t0)
8000307c: a3 83 77 00  	sb	t2, 0x7(a5)
80003080: 83 c3 a2 00  	lbu	t2, 0xa(t0)
80003084: 23 84 67 00  	sb	t1, 0x8(a5)
80003088: a3 84 c7 01  	sb	t3, 0x9(a5)
8000308c: 03 c3 b2 00  	lbu	t1, 0xb(t0)
80003090: 23 85 77 00  	sb	t2, 0xa(a5)
80003094: 83 c3 c2 00  	lbu	t2, 0xc(t0)
80003098: 03 ce d2 00  	lbu	t3, 0xd(t0)
8000309c: a3 85 67 00  	sb	t1, 0xb(a5)
800030a0: 03 c3 e2 00  	lbu	t1, 0xe(t0)
800030a4: 23 86 77 00  	sb	t2, 0xc(a5)
800030a8: a3 86 c7 01  	sb	t3, 0xd(a5)
800030ac: 83 c3 f2 00  	lbu	t2, 0xf(t0)
800030b0: 23 87 67 00  	sb	t1, 0xe(a5)
800030b4: 93 82 02 01  	addi	t0, t0, 0x10
800030b8: 13 83 07 01  	addi	t1, a5, 0x10
800030bc: a3 87 77 00  	sb	t2, 0xf(a5)
800030c0: 93 07 03 00  	mv	a5, t1
800030c4: 0b b0 08 00  	vx_join	a7
800030c8: 93 18 c8 01  	slli	a7, a6, 0x1c
800030cc: 13 d3 f8 01  	srli	t1, a7, 0x1f
800030d0: 8b 28 13 00  	vx_split_n	a7, t1
800030d4: 63 08 03 04  	beqz	t1, 0x80003124 <memcpy+0x3a0>
800030d8: 03 c3 02 00  	lbu	t1, 0x0(t0)
800030dc: 83 c3 12 00  	lbu	t2, 0x1(t0)
800030e0: 03 ce 22 00  	lbu	t3, 0x2(t0)
800030e4: 23 80 67 00  	sb	t1, 0x0(a5)
800030e8: a3 80 77 00  	sb	t2, 0x1(a5)
800030ec: 03 c3 32 00  	lbu	t1, 0x3(t0)
800030f0: 23 81 c7 01  	sb	t3, 0x2(a5)
800030f4: 83 c3 42 00  	lbu	t2, 0x4(t0)
800030f8: 03 ce 52 00  	lbu	t3, 0x5(t0)
800030fc: a3 81 67 00  	sb	t1, 0x3(a5)
80003100: 03 c3 62 00  	lbu	t1, 0x6(t0)
80003104: 23 82 77 00  	sb	t2, 0x4(a5)
80003108: a3 82 c7 01  	sb	t3, 0x5(a5)
8000310c: 83 c3 72 00  	lbu	t2, 0x7(t0)
80003110: 23 83 67 00  	sb	t1, 0x6(a5)
80003114: 93 82 82 00  	addi	t0, t0, 0x8
80003118: 13 83 87 00  	addi	t1, a5, 0x8
8000311c: a3 83 77 00  	sb	t2, 0x7(a5)
80003120: 93 07 03 00  	mv	a5, t1
80003124: 0b b0 08 00  	vx_join	a7
80003128: 93 18 d8 01  	slli	a7, a6, 0x1d
8000312c: 13 d3 f8 01  	srli	t1, a7, 0x1f
80003130: 8b 28 13 00  	vx_split_n	a7, t1
80003134: 63 08 03 02  	beqz	t1, 0x80003164 <memcpy+0x3e0>
80003138: 03 c3 02 00  	lbu	t1, 0x0(t0)
8000313c: 83 c3 12 00  	lbu	t2, 0x1(t0)
80003140: 03 ce 22 00  	lbu	t3, 0x2(t0)
80003144: 23 80 67 00  	sb	t1, 0x0(a5)
80003148: a3 80 77 00  	sb	t2, 0x1(a5)
8000314c: 03 c3 32 00  	lbu	t1, 0x3(t0)
80003150: 23 81 c7 01  	sb	t3, 0x2(a5)
80003154: 93 82 42 00  	addi	t0, t0, 0x4
80003158: 93 83 47 00  	addi	t2, a5, 0x4
8000315c: a3 81 67 00  	sb	t1, 0x3(a5)
80003160: 93 87 03 00  	mv	a5, t2
80003164: 0b b0 08 00  	vx_join	a7
80003168: 93 18 e8 01  	slli	a7, a6, 0x1e
8000316c: 13 d3 f8 01  	srli	t1, a7, 0x1f
80003170: 8b 28 13 00  	vx_split_n	a7, t1
80003174: 63 00 03 02  	beqz	t1, 0x80003194 <memcpy+0x410>
80003178: 03 c3 02 00  	lbu	t1, 0x0(t0)
8000317c: 83 c3 12 00  	lbu	t2, 0x1(t0)
80003180: 23 80 67 00  	sb	t1, 0x0(a5)
80003184: 13 83 27 00  	addi	t1, a5, 0x2
80003188: 93 82 22 00  	addi	t0, t0, 0x2
8000318c: a3 80 77 00  	sb	t2, 0x1(a5)
80003190: 93 07 03 00  	mv	a5, t1
80003194: 0b b0 08 00  	vx_join	a7
80003198: 93 08 00 00  	li	a7, 0x0
8000319c: 13 78 18 00  	andi	a6, a6, 0x1
800031a0: 0b 30 07 00  	vx_join	a4
800031a4: 0b a7 18 00  	vx_split_n	a4, a7
800031a8: 63 84 08 0e  	beqz	a7, 0x80003290 <memcpy+0x50c>
800031ac: 93 37 06 01  	sltiu	a5, a2, 0x10
800031b0: 13 c8 17 00  	xori	a6, a5, 0x1
800031b4: 8b 27 18 00  	vx_split_n	a5, a6
800031b8: 63 00 08 04  	beqz	a6, 0x800031f8 <memcpy+0x474>
800031bc: 73 28 40 cc  	csrr	a6, tmask
800031c0: 83 a8 05 00  	lw	a7, 0x0(a1)
800031c4: 83 a2 45 00  	lw	t0, 0x4(a1)
800031c8: 03 a3 85 00  	lw	t1, 0x8(a1)
800031cc: 83 a3 c5 00  	lw	t2, 0xc(a1)
800031d0: 23 a0 16 01  	sw	a7, 0x0(a3)
800031d4: 23 a2 56 00  	sw	t0, 0x4(a3)
800031d8: 23 a4 66 00  	sw	t1, 0x8(a3)
800031dc: 23 a6 76 00  	sw	t2, 0xc(a3)
800031e0: 93 85 05 01  	addi	a1, a1, 0x10
800031e4: 93 86 06 01  	addi	a3, a3, 0x10
800031e8: 13 06 06 ff  	addi	a2, a2, -0x10
800031ec: 93 38 06 01  	sltiu	a7, a2, 0x10
800031f0: 8b d0 08 01  	vx_pred_n	a7, a6
800031f4: e3 86 08 fc  	beqz	a7, 0x800031c0 <memcpy+0x43c>
800031f8: 0b b0 07 00  	vx_join	a5
800031fc: 93 37 86 00  	sltiu	a5, a2, 0x8
80003200: 13 c8 17 00  	xori	a6, a5, 0x1
80003204: 8b 27 18 00  	vx_split_n	a5, a6
80003208: 63 00 08 02  	beqz	a6, 0x80003228 <memcpy+0x4a4>
8000320c: 03 a8 05 00  	lw	a6, 0x0(a1)
80003210: 83 a8 45 00  	lw	a7, 0x4(a1)
80003214: 93 85 85 00  	addi	a1, a1, 0x8
80003218: 23 a0 06 01  	sw	a6, 0x0(a3)
8000321c: 13 88 86 00  	addi	a6, a3, 0x8
80003220: 23 a2 16 01  	sw	a7, 0x4(a3)
80003224: 93 06 08 00  	mv	a3, a6
80003228: 0b b0 07 00  	vx_join	a5
8000322c: 93 17 d6 01  	slli	a5, a2, 0x1d
80003230: 13 d8 f7 01  	srli	a6, a5, 0x1f
80003234: 8b 27 18 00  	vx_split_n	a5, a6
80003238: 63 0c 08 00  	beqz	a6, 0x80003250 <memcpy+0x4cc>
8000323c: 03 a8 05 00  	lw	a6, 0x0(a1)
80003240: 93 85 45 00  	addi	a1, a1, 0x4
80003244: 93 88 46 00  	addi	a7, a3, 0x4
80003248: 23 a0 06 01  	sw	a6, 0x0(a3)
8000324c: 93 86 08 00  	mv	a3, a7
80003250: 0b b0 07 00  	vx_join	a5
80003254: 93 17 e6 01  	slli	a5, a2, 0x1e
80003258: 13 d8 f7 01  	srli	a6, a5, 0x1f
8000325c: 8b 27 18 00  	vx_split_n	a5, a6
80003260: 63 00 08 02  	beqz	a6, 0x80003280 <memcpy+0x4fc>
80003264: 03 c8 05 00  	lbu	a6, 0x0(a1)
80003268: 83 c8 15 00  	lbu	a7, 0x1(a1)
8000326c: 23 80 06 01  	sb	a6, 0x0(a3)
80003270: 13 88 26 00  	addi	a6, a3, 0x2
80003274: 93 85 25 00  	addi	a1, a1, 0x2
80003278: a3 80 16 01  	sb	a7, 0x1(a3)
8000327c: 93 06 08 00  	mv	a3, a6
80003280: 0b b0 07 00  	vx_join	a5
80003284: 13 78 16 00  	andi	a6, a2, 0x1
80003288: 93 82 05 00  	mv	t0, a1
8000328c: 93 87 06 00  	mv	a5, a3
80003290: 0b 30 07 00  	vx_join	a4
80003294: 8b 25 18 00  	vx_split_n	a1, a6
80003298: 63 06 08 00  	beqz	a6, 0x800032a4 <memcpy+0x520>
8000329c: 03 c6 02 00  	lbu	a2, 0x0(t0)
800032a0: 23 80 c7 00  	sb	a2, 0x0(a5)
800032a4: 0b b0 05 00  	vx_join	a1
800032a8: 03 24 c1 00  	lw	s0, 0xc(sp)
800032ac: 83 24 81 00  	lw	s1, 0x8(sp)
800032b0: 03 29 41 00  	lw	s2, 0x4(sp)
800032b4: 83 29 01 00  	lw	s3, 0x0(sp)
800032b8: 13 01 01 01  	addi	sp, sp, 0x10
800032bc: 67 80 00 00  	ret

800032c0 <memset>:
800032c0: 33 37 c0 00  	snez	a4, a2
800032c4: 8b 26 17 00  	vx_split_n	a3, a4
800032c8: 63 02 07 16  	beqz	a4, 0x8000342c <memset+0x16c>
800032cc: 23 00 b5 00  	sb	a1, 0x0(a0)
800032d0: 33 08 c5 00  	add	a6, a0, a2
800032d4: a3 0f b8 fe  	sb	a1, -0x1(a6)
800032d8: 13 37 36 00  	sltiu	a4, a2, 0x3
800032dc: 93 47 17 00  	xori	a5, a4, 0x1
800032e0: 0b a7 17 00  	vx_split_n	a4, a5
800032e4: 63 82 07 14  	beqz	a5, 0x80003428 <memset+0x168>
800032e8: a3 00 b5 00  	sb	a1, 0x1(a0)
800032ec: 23 01 b5 00  	sb	a1, 0x2(a0)
800032f0: 23 0f b8 fe  	sb	a1, -0x2(a6)
800032f4: a3 0e b8 fe  	sb	a1, -0x3(a6)
800032f8: 93 37 76 00  	sltiu	a5, a2, 0x7
800032fc: 93 c8 17 00  	xori	a7, a5, 0x1
80003300: 8b a7 18 00  	vx_split_n	a5, a7
80003304: 63 80 08 12  	beqz	a7, 0x80003424 <memset+0x164>
80003308: a3 01 b5 00  	sb	a1, 0x3(a0)
8000330c: 23 0e b8 fe  	sb	a1, -0x4(a6)
80003310: 13 38 96 00  	sltiu	a6, a2, 0x9
80003314: 93 48 18 00  	xori	a7, a6, 0x1
80003318: 0b a8 18 00  	vx_split_n	a6, a7
8000331c: 63 82 08 10  	beqz	a7, 0x80003420 <memset+0x160>
80003320: b3 08 a0 40  	neg	a7, a0
80003324: 93 f2 38 00  	andi	t0, a7, 0x3
80003328: 33 03 55 00  	add	t1, a0, t0
8000332c: 33 06 56 40  	sub	a2, a2, t0
80003330: 93 73 c6 ff  	andi	t2, a2, -0x4
80003334: 93 f5 f5 0f  	andi	a1, a1, 0xff
80003338: 37 06 01 01  	lui	a2, 0x1010
8000333c: 13 06 16 10  	addi	a2, a2, 0x101
80003340: 33 86 c5 02  	mul	a2, a1, a2
80003344: 23 20 c3 00  	sw	a2, 0x0(t1)
80003348: 33 0e 73 00  	add	t3, t1, t2
8000334c: 23 2e ce fe  	sw	a2, -0x4(t3)
80003350: 93 b5 93 00  	sltiu	a1, t2, 0x9
80003354: 93 c8 15 00  	xori	a7, a1, 0x1
80003358: 8b a5 18 00  	vx_split_n	a1, a7
8000335c: 63 80 08 0c  	beqz	a7, 0x8000341c <memset+0x15c>
80003360: 23 22 c3 00  	sw	a2, 0x4(t1)
80003364: 23 24 c3 00  	sw	a2, 0x8(t1)
80003368: 23 2a ce fe  	sw	a2, -0xc(t3)
8000336c: 23 2c ce fe  	sw	a2, -0x8(t3)
80003370: 93 b8 93 01  	sltiu	a7, t2, 0x19
80003374: 93 ce 18 00  	xori	t4, a7, 0x1
80003378: 8b a8 1e 00  	vx_split_n	a7, t4
8000337c: 63 8e 0e 08  	beqz	t4, 0x80003418 <memset+0x158>
80003380: 23 26 c3 00  	sw	a2, 0xc(t1)
80003384: 23 28 c3 00  	sw	a2, 0x10(t1)
80003388: 23 2a c3 00  	sw	a2, 0x14(t1)
8000338c: 23 2c c3 00  	sw	a2, 0x18(t1)
80003390: 23 22 ce fe  	sw	a2, -0x1c(t3)
80003394: 23 24 ce fe  	sw	a2, -0x18(t3)
80003398: 23 26 ce fe  	sw	a2, -0x14(t3)
8000339c: 23 28 ce fe  	sw	a2, -0x10(t3)
800033a0: 93 7e 43 00  	andi	t4, t1, 0x4
800033a4: 13 8f 8e 01  	addi	t5, t4, 0x18
800033a8: 33 8e e3 41  	sub	t3, t2, t5
800033ac: 13 3e 0e 02  	sltiu	t3, t3, 0x20
800033b0: 93 4f 1e 00  	xori	t6, t3, 0x1
800033b4: 0b ae 1f 00  	vx_split_n	t3, t6
800033b8: 63 8e 0f 04  	beqz	t6, 0x80003414 <memset+0x154>
800033bc: 33 03 e3 01  	add	t1, t1, t5
800033c0: b3 83 d3 41  	sub	t2, t2, t4
800033c4: 93 83 83 fc  	addi	t2, t2, -0x38
800033c8: 93 f3 03 fe  	andi	t2, t2, -0x20
800033cc: b3 e3 d3 01  	or	t2, t2, t4
800033d0: b3 82 a2 00  	add	t0, t0, a0
800033d4: b3 82 53 00  	add	t0, t2, t0
800033d8: 93 82 82 03  	addi	t0, t0, 0x38
800033dc: f3 23 40 cc  	csrr	t2, tmask
800033e0: 23 20 c3 00  	sw	a2, 0x0(t1)
800033e4: 23 22 c3 00  	sw	a2, 0x4(t1)
800033e8: 23 24 c3 00  	sw	a2, 0x8(t1)
800033ec: 23 26 c3 00  	sw	a2, 0xc(t1)
800033f0: 23 28 c3 00  	sw	a2, 0x10(t1)
800033f4: 23 2a c3 00  	sw	a2, 0x14(t1)
800033f8: 23 2c c3 00  	sw	a2, 0x18(t1)
800033fc: 23 2e c3 00  	sw	a2, 0x1c(t1)
80003400: 13 03 03 02  	addi	t1, t1, 0x20
80003404: b3 4e 53 00  	xor	t4, t1, t0
80003408: 93 be 1e 00  	seqz	t4, t4
8000340c: 8b d0 7e 00  	vx_pred_n	t4, t2
80003410: e3 88 0e fc  	beqz	t4, 0x800033e0 <memset+0x120>
80003414: 0b 30 0e 00  	vx_join	t3
80003418: 0b b0 08 00  	vx_join	a7
8000341c: 0b b0 05 00  	vx_join	a1
80003420: 0b 30 08 00  	vx_join	a6
80003424: 0b b0 07 00  	vx_join	a5
80003428: 0b 30 07 00  	vx_join	a4
8000342c: 0b b0 06 00  	vx_join	a3
80003430: 67 80 00 00  	ret

80003434 <__adddf3>:
80003434: 13 01 01 fb  	addi	sp, sp, -0x50
80003438: 23 26 11 04  	sw	ra, 0x4c(sp)
8000343c: 23 24 81 04  	sw	s0, 0x48(sp)
80003440: 23 22 91 04  	sw	s1, 0x44(sp)
80003444: 23 20 21 05  	sw	s2, 0x40(sp)
80003448: 23 2e 31 03  	sw	s3, 0x3c(sp)
8000344c: 23 2c 41 03  	sw	s4, 0x38(sp)
80003450: 23 2a 51 03  	sw	s5, 0x34(sp)
80003454: 23 28 61 03  	sw	s6, 0x30(sp)
80003458: 23 26 71 03  	sw	s7, 0x2c(sp)
8000345c: 23 24 81 03  	sw	s8, 0x28(sp)
80003460: 23 22 91 03  	sw	s9, 0x24(sp)
80003464: 23 20 a1 03  	sw	s10, 0x20(sp)
80003468: 23 2e b1 01  	sw	s11, 0x1c(sp)
8000346c: 93 89 06 00  	mv	s3, a3
80003470: 13 09 06 00  	mv	s2, a2
80003474: 93 84 05 00  	mv	s1, a1
80003478: 13 04 05 00  	mv	s0, a0
8000347c: 93 0b 00 00  	li	s7, 0x0
80003480: 13 0d 00 00  	li	s10, 0x0
80003484: 93 00 00 00  	li	ra, 0x0
80003488: 13 0c 00 00  	li	s8, 0x0
8000348c: 37 05 00 80  	lui	a0, 0x80000
80003490: 13 05 f5 ff  	addi	a0, a0, -0x1
80003494: b3 f5 a5 00  	and	a1, a1, a0
80003498: 33 fb a6 00  	and	s6, a3, a0
8000349c: 37 05 10 80  	lui	a0, 0x80100
800034a0: 33 86 a5 00  	add	a2, a1, a0
800034a4: 33 36 a6 00  	sltu	a2, a2, a0
800034a8: b3 56 b6 0e  	czero.eqz	a3, a2, a1
800034ac: 13 36 14 00  	seqz	a2, s0
800034b0: 33 77 b6 0e  	czero.nez	a4, a2, a1
800034b4: b3 66 d7 00  	or	a3, a4, a3
800034b8: 33 07 ab 00  	add	a4, s6, a0
800034bc: 33 35 a7 00  	sltu	a0, a4, a0
800034c0: 33 55 65 0f  	czero.eqz	a0, a0, s6
800034c4: 13 37 19 00  	seqz	a4, s2
800034c8: b3 77 67 0f  	czero.nez	a5, a4, s6
800034cc: 33 e5 a7 00  	or	a0, a5, a0
800034d0: b3 e7 a6 00  	or	a5, a3, a0
800034d4: 0b a5 17 00  	vx_split_n	a0, a5
800034d8: 93 06 10 00  	li	a3, 0x1
800034dc: 63 80 07 10  	beqz	a5, 0x800035dc <__adddf3+0x1a8>
800034e0: 93 06 00 00  	li	a3, 0x0
800034e4: 93 0b 00 00  	li	s7, 0x0
800034e8: 13 0d 00 00  	li	s10, 0x0
800034ec: 93 00 00 00  	li	ra, 0x0
800034f0: b7 07 f0 7f  	lui	a5, 0x7ff00
800034f4: 33 c8 f5 00  	xor	a6, a1, a5
800034f8: 33 76 06 0f  	czero.nez	a2, a2, a6
800034fc: 93 d8 45 01  	srli	a7, a1, 0x14
80003500: 93 b8 f8 7f  	sltiu	a7, a7, 0x7ff
80003504: 33 d8 08 0f  	czero.eqz	a6, a7, a6
80003508: 33 68 06 01  	or	a6, a2, a6
8000350c: 0b 26 18 00  	vx_split_n	a2, a6
80003510: 13 0c 10 00  	li	s8, 0x1
80003514: 63 02 08 0c  	beqz	a6, 0x800035d8 <__adddf3+0x1a4>
80003518: 93 06 00 00  	li	a3, 0x0
8000351c: 93 0b 00 00  	li	s7, 0x0
80003520: 13 0d 00 00  	li	s10, 0x0
80003524: b3 47 fb 00  	xor	a5, s6, a5
80003528: 33 77 f7 0e  	czero.nez	a4, a4, a5
8000352c: 13 58 4b 01  	srli	a6, s6, 0x14
80003530: 13 38 f8 7f  	sltiu	a6, a6, 0x7ff
80003534: b3 57 f8 0e  	czero.eqz	a5, a6, a5
80003538: b3 67 f7 00  	or	a5, a4, a5
8000353c: 0b a7 17 00  	vx_split_n	a4, a5
80003540: 93 00 10 00  	li	ra, 0x1
80003544: 63 86 07 08  	beqz	a5, 0x800035d0 <__adddf3+0x19c>
80003548: 93 06 00 00  	li	a3, 0x0
8000354c: 93 0b 00 00  	li	s7, 0x0
80003550: 37 08 f0 7f  	lui	a6, 0x7ff00
80003554: b3 c7 05 01  	xor	a5, a1, a6
80003558: b3 67 f4 00  	or	a5, s0, a5
8000355c: b3 38 f0 00  	snez	a7, a5
80003560: 8b a7 18 00  	vx_split_n	a5, a7
80003564: 13 0d 10 00  	li	s10, 0x1
80003568: 63 80 08 06  	beqz	a7, 0x800035c8 <__adddf3+0x194>
8000356c: 93 06 00 00  	li	a3, 0x0
80003570: 93 0b 00 00  	li	s7, 0x0
80003574: 33 48 0b 01  	xor	a6, s6, a6
80003578: 33 68 09 01  	or	a6, s2, a6
8000357c: b3 38 00 01  	snez	a7, a6
80003580: 0b a8 18 00  	vx_split_n	a6, a7
80003584: 13 0a 09 00  	mv	s4, s2
80003588: 93 8a 09 00  	mv	s5, s3
8000358c: 63 8a 08 02  	beqz	a7, 0x800035c0 <__adddf3+0x18c>
80003590: 93 06 00 00  	li	a3, 0x0
80003594: b3 68 b4 00  	or	a7, s0, a1
80003598: b3 32 10 01  	snez	t0, a7
8000359c: 8b a8 12 00  	vx_split_n	a7, t0
800035a0: 93 0b 10 00  	li	s7, 0x1
800035a4: 63 8c 02 00  	beqz	t0, 0x800035bc <__adddf3+0x188>
800035a8: 93 0b 00 00  	li	s7, 0x0
800035ac: b3 66 69 01  	or	a3, s2, s6
800035b0: b3 36 d0 00  	snez	a3, a3
800035b4: 13 0a 04 00  	mv	s4, s0
800035b8: 93 8a 04 00  	mv	s5, s1
800035bc: 0b b0 08 00  	vx_join	a7
800035c0: 0b 30 08 00  	vx_join	a6
800035c4: 13 0d 00 00  	li	s10, 0x0
800035c8: 0b b0 07 00  	vx_join	a5
800035cc: 93 00 00 00  	li	ra, 0x0
800035d0: 0b 30 07 00  	vx_join	a4
800035d4: 13 0c 00 00  	li	s8, 0x0
800035d8: 0b 30 06 00  	vx_join	a2
800035dc: 0b 30 05 00  	vx_join	a0
800035e0: 0b a5 16 00  	vx_split_n	a0, a3
800035e4: b3 cc 99 00  	xor	s9, s3, s1
800035e8: e3 8a 06 0a  	beqz	a3, 0x80003e9c <__adddf3+0xa68>
800035ec: 23 2c a1 00  	sw	a0, 0x18(sp)
800035f0: 37 05 10 00  	lui	a0, 0x100
800035f4: 13 05 f5 ff  	addi	a0, a0, -0x1
800035f8: 33 46 bb 00  	xor	a2, s6, a1
800035fc: b3 b5 65 01  	sltu	a1, a1, s6
80003600: b3 d5 c5 0e  	czero.eqz	a1, a1, a2
80003604: b3 36 24 01  	sltu	a3, s0, s2
80003608: 33 f6 c6 0e  	czero.nez	a2, a3, a2
8000360c: b3 65 b6 00  	or	a1, a2, a1
80003610: 33 76 b9 0e  	czero.nez	a2, s2, a1
80003614: b3 57 b4 0e  	czero.eqz	a5, s0, a1
80003618: b3 e7 c7 00  	or	a5, a5, a2
8000361c: 33 f6 b9 0e  	czero.nez	a2, s3, a1
80003620: b3 d6 b4 0e  	czero.eqz	a3, s1, a1
80003624: b3 e8 c6 00  	or	a7, a3, a2
80003628: 33 76 b4 0e  	czero.nez	a2, s0, a1
8000362c: b3 56 b9 0e  	czero.eqz	a3, s2, a1
80003630: b3 e6 c6 00  	or	a3, a3, a2
80003634: 33 f6 b4 0e  	czero.nez	a2, s1, a1
80003638: 33 d7 b9 0e  	czero.eqz	a4, s3, a1
8000363c: 33 67 c7 00  	or	a4, a4, a2
80003640: 13 16 17 00  	slli	a2, a4, 0x1
80003644: 13 56 56 01  	srli	a2, a2, 0x15
80003648: 93 92 18 00  	slli	t0, a7, 0x1
8000364c: 33 78 a7 00  	and	a6, a4, a0
80003650: 93 35 16 00  	seqz	a1, a2
80003654: 0b a3 15 00  	vx_split_n	t1, a1
80003658: 63 84 05 16  	beqz	a1, 0x800037c0 <__adddf3+0x38c>
8000365c: 33 3e 00 01  	snez	t3, a6
80003660: 8b 25 1e 00  	vx_split_n	a1, t3
80003664: 13 06 10 00  	li	a2, 0x1
80003668: 63 02 0e 08  	beqz	t3, 0x800036ec <__adddf3+0x2b8>
8000366c: 13 06 00 00  	li	a2, 0x0
80003670: 93 53 18 00  	srli	t2, a6, 0x1
80003674: b3 63 78 00  	or	t2, a6, t2
80003678: 13 de 23 00  	srli	t3, t2, 0x2
8000367c: b3 e3 c3 01  	or	t2, t2, t3
80003680: 13 de 43 00  	srli	t3, t2, 0x4
80003684: b3 e3 c3 01  	or	t2, t2, t3
80003688: 13 de 83 00  	srli	t3, t2, 0x8
8000368c: b3 e3 c3 01  	or	t2, t2, t3
80003690: 13 de 03 01  	srli	t3, t2, 0x10
80003694: b3 e3 c3 01  	or	t2, t2, t3
80003698: 93 c3 f3 ff  	not	t2, t2
8000369c: 13 de 13 00  	srli	t3, t2, 0x1
800036a0: b7 5e 55 55  	lui	t4, 0x55555
800036a4: 93 8e 5e 55  	addi	t4, t4, 0x555
800036a8: 33 7e de 01  	and	t3, t3, t4
800036ac: b3 83 c3 41  	sub	t2, t2, t3
800036b0: 37 3e 33 33  	lui	t3, 0x33333
800036b4: 13 0e 3e 33  	addi	t3, t3, 0x333
800036b8: b3 fe c3 01  	and	t4, t2, t3
800036bc: 93 d3 23 00  	srli	t2, t2, 0x2
800036c0: b3 f3 c3 01  	and	t2, t2, t3
800036c4: b3 83 7e 00  	add	t2, t4, t2
800036c8: 13 de 43 00  	srli	t3, t2, 0x4
800036cc: b3 83 c3 01  	add	t2, t2, t3
800036d0: 37 1e 0f 0f  	lui	t3, 0xf0f1
800036d4: 13 0e fe f0  	addi	t3, t3, -0xf1
800036d8: b3 f3 c3 01  	and	t2, t2, t3
800036dc: 37 0e 01 01  	lui	t3, 0x1010
800036e0: 13 0e 1e 10  	addi	t3, t3, 0x101
800036e4: b3 83 c3 03  	mul	t2, t2, t3
800036e8: 93 d3 83 01  	srli	t2, t2, 0x18
800036ec: 0b b0 05 00  	vx_join	a1
800036f0: 8b 25 16 00  	vx_split_n	a1, a2
800036f4: 63 02 06 08  	beqz	a2, 0x80003778 <__adddf3+0x344>
800036f8: 13 d6 16 00  	srli	a2, a3, 0x1
800036fc: 33 e6 c6 00  	or	a2, a3, a2
80003700: 93 53 26 00  	srli	t2, a2, 0x2
80003704: 33 66 76 00  	or	a2, a2, t2
80003708: 93 53 46 00  	srli	t2, a2, 0x4
8000370c: 33 66 76 00  	or	a2, a2, t2
80003710: 93 53 86 00  	srli	t2, a2, 0x8
80003714: 33 66 76 00  	or	a2, a2, t2
80003718: 93 53 06 01  	srli	t2, a2, 0x10
8000371c: 33 66 76 00  	or	a2, a2, t2
80003720: 13 46 f6 ff  	not	a2, a2
80003724: 93 53 16 00  	srli	t2, a2, 0x1
80003728: 37 5e 55 55  	lui	t3, 0x55555
8000372c: 13 0e 5e 55  	addi	t3, t3, 0x555
80003730: b3 f3 c3 01  	and	t2, t2, t3
80003734: 33 06 76 40  	sub	a2, a2, t2
80003738: b7 33 33 33  	lui	t2, 0x33333
8000373c: 93 83 33 33  	addi	t2, t2, 0x333
80003740: 33 7e 76 00  	and	t3, a2, t2
80003744: 13 56 26 00  	srli	a2, a2, 0x2
80003748: 33 76 76 00  	and	a2, a2, t2
8000374c: 33 06 ce 00  	add	a2, t3, a2
80003750: 93 53 46 00  	srli	t2, a2, 0x4
80003754: 33 06 76 00  	add	a2, a2, t2
80003758: b7 13 0f 0f  	lui	t2, 0xf0f1
8000375c: 93 83 f3 f0  	addi	t2, t2, -0xf1
80003760: 33 76 76 00  	and	a2, a2, t2
80003764: b7 03 01 01  	lui	t2, 0x1010
80003768: 93 83 13 10  	addi	t2, t2, 0x101
8000376c: 33 06 76 02  	mul	a2, a2, t2
80003770: 13 56 86 01  	srli	a2, a2, 0x18
80003774: 93 63 06 02  	ori	t2, a2, 0x20
80003778: 0b b0 05 00  	vx_join	a1
8000377c: 93 85 53 ff  	addi	a1, t2, -0xb
80003780: 13 06 a0 02  	li	a2, 0x2a
80003784: 33 06 76 40  	sub	a2, a2, t2
80003788: 13 de 16 00  	srli	t3, a3, 0x1
8000378c: 33 56 ce 00  	srl	a2, t3, a2
80003790: 33 18 b8 00  	sll	a6, a6, a1
80003794: 33 66 c8 00  	or	a2, a6, a2
80003798: 13 88 53 fd  	addi	a6, t2, -0x2b
8000379c: 13 2e 08 00  	slti	t3, a6, 0x0
800037a0: 33 56 c6 0f  	czero.eqz	a2, a2, t3
800037a4: 33 98 06 01  	sll	a6, a3, a6
800037a8: 33 78 c8 0f  	czero.nez	a6, a6, t3
800037ac: 33 68 06 01  	or	a6, a2, a6
800037b0: b3 95 b6 00  	sll	a1, a3, a1
800037b4: b3 d6 c5 0f  	czero.eqz	a3, a1, t3
800037b8: 93 05 c0 00  	li	a1, 0xc
800037bc: 33 86 75 40  	sub	a2, a1, t2
800037c0: 93 05 f0 ff  	li	a1, -0x1
800037c4: 93 de 52 01  	srli	t4, t0, 0x15
800037c8: b3 f8 a8 00  	and	a7, a7, a0
800037cc: 0b 30 03 00  	vx_join	t1
800037d0: 13 b3 1e 00  	seqz	t1, t4
800037d4: 8b 22 13 00  	vx_split_n	t0, t1
800037d8: 63 04 03 16  	beqz	t1, 0x80003940 <__adddf3+0x50c>
800037dc: b3 3e 10 01  	snez	t4, a7
800037e0: 0b a3 1e 00  	vx_split_n	t1, t4
800037e4: 93 03 10 00  	li	t2, 0x1
800037e8: 63 82 0e 08  	beqz	t4, 0x8000386c <__adddf3+0x438>
800037ec: 93 03 00 00  	li	t2, 0x0
800037f0: 13 de 18 00  	srli	t3, a7, 0x1
800037f4: 33 ee c8 01  	or	t3, a7, t3
800037f8: 93 5e 2e 00  	srli	t4, t3, 0x2
800037fc: 33 6e de 01  	or	t3, t3, t4
80003800: 93 5e 4e 00  	srli	t4, t3, 0x4
80003804: 33 6e de 01  	or	t3, t3, t4
80003808: 93 5e 8e 00  	srli	t4, t3, 0x8
8000380c: 33 6e de 01  	or	t3, t3, t4
80003810: 93 5e 0e 01  	srli	t4, t3, 0x10
80003814: 33 6e de 01  	or	t3, t3, t4
80003818: 13 4e fe ff  	not	t3, t3
8000381c: 93 5e 1e 00  	srli	t4, t3, 0x1
80003820: 37 5f 55 55  	lui	t5, 0x55555
80003824: 13 0f 5f 55  	addi	t5, t5, 0x555
80003828: b3 fe ee 01  	and	t4, t4, t5
8000382c: 33 0e de 41  	sub	t3, t3, t4
80003830: b7 3e 33 33  	lui	t4, 0x33333
80003834: 93 8e 3e 33  	addi	t4, t4, 0x333
80003838: 33 7f de 01  	and	t5, t3, t4
8000383c: 13 5e 2e 00  	srli	t3, t3, 0x2
80003840: 33 7e de 01  	and	t3, t3, t4
80003844: 33 0e cf 01  	add	t3, t5, t3
80003848: 93 5e 4e 00  	srli	t4, t3, 0x4
8000384c: 33 0e de 01  	add	t3, t3, t4
80003850: b7 1e 0f 0f  	lui	t4, 0xf0f1
80003854: 93 8e fe f0  	addi	t4, t4, -0xf1
80003858: 33 7e de 01  	and	t3, t3, t4
8000385c: b7 0e 01 01  	lui	t4, 0x1010
80003860: 93 8e 1e 10  	addi	t4, t4, 0x101
80003864: 33 0e de 03  	mul	t3, t3, t4
80003868: 13 5e 8e 01  	srli	t3, t3, 0x18
8000386c: 0b 30 03 00  	vx_join	t1
80003870: 0b a3 13 00  	vx_split_n	t1, t2
80003874: 63 82 03 08  	beqz	t2, 0x800038f8 <__adddf3+0x4c4>
80003878: 93 d3 17 00  	srli	t2, a5, 0x1
8000387c: b3 e3 77 00  	or	t2, a5, t2
80003880: 13 de 23 00  	srli	t3, t2, 0x2
80003884: b3 e3 c3 01  	or	t2, t2, t3
80003888: 13 de 43 00  	srli	t3, t2, 0x4
8000388c: b3 e3 c3 01  	or	t2, t2, t3
80003890: 13 de 83 00  	srli	t3, t2, 0x8
80003894: b3 e3 c3 01  	or	t2, t2, t3
80003898: 13 de 03 01  	srli	t3, t2, 0x10
8000389c: b3 e3 c3 01  	or	t2, t2, t3
800038a0: 93 c3 f3 ff  	not	t2, t2
800038a4: 13 de 13 00  	srli	t3, t2, 0x1
800038a8: b7 5e 55 55  	lui	t4, 0x55555
800038ac: 93 8e 5e 55  	addi	t4, t4, 0x555
800038b0: 33 7e de 01  	and	t3, t3, t4
800038b4: b3 83 c3 41  	sub	t2, t2, t3
800038b8: 37 3e 33 33  	lui	t3, 0x33333
800038bc: 13 0e 3e 33  	addi	t3, t3, 0x333
800038c0: b3 fe c3 01  	and	t4, t2, t3
800038c4: 93 d3 23 00  	srli	t2, t2, 0x2
800038c8: b3 f3 c3 01  	and	t2, t2, t3
800038cc: b3 83 7e 00  	add	t2, t4, t2
800038d0: 13 de 43 00  	srli	t3, t2, 0x4
800038d4: b3 83 c3 01  	add	t2, t2, t3
800038d8: 37 1e 0f 0f  	lui	t3, 0xf0f1
800038dc: 13 0e fe f0  	addi	t3, t3, -0xf1
800038e0: b3 f3 c3 01  	and	t2, t2, t3
800038e4: 37 0e 01 01  	lui	t3, 0x1010
800038e8: 13 0e 1e 10  	addi	t3, t3, 0x101
800038ec: b3 83 c3 03  	mul	t2, t2, t3
800038f0: 93 d3 83 01  	srli	t2, t2, 0x18
800038f4: 13 ee 03 02  	ori	t3, t2, 0x20
800038f8: 0b 30 03 00  	vx_join	t1
800038fc: 13 03 5e ff  	addi	t1, t3, -0xb
80003900: 93 03 a0 02  	li	t2, 0x2a
80003904: b3 83 c3 41  	sub	t2, t2, t3
80003908: 93 de 17 00  	srli	t4, a5, 0x1
8000390c: b3 d3 7e 00  	srl	t2, t4, t2
80003910: b3 98 68 00  	sll	a7, a7, t1
80003914: b3 e8 78 00  	or	a7, a7, t2
80003918: 93 03 5e fd  	addi	t2, t3, -0x2b
8000391c: 93 ae 03 00  	slti	t4, t2, 0x0
80003920: b3 d8 d8 0f  	czero.eqz	a7, a7, t4
80003924: b3 93 77 00  	sll	t2, a5, t2
80003928: b3 f3 d3 0f  	czero.nez	t2, t2, t4
8000392c: b3 e8 78 00  	or	a7, a7, t2
80003930: b3 97 67 00  	sll	a5, a5, t1
80003934: b3 d7 d7 0f  	czero.eqz	a5, a5, t4
80003938: 13 03 c0 00  	li	t1, 0xc
8000393c: b3 0e c3 41  	sub	t4, t1, t3
80003940: 0b b0 02 00  	vx_join	t0
80003944: b7 02 00 80  	lui	t0, 0x80000
80003948: 13 d3 d6 01  	srli	t1, a3, 0x1d
8000394c: 13 18 38 00  	slli	a6, a6, 0x3
80003950: 33 63 68 00  	or	t1, a6, t1
80003954: b7 03 80 00  	lui	t2, 0x800
80003958: 13 de d7 01  	srli	t3, a5, 0x1d
8000395c: 93 98 38 00  	slli	a7, a7, 0x3
80003960: 13 98 37 00  	slli	a6, a5, 0x3
80003964: b3 67 7e 00  	or	a5, t3, t2
80003968: b3 e7 f8 00  	or	a5, a7, a5
8000396c: b3 48 d6 01  	xor	a7, a2, t4
80003970: b3 38 10 01  	snez	a7, a7
80003974: 0b ae 18 00  	vx_split_n	t3, a7
80003978: 63 8c 08 0a  	beqz	a7, 0x80003a30 <__adddf3+0x5fc>
8000397c: 13 0f 00 00  	li	t5, 0x0
80003980: b3 0e d6 41  	sub	t4, a2, t4
80003984: 13 ba 0e 04  	sltiu	s4, t4, 0x40
80003988: 8b 28 1a 00  	vx_split_n	a7, s4
8000398c: 93 0f 10 00  	li	t6, 0x1
80003990: 63 0a 0a 08  	beqz	s4, 0x80003a24 <__adddf3+0x5f0>
80003994: 13 0f 00 04  	li	t5, 0x40
80003998: 33 0f df 41  	sub	t5, t5, t4
8000399c: b3 0f d0 41  	neg	t6, t4
800039a0: 33 1a f8 01  	sll	s4, a6, t6
800039a4: 93 0a 00 02  	li	s5, 0x20
800039a8: b3 8a da 41  	sub	s5, s5, t4
800039ac: 93 aa 0a 00  	slti	s5, s5, 0x0
800039b0: 93 0d 0c 00  	mv	s11, s8
800039b4: 33 7c 5a 0f  	czero.nez	s8, s4, s5
800039b8: b3 9f f7 01  	sll	t6, a5, t6
800039bc: 13 4f ff ff  	not	t5, t5
800039c0: 93 85 0c 00  	mv	a1, s9
800039c4: 93 5c 18 00  	srli	s9, a6, 0x1
800039c8: 33 df ec 01  	srl	t5, s9, t5
800039cc: 93 8c 05 00  	mv	s9, a1
800039d0: 93 05 f0 ff  	li	a1, -0x1
800039d4: 33 ef ef 01  	or	t5, t6, t5
800039d8: 33 5f 5f 0f  	czero.eqz	t5, t5, s5
800039dc: b3 5f 5a 0f  	czero.eqz	t6, s4, s5
800039e0: b3 ef 8f 01  	or	t6, t6, s8
800039e4: 13 8c 0d 00  	mv	s8, s11
800039e8: 33 ef ef 01  	or	t5, t6, t5
800039ec: b3 3f e0 01  	snez	t6, t5
800039f0: 33 58 d8 01  	srl	a6, a6, t4
800039f4: 13 cf fe ff  	not	t5, t4
800039f8: 13 9a 17 00  	slli	s4, a5, 0x1
800039fc: 33 1f ea 01  	sll	t5, s4, t5
80003a00: 33 68 e8 01  	or	a6, a6, t5
80003a04: 13 8f 0e fe  	addi	t5, t4, -0x20
80003a08: 13 2f 0f 00  	slti	t5, t5, 0x0
80003a0c: 33 58 e8 0f  	czero.eqz	a6, a6, t5
80003a10: b3 d7 d7 01  	srl	a5, a5, t4
80003a14: b3 fe e7 0f  	czero.nez	t4, a5, t5
80003a18: 33 68 d8 01  	or	a6, a6, t4
80003a1c: 33 df e7 0f  	czero.eqz	t5, a5, t5
80003a20: b3 6f f8 01  	or	t6, a6, t6
80003a24: 0b b0 08 00  	vx_join	a7
80003a28: 13 88 0f 00  	mv	a6, t6
80003a2c: 93 07 0f 00  	mv	a5, t5
80003a30: b3 7f 57 00  	and	t6, a4, t0
80003a34: 93 92 36 00  	slli	t0, a3, 0x3
80003a38: b3 68 73 00  	or	a7, t1, t2
80003a3c: 0b 30 0e 00  	vx_join	t3
80003a40: 13 0e 00 00  	li	t3, 0x0
80003a44: 13 df fc 01  	srli	t5, s9, 0x1f
80003a48: 0b 23 1f 00  	vx_split_n	t1, t5
80003a4c: 93 03 10 00  	li	t2, 0x1
80003a50: 63 00 0f 1c  	beqz	t5, 0x80003c10 <__adddf3+0x7dc>
80003a54: 13 0e 00 00  	li	t3, 0x0
80003a58: b3 c6 02 01  	xor	a3, t0, a6
80003a5c: 33 c7 f8 00  	xor	a4, a7, a5
80003a60: b3 e6 e6 00  	or	a3, a3, a4
80003a64: 33 3f d0 00  	snez	t5, a3
80003a68: 8b 23 1f 00  	vx_split_n	t2, t5
80003a6c: 63 0a 0f 18  	beqz	t5, 0x80003c00 <__adddf3+0x7cc>
80003a70: b3 b6 02 01  	sltu	a3, t0, a6
80003a74: 33 87 f8 40  	sub	a4, a7, a5
80003a78: b3 06 d7 40  	sub	a3, a4, a3
80003a7c: 33 87 02 41  	sub	a4, t0, a6
80003a80: 13 de 76 01  	srli	t3, a3, 0x17
80003a84: 13 3f 1e 00  	seqz	t5, t3
80003a88: 0b 2e 1f 00  	vx_split_n	t3, t5
80003a8c: 93 0e 06 00  	mv	t4, a2
80003a90: 63 04 0f 16  	beqz	t5, 0x80003bf8 <__adddf3+0x7c4>
80003a94: 93 8d 0f 00  	mv	s11, t6
80003a98: b3 3f d0 00  	snez	t6, a3
80003a9c: 8b ae 1f 00  	vx_split_n	t4, t6
80003aa0: 13 0f 10 00  	li	t5, 0x1
80003aa4: 63 82 0f 08  	beqz	t6, 0x80003b28 <__adddf3+0x6f4>
80003aa8: 13 0f 00 00  	li	t5, 0x0
80003aac: 93 df 16 00  	srli	t6, a3, 0x1
80003ab0: b3 ef f6 01  	or	t6, a3, t6
80003ab4: 13 da 2f 00  	srli	s4, t6, 0x2
80003ab8: b3 ef 4f 01  	or	t6, t6, s4
80003abc: 13 da 4f 00  	srli	s4, t6, 0x4
80003ac0: b3 ef 4f 01  	or	t6, t6, s4
80003ac4: 13 da 8f 00  	srli	s4, t6, 0x8
80003ac8: b3 ef 4f 01  	or	t6, t6, s4
80003acc: 13 da 0f 01  	srli	s4, t6, 0x10
80003ad0: b3 ef 4f 01  	or	t6, t6, s4
80003ad4: 93 cf ff ff  	not	t6, t6
80003ad8: 13 da 1f 00  	srli	s4, t6, 0x1
80003adc: b7 5a 55 55  	lui	s5, 0x55555
80003ae0: 93 8a 5a 55  	addi	s5, s5, 0x555
80003ae4: 33 7a 5a 01  	and	s4, s4, s5
80003ae8: b3 8f 4f 41  	sub	t6, t6, s4
80003aec: 37 3a 33 33  	lui	s4, 0x33333
80003af0: 13 0a 3a 33  	addi	s4, s4, 0x333
80003af4: b3 fa 4f 01  	and	s5, t6, s4
80003af8: 93 df 2f 00  	srli	t6, t6, 0x2
80003afc: b3 ff 4f 01  	and	t6, t6, s4
80003b00: b3 8f fa 01  	add	t6, s5, t6
80003b04: 13 da 4f 00  	srli	s4, t6, 0x4
80003b08: b3 8f 4f 01  	add	t6, t6, s4
80003b0c: 37 1a 0f 0f  	lui	s4, 0xf0f1
80003b10: 13 0a fa f0  	addi	s4, s4, -0xf1
80003b14: b3 ff 4f 01  	and	t6, t6, s4
80003b18: 37 0a 01 01  	lui	s4, 0x1010
80003b1c: 13 0a 1a 10  	addi	s4, s4, 0x101
80003b20: b3 8f 4f 03  	mul	t6, t6, s4
80003b24: 13 da 8f 01  	srli	s4, t6, 0x18
80003b28: 0b b0 0e 00  	vx_join	t4
80003b2c: 8b 2f 1f 00  	vx_split_n	t6, t5
80003b30: 93 5e 17 00  	srli	t4, a4, 0x1
80003b34: 63 00 0f 08  	beqz	t5, 0x80003bb4 <__adddf3+0x780>
80003b38: 33 6f d7 01  	or	t5, a4, t4
80003b3c: 13 5a 2f 00  	srli	s4, t5, 0x2
80003b40: 33 6f 4f 01  	or	t5, t5, s4
80003b44: 13 5a 4f 00  	srli	s4, t5, 0x4
80003b48: 33 6f 4f 01  	or	t5, t5, s4
80003b4c: 13 5a 8f 00  	srli	s4, t5, 0x8
80003b50: 33 6f 4f 01  	or	t5, t5, s4
80003b54: 13 5a 0f 01  	srli	s4, t5, 0x10
80003b58: 33 6f 4f 01  	or	t5, t5, s4
80003b5c: 13 4f ff ff  	not	t5, t5
80003b60: 13 5a 1f 00  	srli	s4, t5, 0x1
80003b64: b7 5a 55 55  	lui	s5, 0x55555
80003b68: 93 8a 5a 55  	addi	s5, s5, 0x555
80003b6c: 33 7a 5a 01  	and	s4, s4, s5
80003b70: 33 0f 4f 41  	sub	t5, t5, s4
80003b74: 37 3a 33 33  	lui	s4, 0x33333
80003b78: 13 0a 3a 33  	addi	s4, s4, 0x333
80003b7c: b3 7a 4f 01  	and	s5, t5, s4
80003b80: 13 5f 2f 00  	srli	t5, t5, 0x2
80003b84: 33 7f 4f 01  	and	t5, t5, s4
80003b88: 33 8f ea 01  	add	t5, s5, t5
80003b8c: 13 5a 4f 00  	srli	s4, t5, 0x4
80003b90: 33 0f 4f 01  	add	t5, t5, s4
80003b94: 37 1a 0f 0f  	lui	s4, 0xf0f1
80003b98: 13 0a fa f0  	addi	s4, s4, -0xf1
80003b9c: 33 7f 4f 01  	and	t5, t5, s4
80003ba0: 37 0a 01 01  	lui	s4, 0x1010
80003ba4: 13 0a 1a 10  	addi	s4, s4, 0x101
80003ba8: 33 0f 4f 03  	mul	t5, t5, s4
80003bac: 13 5f 8f 01  	srli	t5, t5, 0x18
80003bb0: 13 6a 0f 02  	ori	s4, t5, 0x20
80003bb4: 0b b0 0f 00  	vx_join	t6
80003bb8: 13 0f 8a ff  	addi	t5, s4, -0x8
80003bbc: 93 0f 70 02  	li	t6, 0x27
80003bc0: b3 8f 4f 41  	sub	t6, t6, s4
80003bc4: b3 de fe 01  	srl	t4, t4, t6
80003bc8: b3 96 e6 01  	sll	a3, a3, t5
80003bcc: b3 e6 d6 01  	or	a3, a3, t4
80003bd0: 93 0e 8a fd  	addi	t4, s4, -0x28
80003bd4: 93 af 0e 00  	slti	t6, t4, 0x0
80003bd8: b3 d6 f6 0f  	czero.eqz	a3, a3, t6
80003bdc: b3 1e d7 01  	sll	t4, a4, t4
80003be0: b3 fe fe 0f  	czero.nez	t4, t4, t6
80003be4: b3 e6 d6 01  	or	a3, a3, t4
80003be8: 33 17 e7 01  	sll	a4, a4, t5
80003bec: 33 57 f7 0f  	czero.eqz	a4, a4, t6
80003bf0: b3 0e e6 41  	sub	t4, a2, t5
80003bf4: 93 8f 0d 00  	mv	t6, s11
80003bf8: 0b 30 0e 00  	vx_join	t3
80003bfc: 13 0e 10 00  	li	t3, 0x1
80003c00: 0b b0 03 00  	vx_join	t2
80003c04: 93 03 00 00  	li	t2, 0x0
80003c08: 13 0a 00 00  	li	s4, 0x0
80003c0c: 93 0a 00 00  	li	s5, 0x0
80003c10: 0b 30 03 00  	vx_join	t1
80003c14: 0b a3 13 00  	vx_split_n	t1, t2
80003c18: 63 86 03 04  	beqz	t2, 0x80003c64 <__adddf3+0x830>
80003c1c: b3 02 58 00  	add	t0, a6, t0
80003c20: b3 b6 02 01  	sltu	a3, t0, a6
80003c24: b3 87 17 01  	add	a5, a5, a7
80003c28: b3 86 d7 00  	add	a3, a5, a3
80003c2c: 37 07 00 01  	lui	a4, 0x1000
80003c30: 33 f7 e6 00  	and	a4, a3, a4
80003c34: 93 77 18 00  	andi	a5, a6, 0x1
80003c38: 13 98 f6 01  	slli	a6, a3, 0x1f
80003c3c: 93 d8 12 00  	srli	a7, t0, 0x1
80003c40: b3 e7 f8 00  	or	a5, a7, a5
80003c44: b3 e7 07 01  	or	a5, a5, a6
80003c48: 93 5e 87 01  	srli	t4, a4, 0x18
80003c4c: b3 d6 d6 01  	srl	a3, a3, t4
80003c50: b3 d7 e7 0e  	czero.eqz	a5, a5, a4
80003c54: 33 f7 e2 0e  	czero.nez	a4, t0, a4
80003c58: 33 67 f7 00  	or	a4, a4, a5
80003c5c: b3 0e d6 01  	add	t4, a2, t4
80003c60: 13 0e 10 00  	li	t3, 0x1
80003c64: 0b 30 03 00  	vx_join	t1
80003c68: 8b 2d 1e 00  	vx_split_n	s11, t3
80003c6c: 63 04 0e 22  	beqz	t3, 0x80003e94 <__adddf3+0xa60>
80003c70: 93 a7 fe 7f  	slti	a5, t4, 0x7ff
80003c74: 0b a6 17 00  	vx_split_n	a2, a5
80003c78: 23 2a c1 00  	sw	a2, 0x14(sp)
80003c7c: 13 06 10 00  	li	a2, 0x1
80003c80: 63 8a 07 1e  	beqz	a5, 0x80003e74 <__adddf3+0xa40>
80003c84: 93 a7 1e 00  	slti	a5, t4, 0x1
80003c88: 0b a6 17 00  	vx_split_n	a2, a5
80003c8c: 63 86 07 08  	beqz	a5, 0x80003d18 <__adddf3+0x8e4>
80003c90: 93 07 10 00  	li	a5, 0x1
80003c94: b3 87 d7 41  	sub	a5, a5, t4
80003c98: 13 88 fe 03  	addi	a6, t4, 0x3f
80003c9c: b3 08 d0 41  	neg	a7, t4
80003ca0: 93 52 17 00  	srli	t0, a4, 0x1
80003ca4: b3 d8 12 01  	srl	a7, t0, a7
80003ca8: b3 92 06 01  	sll	t0, a3, a6
80003cac: b3 e8 12 01  	or	a7, t0, a7
80003cb0: 93 82 fe 01  	addi	t0, t4, 0x1f
80003cb4: 13 a3 02 00  	slti	t1, t0, 0x0
80003cb8: b3 d8 68 0e  	czero.eqz	a7, a7, t1
80003cbc: b3 12 57 00  	sll	t0, a4, t0
80003cc0: b3 f2 62 0e  	czero.nez	t0, t0, t1
80003cc4: 33 18 07 01  	sll	a6, a4, a6
80003cc8: 33 58 68 0e  	czero.eqz	a6, a6, t1
80003ccc: 33 68 58 00  	or	a6, a6, t0
80003cd0: 33 68 18 01  	or	a6, a6, a7
80003cd4: 33 38 00 01  	snez	a6, a6
80003cd8: 93 08 10 fe  	li	a7, -0x1f
80003cdc: b3 88 d8 41  	sub	a7, a7, t4
80003ce0: b3 d2 16 01  	srl	t0, a3, a7
80003ce4: 93 a8 08 00  	slti	a7, a7, 0x0
80003ce8: b3 f2 12 0f  	czero.nez	t0, t0, a7
80003cec: 33 57 f7 00  	srl	a4, a4, a5
80003cf0: 13 c3 f7 ff  	not	t1, a5
80003cf4: 93 93 16 00  	slli	t2, a3, 0x1
80003cf8: 33 93 63 00  	sll	t1, t2, t1
80003cfc: 33 67 67 00  	or	a4, a4, t1
80003d00: 33 57 17 0f  	czero.eqz	a4, a4, a7
80003d04: 33 67 57 00  	or	a4, a4, t0
80003d08: b3 d6 f6 00  	srl	a3, a3, a5
80003d0c: b3 d6 16 0f  	czero.eqz	a3, a3, a7
80003d10: 33 67 07 01  	or	a4, a4, a6
80003d14: 93 0e 00 00  	li	t4, 0x0
80003d18: 23 20 71 01  	sw	s7, 0x0(sp)
80003d1c: 23 22 91 01  	sw	s9, 0x4(sp)
80003d20: 23 24 81 01  	sw	s8, 0x8(sp)
80003d24: 23 28 11 00  	sw	ra, 0x10(sp)
80003d28: 23 26 a1 01  	sw	s10, 0xc(sp)
80003d2c: 0b 30 06 00  	vx_join	a2
80003d30: 13 7d 77 00  	andi	s10, a4, 0x7
80003d34: 13 57 37 00  	srli	a4, a4, 0x3
80003d38: 13 96 d6 01  	slli	a2, a3, 0x1d
80003d3c: 33 66 c7 00  	or	a2, a4, a2
80003d40: 93 d6 36 00  	srli	a3, a3, 0x3
80003d44: 33 7c b6 00  	and	s8, a2, a1
80003d48: 33 f5 a6 00  	and	a0, a3, a0
80003d4c: 93 9e 4e 01  	slli	t4, t4, 0x14
80003d50: 33 e5 ae 00  	or	a0, t4, a0
80003d54: b3 6c f5 01  	or	s9, a0, t6
80003d58: 93 8b 0f 00  	mv	s7, t6
80003d5c: ef 20 c0 10  	jal	0x80005e68 <__fe_getround>
80003d60: 93 8f 0b 00  	mv	t6, s7
80003d64: b3 26 a0 00  	sgtz	a3, a0
80003d68: 8b a5 16 00  	vx_split_n	a1, a3
80003d6c: 13 06 10 00  	li	a2, 0x1
80003d70: 63 8e 06 06  	beqz	a3, 0x80003dec <__adddf3+0x9b8>
80003d74: 13 26 25 00  	slti	a2, a0, 0x2
80003d78: 13 47 16 00  	xori	a4, a2, 0x1
80003d7c: 0b 26 17 00  	vx_split_n	a2, a4
80003d80: 93 06 10 00  	li	a3, 0x1
80003d84: 63 0e 07 02  	beqz	a4, 0x80003dc0 <__adddf3+0x98c>
80003d88: 93 06 e5 ff  	addi	a3, a0, -0x2
80003d8c: 13 b7 16 00  	seqz	a4, a3
80003d90: 8b 26 17 00  	vx_split_n	a3, a4
80003d94: 13 0a 0c 00  	mv	s4, s8
80003d98: 93 8a 0c 00  	mv	s5, s9
80003d9c: 63 0e 07 00  	beqz	a4, 0x80003db8 <__adddf3+0x984>
80003da0: 13 b7 1f 00  	seqz	a4, t6
80003da4: b3 37 a0 01  	snez	a5, s10
80003da8: 33 77 f7 00  	and	a4, a4, a5
80003dac: 33 0a ec 00  	add	s4, s8, a4
80003db0: b3 3a 8a 01  	sltu	s5, s4, s8
80003db4: b3 8a 5c 01  	add	s5, s9, s5
80003db8: 0b b0 06 00  	vx_join	a3
80003dbc: 93 06 00 00  	li	a3, 0x0
80003dc0: 0b 30 06 00  	vx_join	a2
80003dc4: 0b a6 16 00  	vx_split_n	a2, a3
80003dc8: 63 8e 06 00  	beqz	a3, 0x80003de4 <__adddf3+0x9b0>
80003dcc: b3 36 f0 01  	snez	a3, t6
80003dd0: 33 37 a0 01  	snez	a4, s10
80003dd4: b3 f6 e6 00  	and	a3, a3, a4
80003dd8: 33 0a dc 00  	add	s4, s8, a3
80003ddc: b3 3a 8a 01  	sltu	s5, s4, s8
80003de0: b3 8a 5c 01  	add	s5, s9, s5
80003de4: 0b 30 06 00  	vx_join	a2
80003de8: 13 06 00 00  	li	a2, 0x0
80003dec: 0b b0 05 00  	vx_join	a1
80003df0: 8b 25 16 00  	vx_split_n	a1, a2
80003df4: 83 20 01 01  	lw	ra, 0x10(sp)
80003df8: 63 04 06 04  	beqz	a2, 0x80003e40 <__adddf3+0xa0c>
80003dfc: 13 36 15 00  	seqz	a2, a0
80003e00: 0b 25 16 00  	vx_split_n	a0, a2
80003e04: 63 08 06 02  	beqz	a2, 0x80003e34 <__adddf3+0xa00>
80003e08: 13 36 5d 00  	sltiu	a2, s10, 0x5
80003e0c: 13 46 16 00  	xori	a2, a2, 0x1
80003e10: 33 06 cc 00  	add	a2, s8, a2
80003e14: b3 36 86 01  	sltu	a3, a2, s8
80003e18: 13 07 cd ff  	addi	a4, s10, -0x4
80003e1c: 13 37 17 00  	seqz	a4, a4
80003e20: 33 77 c7 00  	and	a4, a4, a2
80003e24: 33 0c c7 00  	add	s8, a4, a2
80003e28: 33 36 ec 00  	sltu	a2, s8, a4
80003e2c: 33 86 c6 00  	add	a2, a3, a2
80003e30: b3 8c cc 00  	add	s9, s9, a2
80003e34: 0b 30 05 00  	vx_join	a0
80003e38: 13 0a 0c 00  	mv	s4, s8
80003e3c: 93 8a 0c 00  	mv	s5, s9
80003e40: 0b b0 05 00  	vx_join	a1
80003e44: 33 35 a0 01  	snez	a0, s10
80003e48: 0b 2c 15 00  	vx_split_n	s8, a0
80003e4c: 83 2c 41 00  	lw	s9, 0x4(sp)
80003e50: 63 08 05 00  	beqz	a0, 0x80003e60 <__adddf3+0xa2c>
80003e54: ef 20 80 04  	jal	0x80005e9c <__fe_raise_inexact>
80003e58: 93 8f 0b 00  	mv	t6, s7
80003e5c: 83 20 01 01  	lw	ra, 0x10(sp)
80003e60: 0b 30 0c 00  	vx_join	s8
80003e64: 03 2d c1 00  	lw	s10, 0xc(sp)
80003e68: 13 06 00 00  	li	a2, 0x0
80003e6c: 03 2c 81 00  	lw	s8, 0x8(sp)
80003e70: 83 2b 01 00  	lw	s7, 0x0(sp)
80003e74: 03 25 41 01  	lw	a0, 0x14(sp)
80003e78: 0b 30 05 00  	vx_join	a0
80003e7c: 0b 25 16 00  	vx_split_n	a0, a2
80003e80: 63 08 06 00  	beqz	a2, 0x80003e90 <__adddf3+0xa5c>
80003e84: 13 0a 00 00  	li	s4, 0x0
80003e88: b7 05 f0 7f  	lui	a1, 0x7ff00
80003e8c: b3 ea bf 00  	or	s5, t6, a1
80003e90: 0b 30 05 00  	vx_join	a0
80003e94: 0b b0 0d 00  	vx_join	s11
80003e98: 03 25 81 01  	lw	a0, 0x18(sp)
80003e9c: 0b 30 05 00  	vx_join	a0
80003ea0: 0b a5 1b 00  	vx_split_n	a0, s7
80003ea4: 63 84 0b 02  	beqz	s7, 0x80003ecc <__adddf3+0xa98>
80003ea8: b3 65 69 01  	or	a1, s2, s6
80003eac: 33 76 89 00  	and	a2, s2, s0
80003eb0: b3 f6 99 00  	and	a3, s3, s1
80003eb4: b3 f6 b6 0e  	czero.nez	a3, a3, a1
80003eb8: 33 d7 b9 0e  	czero.eqz	a4, s3, a1
80003ebc: b3 ea e6 00  	or	s5, a3, a4
80003ec0: 33 76 b6 0e  	czero.nez	a2, a2, a1
80003ec4: b3 55 b9 0e  	czero.eqz	a1, s2, a1
80003ec8: 33 6a b6 00  	or	s4, a2, a1
80003ecc: 0b 30 05 00  	vx_join	a0
80003ed0: 0b 25 1d 00  	vx_split_n	a0, s10
80003ed4: 63 04 0d 02  	beqz	s10, 0x80003efc <__adddf3+0xac8>
80003ed8: b3 45 89 00  	xor	a1, s2, s0
80003edc: 37 06 00 80  	lui	a2, 0x80000
80003ee0: 33 c6 cc 00  	xor	a2, s9, a2
80003ee4: b3 e5 c5 00  	or	a1, a1, a2
80003ee8: 33 d6 b4 0e  	czero.eqz	a2, s1, a1
80003eec: b7 06 f8 7f  	lui	a3, 0x7ff80
80003ef0: b3 f6 b6 0e  	czero.nez	a3, a3, a1
80003ef4: b3 ea c6 00  	or	s5, a3, a2
80003ef8: 33 5a b4 0e  	czero.eqz	s4, s0, a1
80003efc: 0b 30 05 00  	vx_join	a0
80003f00: 0b a5 10 00  	vx_split_n	a0, ra
80003f04: 63 88 00 00  	beqz	ra, 0x80003f14 <__adddf3+0xae0>
80003f08: b7 05 08 00  	lui	a1, 0x80
80003f0c: b3 ea b9 00  	or	s5, s3, a1
80003f10: 13 0a 09 00  	mv	s4, s2
80003f14: 0b 30 05 00  	vx_join	a0
80003f18: 0b 25 1c 00  	vx_split_n	a0, s8
80003f1c: 63 08 0c 00  	beqz	s8, 0x80003f2c <__adddf3+0xaf8>
80003f20: b7 05 08 00  	lui	a1, 0x80
80003f24: b3 ea b4 00  	or	s5, s1, a1
80003f28: 13 0a 04 00  	mv	s4, s0
80003f2c: 0b 30 05 00  	vx_join	a0
80003f30: 13 05 0a 00  	mv	a0, s4
80003f34: 93 85 0a 00  	mv	a1, s5
80003f38: 83 20 c1 04  	lw	ra, 0x4c(sp)
80003f3c: 03 24 81 04  	lw	s0, 0x48(sp)
80003f40: 83 24 41 04  	lw	s1, 0x44(sp)
80003f44: 03 29 01 04  	lw	s2, 0x40(sp)
80003f48: 83 29 c1 03  	lw	s3, 0x3c(sp)
80003f4c: 03 2a 81 03  	lw	s4, 0x38(sp)
80003f50: 83 2a 41 03  	lw	s5, 0x34(sp)
80003f54: 03 2b 01 03  	lw	s6, 0x30(sp)
80003f58: 83 2b c1 02  	lw	s7, 0x2c(sp)
80003f5c: 03 2c 81 02  	lw	s8, 0x28(sp)
80003f60: 83 2c 41 02  	lw	s9, 0x24(sp)
80003f64: 03 2d 01 02  	lw	s10, 0x20(sp)
80003f68: 83 2d c1 01  	lw	s11, 0x1c(sp)
80003f6c: 13 01 01 05  	addi	sp, sp, 0x50
80003f70: 67 80 00 00  	ret

80003f74 <__nedf2>:
80003f74: 37 07 00 80  	lui	a4, 0x80000
80003f78: 13 07 f7 ff  	addi	a4, a4, -0x1
80003f7c: 33 f8 e5 00  	and	a6, a1, a4
80003f80: b3 f8 e6 00  	and	a7, a3, a4
80003f84: 37 07 f0 7f  	lui	a4, 0x7ff00
80003f88: b3 47 e8 00  	xor	a5, a6, a4
80003f8c: 93 52 48 01  	srli	t0, a6, 0x14
80003f90: 93 b2 f2 7f  	sltiu	t0, t0, 0x7ff
80003f94: b3 d2 f2 0e  	czero.eqz	t0, t0, a5
80003f98: 13 33 15 00  	seqz	t1, a0
80003f9c: b3 77 f3 0e  	czero.nez	a5, t1, a5
80003fa0: b3 e7 57 00  	or	a5, a5, t0
80003fa4: 33 c7 e8 00  	xor	a4, a7, a4
80003fa8: 93 d2 48 01  	srli	t0, a7, 0x14
80003fac: 93 b2 f2 7f  	sltiu	t0, t0, 0x7ff
80003fb0: b3 d2 e2 0e  	czero.eqz	t0, t0, a4
80003fb4: 13 33 16 00  	seqz	t1, a2
80003fb8: 33 77 e3 0e  	czero.nez	a4, t1, a4
80003fbc: 33 67 57 00  	or	a4, a4, t0
80003fc0: b3 f2 e7 00  	and	t0, a5, a4
80003fc4: 8b a7 12 00  	vx_split_n	a5, t0
80003fc8: 13 07 10 00  	li	a4, 0x1
80003fcc: 63 8a 02 08  	beqz	t0, 0x80004060 <__nedf2+0xec>
80003fd0: 13 07 00 00  	li	a4, 0x0
80003fd4: b3 62 a6 00  	or	t0, a2, a0
80003fd8: 33 e8 08 01  	or	a6, a7, a6
80003fdc: 33 e8 02 01  	or	a6, t0, a6
80003fe0: b3 38 00 01  	snez	a7, a6
80003fe4: 0b a8 18 00  	vx_split_n	a6, a7
80003fe8: 63 8a 08 06  	beqz	a7, 0x8000405c <__nedf2+0xe8>
80003fec: 33 f7 b6 00  	and	a4, a3, a1
80003ff0: b3 48 c5 00  	xor	a7, a0, a2
80003ff4: b3 c2 d5 00  	xor	t0, a1, a3
80003ff8: b3 e8 58 00  	or	a7, a7, t0
80003ffc: b3 38 10 01  	snez	a7, a7
80004000: 13 5e f7 01  	srli	t3, a4, 0x1f
80004004: 0b 23 1e 00  	vx_split_n	t1, t3
80004008: 93 03 10 00  	li	t2, 0x1
8000400c: 63 02 0e 02  	beqz	t3, 0x80004030 <__nedf2+0xbc>
80004010: 93 03 00 00  	li	t2, 0x0
80004014: 33 a7 b6 00  	slt	a4, a3, a1
80004018: 33 57 57 0e  	czero.eqz	a4, a4, t0
8000401c: 33 3e a6 00  	sltu	t3, a2, a0
80004020: 33 7e 5e 0e  	czero.nez	t3, t3, t0
80004024: 33 67 ee 00  	or	a4, t3, a4
80004028: 33 07 e0 40  	neg	a4, a4
8000402c: 33 67 17 01  	or	a4, a4, a7
80004030: 0b 30 03 00  	vx_join	t1
80004034: 0b a3 13 00  	vx_split_n	t1, t2
80004038: 63 80 03 02  	beqz	t2, 0x80004058 <__nedf2+0xe4>
8000403c: b3 a5 d5 00  	slt	a1, a1, a3
80004040: b3 d5 55 0e  	czero.eqz	a1, a1, t0
80004044: 33 35 c5 00  	sltu	a0, a0, a2
80004048: 33 75 55 0e  	czero.nez	a0, a0, t0
8000404c: 33 65 b5 00  	or	a0, a0, a1
80004050: 33 05 a0 40  	neg	a0, a0
80004054: 33 67 15 01  	or	a4, a0, a7
80004058: 0b 30 03 00  	vx_join	t1
8000405c: 0b 30 08 00  	vx_join	a6
80004060: 0b b0 07 00  	vx_join	a5
80004064: 13 05 07 00  	mv	a0, a4
80004068: 67 80 00 00  	ret

8000406c <__gtdf2>:
8000406c: 37 07 00 80  	lui	a4, 0x80000
80004070: 13 07 f7 ff  	addi	a4, a4, -0x1
80004074: 33 f8 e5 00  	and	a6, a1, a4
80004078: b3 f8 e6 00  	and	a7, a3, a4
8000407c: 37 07 f0 7f  	lui	a4, 0x7ff00
80004080: b3 47 e8 00  	xor	a5, a6, a4
80004084: 93 52 48 01  	srli	t0, a6, 0x14
80004088: 93 b2 f2 7f  	sltiu	t0, t0, 0x7ff
8000408c: b3 d2 f2 0e  	czero.eqz	t0, t0, a5
80004090: 13 33 15 00  	seqz	t1, a0
80004094: b3 77 f3 0e  	czero.nez	a5, t1, a5
80004098: b3 e7 57 00  	or	a5, a5, t0
8000409c: 33 c7 e8 00  	xor	a4, a7, a4
800040a0: 93 d2 48 01  	srli	t0, a7, 0x14
800040a4: 93 b2 f2 7f  	sltiu	t0, t0, 0x7ff
800040a8: b3 d2 e2 0e  	czero.eqz	t0, t0, a4
800040ac: 13 33 16 00  	seqz	t1, a2
800040b0: 33 77 e3 0e  	czero.nez	a4, t1, a4
800040b4: 33 67 57 00  	or	a4, a4, t0
800040b8: b3 f2 e7 00  	and	t0, a5, a4
800040bc: 8b a7 12 00  	vx_split_n	a5, t0
800040c0: 13 07 f0 ff  	li	a4, -0x1
800040c4: 63 8a 02 08  	beqz	t0, 0x80004158 <__gtdf2+0xec>
800040c8: 13 07 00 00  	li	a4, 0x0
800040cc: b3 62 a6 00  	or	t0, a2, a0
800040d0: 33 e8 08 01  	or	a6, a7, a6
800040d4: 33 e8 02 01  	or	a6, t0, a6
800040d8: b3 38 00 01  	snez	a7, a6
800040dc: 0b a8 18 00  	vx_split_n	a6, a7
800040e0: 63 8a 08 06  	beqz	a7, 0x80004154 <__gtdf2+0xe8>
800040e4: 33 f7 b6 00  	and	a4, a3, a1
800040e8: b3 48 c5 00  	xor	a7, a0, a2
800040ec: b3 c2 d5 00  	xor	t0, a1, a3
800040f0: b3 e8 58 00  	or	a7, a7, t0
800040f4: b3 38 10 01  	snez	a7, a7
800040f8: 13 5e f7 01  	srli	t3, a4, 0x1f
800040fc: 0b 23 1e 00  	vx_split_n	t1, t3
80004100: 93 03 10 00  	li	t2, 0x1
80004104: 63 02 0e 02  	beqz	t3, 0x80004128 <__gtdf2+0xbc>
80004108: 93 03 00 00  	li	t2, 0x0
8000410c: 33 a7 b6 00  	slt	a4, a3, a1
80004110: 33 57 57 0e  	czero.eqz	a4, a4, t0
80004114: 33 3e a6 00  	sltu	t3, a2, a0
80004118: 33 7e 5e 0e  	czero.nez	t3, t3, t0
8000411c: 33 67 ee 00  	or	a4, t3, a4
80004120: 33 07 e0 40  	neg	a4, a4
80004124: 33 67 17 01  	or	a4, a4, a7
80004128: 0b 30 03 00  	vx_join	t1
8000412c: 0b a3 13 00  	vx_split_n	t1, t2
80004130: 63 80 03 02  	beqz	t2, 0x80004150 <__gtdf2+0xe4>
80004134: b3 a5 d5 00  	slt	a1, a1, a3
80004138: b3 d5 55 0e  	czero.eqz	a1, a1, t0
8000413c: 33 35 c5 00  	sltu	a0, a0, a2
80004140: 33 75 55 0e  	czero.nez	a0, a0, t0
80004144: 33 65 b5 00  	or	a0, a0, a1
80004148: 33 05 a0 40  	neg	a0, a0
8000414c: 33 67 15 01  	or	a4, a0, a7
80004150: 0b 30 03 00  	vx_join	t1
80004154: 0b 30 08 00  	vx_join	a6
80004158: 0b b0 07 00  	vx_join	a5
8000415c: 13 05 07 00  	mv	a0, a4
80004160: 67 80 00 00  	ret

80004164 <__divdf3>:
80004164: 13 01 01 fc  	addi	sp, sp, -0x40
80004168: 23 2e 11 02  	sw	ra, 0x3c(sp)
8000416c: 23 2c 81 02  	sw	s0, 0x38(sp)
80004170: 23 2a 91 02  	sw	s1, 0x34(sp)
80004174: 23 28 21 03  	sw	s2, 0x30(sp)
80004178: 23 26 31 03  	sw	s3, 0x2c(sp)
8000417c: 23 24 41 03  	sw	s4, 0x28(sp)
80004180: 23 22 51 03  	sw	s5, 0x24(sp)
80004184: 23 20 61 03  	sw	s6, 0x20(sp)
80004188: 23 2e 71 01  	sw	s7, 0x1c(sp)
8000418c: 23 2c 81 01  	sw	s8, 0x18(sp)
80004190: 23 2a 91 01  	sw	s9, 0x14(sp)
80004194: 23 28 a1 01  	sw	s10, 0x10(sp)
80004198: 23 26 b1 01  	sw	s11, 0xc(sp)
8000419c: 93 04 00 00  	li	s1, 0x0
800041a0: b7 08 10 00  	lui	a7, 0x100
800041a4: 93 88 f8 ff  	addi	a7, a7, -0x1
800041a8: 13 97 15 00  	slli	a4, a1, 0x1
800041ac: 93 52 57 01  	srli	t0, a4, 0x15
800041b0: 13 97 16 00  	slli	a4, a3, 0x1
800041b4: 13 53 57 01  	srli	t1, a4, 0x15
800041b8: 33 c7 b6 00  	xor	a4, a3, a1
800041bc: 37 04 00 80  	lui	s0, 0x80000
800041c0: 33 78 87 00  	and	a6, a4, s0
800041c4: 33 fe 15 01  	and	t3, a1, a7
800041c8: b3 f3 16 01  	and	t2, a3, a7
800041cc: 13 87 12 80  	addi	a4, t0, -0x7ff
800041d0: 13 37 27 80  	sltiu	a4, a4, -0x7fe
800041d4: 93 07 13 80  	addi	a5, t1, -0x7ff
800041d8: 93 b7 27 80  	sltiu	a5, a5, -0x7fe
800041dc: 33 6f f7 00  	or	t5, a4, a5
800041e0: 8b 2e 1f 00  	vx_split_n	t4, t5
800041e4: 13 0c 10 00  	li	s8, 0x1
800041e8: 63 0a 0f 54  	beqz	t5, 0x8000473c <__divdf3+0x5d8>
800041ec: 13 04 f4 ff  	addi	s0, s0, -0x1
800041f0: 33 fb 85 00  	and	s6, a1, s0
800041f4: 37 09 f0 7f  	lui	s2, 0x7ff00
800041f8: 33 47 2b 01  	xor	a4, s6, s2
800041fc: 93 50 4b 01  	srli	ra, s6, 0x14
80004200: 93 b7 f0 7f  	sltiu	a5, ra, 0x7ff
80004204: b3 d7 e7 0e  	czero.eqz	a5, a5, a4
80004208: 13 3f 15 00  	seqz	t5, a0
8000420c: 33 77 ef 0e  	czero.nez	a4, t5, a4
80004210: 33 6a f7 00  	or	s4, a4, a5
80004214: 0b 2f 1a 00  	vx_split_n	t5, s4
80004218: 93 0f 10 00  	li	t6, 0x1
8000421c: 63 0e 0a 4c  	beqz	s4, 0x800046f8 <__divdf3+0x594>
80004220: 33 f4 86 00  	and	s0, a3, s0
80004224: 33 47 24 01  	xor	a4, s0, s2
80004228: 93 37 16 00  	seqz	a5, a2
8000422c: b3 f7 e7 0e  	czero.nez	a5, a5, a4
80004230: 93 5d 44 01  	srli	s11, s0, 0x14
80004234: 93 bf fd 7f  	sltiu	t6, s11, 0x7ff
80004238: 33 d7 ef 0e  	czero.eqz	a4, t6, a4
8000423c: 33 ea e7 00  	or	s4, a5, a4
80004240: 8b 2f 1a 00  	vx_split_n	t6, s4
80004244: 13 09 10 00  	li	s2, 0x1
80004248: 63 0c 0a 46  	beqz	s4, 0x800046c0 <__divdf3+0x55c>
8000424c: b7 0b f0 7f  	lui	s7, 0x7ff00
80004250: 33 47 7b 01  	xor	a4, s6, s7
80004254: 33 67 e5 00  	or	a4, a0, a4
80004258: 33 39 e0 00  	snez	s2, a4
8000425c: 0b 27 19 00  	vx_split_n	a4, s2
80004260: 23 24 e1 00  	sw	a4, 0x8(sp)
80004264: 13 0a 10 00  	li	s4, 0x1
80004268: 63 02 09 40  	beqz	s2, 0x8000466c <__divdf3+0x508>
8000426c: 33 47 74 01  	xor	a4, s0, s7
80004270: 33 67 e6 00  	or	a4, a2, a4
80004274: 33 39 e0 00  	snez	s2, a4
80004278: 0b 27 19 00  	vx_split_n	a4, s2
8000427c: 23 22 e1 00  	sw	a4, 0x4(sp)
80004280: 13 0a 10 00  	li	s4, 0x1
80004284: 63 08 09 3a  	beqz	s2, 0x80004634 <__divdf3+0x4d0>
80004288: 33 67 65 01  	or	a4, a0, s6
8000428c: 33 39 e0 00  	snez	s2, a4
80004290: 8b 2b 19 00  	vx_split_n	s7, s2
80004294: 13 0a 10 00  	li	s4, 0x1
80004298: 33 6b 86 00  	or	s6, a2, s0
8000429c: 63 0c 09 34  	beqz	s2, 0x800045f4 <__divdf3+0x490>
800042a0: 23 20 71 01  	sw	s7, 0x0(sp)
800042a4: b3 37 60 01  	snez	a5, s6
800042a8: 0b a7 17 00  	vx_split_n	a4, a5
800042ac: 93 0b 10 00  	li	s7, 0x1
800042b0: 63 84 07 30  	beqz	a5, 0x800045b8 <__divdf3+0x454>
800042b4: 93 04 00 00  	li	s1, 0x0
800042b8: 13 b9 10 00  	seqz	s2, ra
800042bc: 8b 27 19 00  	vx_split_n	a5, s2
800042c0: 93 09 05 00  	mv	s3, a0
800042c4: 93 0a 0e 00  	mv	s5, t3
800042c8: 63 04 09 16  	beqz	s2, 0x80004430 <__divdf3+0x2cc>
800042cc: 33 39 c0 01  	snez	s2, t3
800042d0: 8b 24 19 00  	vx_split_n	s1, s2
800042d4: 93 09 10 00  	li	s3, 0x1
800042d8: 63 02 09 08  	beqz	s2, 0x8000435c <__divdf3+0x1f8>
800042dc: 93 09 00 00  	li	s3, 0x0
800042e0: 13 59 1e 00  	srli	s2, t3, 0x1
800042e4: 33 69 2e 01  	or	s2, t3, s2
800042e8: 13 5a 29 00  	srli	s4, s2, 0x2
800042ec: 33 69 49 01  	or	s2, s2, s4
800042f0: 13 5a 49 00  	srli	s4, s2, 0x4
800042f4: 33 69 49 01  	or	s2, s2, s4
800042f8: 13 5a 89 00  	srli	s4, s2, 0x8
800042fc: 33 69 49 01  	or	s2, s2, s4
80004300: 13 5a 09 01  	srli	s4, s2, 0x10
80004304: 33 69 49 01  	or	s2, s2, s4
80004308: 13 49 f9 ff  	not	s2, s2
8000430c: 13 5a 19 00  	srli	s4, s2, 0x1
80004310: b7 5a 55 55  	lui	s5, 0x55555
80004314: 93 8a 5a 55  	addi	s5, s5, 0x555
80004318: 33 7a 5a 01  	and	s4, s4, s5
8000431c: 33 09 49 41  	sub	s2, s2, s4
80004320: 37 3a 33 33  	lui	s4, 0x33333
80004324: 13 0a 3a 33  	addi	s4, s4, 0x333
80004328: b3 7a 49 01  	and	s5, s2, s4
8000432c: 13 59 29 00  	srli	s2, s2, 0x2
80004330: 33 79 49 01  	and	s2, s2, s4
80004334: 33 89 2a 01  	add	s2, s5, s2
80004338: 13 5a 49 00  	srli	s4, s2, 0x4
8000433c: 33 09 49 01  	add	s2, s2, s4
80004340: 37 1a 0f 0f  	lui	s4, 0xf0f1
80004344: 13 0a fa f0  	addi	s4, s4, -0xf1
80004348: 33 79 49 01  	and	s2, s2, s4
8000434c: 37 0a 01 01  	lui	s4, 0x1010
80004350: 13 0a 1a 10  	addi	s4, s4, 0x101
80004354: 33 09 49 03  	mul	s2, s2, s4
80004358: 13 5a 89 01  	srli	s4, s2, 0x18
8000435c: 0b b0 04 00  	vx_join	s1
80004360: 8b a4 19 00  	vx_split_n	s1, s3
80004364: 63 82 09 08  	beqz	s3, 0x800043e8 <__divdf3+0x284>
80004368: 13 59 15 00  	srli	s2, a0, 0x1
8000436c: 33 69 25 01  	or	s2, a0, s2
80004370: 93 59 29 00  	srli	s3, s2, 0x2
80004374: 33 69 39 01  	or	s2, s2, s3
80004378: 93 59 49 00  	srli	s3, s2, 0x4
8000437c: 33 69 39 01  	or	s2, s2, s3
80004380: 93 59 89 00  	srli	s3, s2, 0x8
80004384: 33 69 39 01  	or	s2, s2, s3
80004388: 93 59 09 01  	srli	s3, s2, 0x10
8000438c: 33 69 39 01  	or	s2, s2, s3
80004390: 13 49 f9 ff  	not	s2, s2
80004394: 93 59 19 00  	srli	s3, s2, 0x1
80004398: 37 5a 55 55  	lui	s4, 0x55555
8000439c: 13 0a 5a 55  	addi	s4, s4, 0x555
800043a0: b3 f9 49 01  	and	s3, s3, s4
800043a4: 33 09 39 41  	sub	s2, s2, s3
800043a8: b7 39 33 33  	lui	s3, 0x33333
800043ac: 93 89 39 33  	addi	s3, s3, 0x333
800043b0: 33 7a 39 01  	and	s4, s2, s3
800043b4: 13 59 29 00  	srli	s2, s2, 0x2
800043b8: 33 79 39 01  	and	s2, s2, s3
800043bc: 33 09 2a 01  	add	s2, s4, s2
800043c0: 93 59 49 00  	srli	s3, s2, 0x4
800043c4: 33 09 39 01  	add	s2, s2, s3
800043c8: b7 19 0f 0f  	lui	s3, 0xf0f1
800043cc: 93 89 f9 f0  	addi	s3, s3, -0xf1
800043d0: 33 79 39 01  	and	s2, s2, s3
800043d4: b7 09 01 01  	lui	s3, 0x1010
800043d8: 93 89 19 10  	addi	s3, s3, 0x101
800043dc: 33 09 39 03  	mul	s2, s2, s3
800043e0: 13 59 89 01  	srli	s2, s2, 0x18
800043e4: 13 6a 09 02  	ori	s4, s2, 0x20
800043e8: 0b b0 04 00  	vx_join	s1
800043ec: 93 04 5a ff  	addi	s1, s4, -0xb
800043f0: 13 09 a0 02  	li	s2, 0x2a
800043f4: 33 09 49 41  	sub	s2, s2, s4
800043f8: 93 59 15 00  	srli	s3, a0, 0x1
800043fc: 33 d9 29 01  	srl	s2, s3, s2
80004400: b3 19 9e 00  	sll	s3, t3, s1
80004404: 33 e9 29 01  	or	s2, s3, s2
80004408: 93 09 5a fd  	addi	s3, s4, -0x2b
8000440c: 93 ab 09 00  	slti	s7, s3, 0x0
80004410: 33 59 79 0f  	czero.eqz	s2, s2, s7
80004414: b3 19 35 01  	sll	s3, a0, s3
80004418: b3 f9 79 0f  	czero.nez	s3, s3, s7
8000441c: b3 6a 39 01  	or	s5, s2, s3
80004420: b3 14 95 00  	sll	s1, a0, s1
80004424: b3 d9 74 0f  	czero.eqz	s3, s1, s7
80004428: 93 04 c0 00  	li	s1, 0xc
8000442c: b3 84 44 41  	sub	s1, s1, s4
80004430: 0b b0 07 00  	vx_join	a5
80004434: 13 b9 1d 00  	seqz	s2, s11
80004438: 8b 27 19 00  	vx_split_n	a5, s2
8000443c: 93 0c 06 00  	mv	s9, a2
80004440: 13 8d 03 00  	mv	s10, t2
80004444: 63 04 09 16  	beqz	s2, 0x800045ac <__divdf3+0x448>
80004448: 33 39 70 00  	snez	s2, t2
8000444c: 0b 2c 19 00  	vx_split_n	s8, s2
80004450: 93 0c 10 00  	li	s9, 0x1
80004454: 63 02 09 08  	beqz	s2, 0x800044d8 <__divdf3+0x374>
80004458: 93 0c 00 00  	li	s9, 0x0
8000445c: 13 d9 13 00  	srli	s2, t2, 0x1
80004460: 33 e9 23 01  	or	s2, t2, s2
80004464: 13 5a 29 00  	srli	s4, s2, 0x2
80004468: 33 69 49 01  	or	s2, s2, s4
8000446c: 13 5a 49 00  	srli	s4, s2, 0x4
80004470: 33 69 49 01  	or	s2, s2, s4
80004474: 13 5a 89 00  	srli	s4, s2, 0x8
80004478: 33 69 49 01  	or	s2, s2, s4
8000447c: 13 5a 09 01  	srli	s4, s2, 0x10
80004480: 33 69 49 01  	or	s2, s2, s4
80004484: 13 49 f9 ff  	not	s2, s2
80004488: 13 5a 19 00  	srli	s4, s2, 0x1
8000448c: b7 5b 55 55  	lui	s7, 0x55555
80004490: 93 8b 5b 55  	addi	s7, s7, 0x555
80004494: 33 7a 7a 01  	and	s4, s4, s7
80004498: 33 09 49 41  	sub	s2, s2, s4
8000449c: 37 3a 33 33  	lui	s4, 0x33333
800044a0: 13 0a 3a 33  	addi	s4, s4, 0x333
800044a4: b3 7b 49 01  	and	s7, s2, s4
800044a8: 13 59 29 00  	srli	s2, s2, 0x2
800044ac: 33 79 49 01  	and	s2, s2, s4
800044b0: 33 89 2b 01  	add	s2, s7, s2
800044b4: 13 5a 49 00  	srli	s4, s2, 0x4
800044b8: 33 09 49 01  	add	s2, s2, s4
800044bc: 37 1a 0f 0f  	lui	s4, 0xf0f1
800044c0: 13 0a fa f0  	addi	s4, s4, -0xf1
800044c4: 33 79 49 01  	and	s2, s2, s4
800044c8: 37 0a 01 01  	lui	s4, 0x1010
800044cc: 13 0a 1a 10  	addi	s4, s4, 0x101
800044d0: 33 09 49 03  	mul	s2, s2, s4
800044d4: 93 5b 89 01  	srli	s7, s2, 0x18
800044d8: 0b 30 0c 00  	vx_join	s8
800044dc: 0b aa 1c 00  	vx_split_n	s4, s9
800044e0: 63 82 0c 08  	beqz	s9, 0x80004564 <__divdf3+0x400>
800044e4: 13 59 16 00  	srli	s2, a2, 0x1
800044e8: 33 69 26 01  	or	s2, a2, s2
800044ec: 93 5b 29 00  	srli	s7, s2, 0x2
800044f0: 33 69 79 01  	or	s2, s2, s7
800044f4: 93 5b 49 00  	srli	s7, s2, 0x4
800044f8: 33 69 79 01  	or	s2, s2, s7
800044fc: 93 5b 89 00  	srli	s7, s2, 0x8
80004500: 33 69 79 01  	or	s2, s2, s7
80004504: 93 5b 09 01  	srli	s7, s2, 0x10
80004508: 33 69 79 01  	or	s2, s2, s7
8000450c: 13 49 f9 ff  	not	s2, s2
80004510: 93 5b 19 00  	srli	s7, s2, 0x1
80004514: 37 5c 55 55  	lui	s8, 0x55555
80004518: 13 0c 5c 55  	addi	s8, s8, 0x555
8000451c: b3 fb 8b 01  	and	s7, s7, s8
80004520: 33 09 79 41  	sub	s2, s2, s7
80004524: b7 3b 33 33  	lui	s7, 0x33333
80004528: 93 8b 3b 33  	addi	s7, s7, 0x333
8000452c: 33 7c 79 01  	and	s8, s2, s7
80004530: 13 59 29 00  	srli	s2, s2, 0x2
80004534: 33 79 79 01  	and	s2, s2, s7
80004538: 33 09 2c 01  	add	s2, s8, s2
8000453c: 93 5b 49 00  	srli	s7, s2, 0x4
80004540: 33 09 79 01  	add	s2, s2, s7
80004544: b7 1b 0f 0f  	lui	s7, 0xf0f1
80004548: 93 8b fb f0  	addi	s7, s7, -0xf1
8000454c: 33 79 79 01  	and	s2, s2, s7
80004550: b7 0b 01 01  	lui	s7, 0x1010
80004554: 93 8b 1b 10  	addi	s7, s7, 0x101
80004558: 33 09 79 03  	mul	s2, s2, s7
8000455c: 13 59 89 01  	srli	s2, s2, 0x18
80004560: 93 6b 09 02  	ori	s7, s2, 0x20
80004564: 0b 30 0a 00  	vx_join	s4
80004568: 13 89 5b ff  	addi	s2, s7, -0xb
8000456c: 13 0a a0 02  	li	s4, 0x2a
80004570: 33 0a 7a 41  	sub	s4, s4, s7
80004574: 13 5c 16 00  	srli	s8, a2, 0x1
80004578: 33 5a 4c 01  	srl	s4, s8, s4
8000457c: 33 9c 23 01  	sll	s8, t2, s2
80004580: 33 6a 4c 01  	or	s4, s8, s4
80004584: 13 8c 5b fd  	addi	s8, s7, -0x2b
80004588: 93 2c 0c 00  	slti	s9, s8, 0x0
8000458c: 33 5a 9a 0f  	czero.eqz	s4, s4, s9
80004590: 33 1c 86 01  	sll	s8, a2, s8
80004594: 33 7c 9c 0f  	czero.nez	s8, s8, s9
80004598: 33 6d 8a 01  	or	s10, s4, s8
8000459c: 33 19 26 01  	sll	s2, a2, s2
800045a0: b3 5c 99 0f  	czero.eqz	s9, s2, s9
800045a4: b3 84 74 01  	add	s1, s1, s7
800045a8: 93 84 44 ff  	addi	s1, s1, -0xc
800045ac: 0b b0 07 00  	vx_join	a5
800045b0: 93 0b 00 00  	li	s7, 0x0
800045b4: 13 0c 10 00  	li	s8, 0x1
800045b8: 0b 30 07 00  	vx_join	a4
800045bc: 0b aa 1b 00  	vx_split_n	s4, s7
800045c0: 63 84 0b 02  	beqz	s7, 0x800045e8 <__divdf3+0x484>
800045c4: 13 0c 00 00  	li	s8, 0x0
800045c8: 93 04 00 00  	li	s1, 0x0
800045cc: 13 07 00 00  	li	a4, 0x0
800045d0: b7 07 f0 7f  	lui	a5, 0x7ff00
800045d4: b3 67 f8 00  	or	a5, a6, a5
800045d8: 93 0c 06 00  	mv	s9, a2
800045dc: 13 8d 03 00  	mv	s10, t2
800045e0: 93 09 05 00  	mv	s3, a0
800045e4: 93 0a 0e 00  	mv	s5, t3
800045e8: 0b 30 0a 00  	vx_join	s4
800045ec: 13 0a 00 00  	li	s4, 0x0
800045f0: 83 2b 01 00  	lw	s7, 0x0(sp)
800045f4: 0b b0 0b 00  	vx_join	s7
800045f8: 8b 2b 1a 00  	vx_split_n	s7, s4
800045fc: 63 08 0a 02  	beqz	s4, 0x8000462c <__divdf3+0x4c8>
80004600: 13 0c 00 00  	li	s8, 0x0
80004604: 93 04 00 00  	li	s1, 0x0
80004608: 13 07 00 00  	li	a4, 0x0
8000460c: b3 57 68 0f  	czero.eqz	a5, a6, s6
80004610: 37 09 f8 7f  	lui	s2, 0x7ff80
80004614: 33 79 69 0f  	czero.nez	s2, s2, s6
80004618: b3 67 f9 00  	or	a5, s2, a5
8000461c: 93 0c 06 00  	mv	s9, a2
80004620: 13 8d 03 00  	mv	s10, t2
80004624: 93 09 05 00  	mv	s3, a0
80004628: 93 0a 0e 00  	mv	s5, t3
8000462c: 0b b0 0b 00  	vx_join	s7
80004630: 13 0a 00 00  	li	s4, 0x0
80004634: 03 29 41 00  	lw	s2, 0x4(sp)
80004638: 0b 30 09 00  	vx_join	s2
8000463c: 0b 2b 1a 00  	vx_split_n	s6, s4
80004640: 63 02 0a 02  	beqz	s4, 0x80004664 <__divdf3+0x500>
80004644: 13 0c 00 00  	li	s8, 0x0
80004648: 93 04 00 00  	li	s1, 0x0
8000464c: 13 07 00 00  	li	a4, 0x0
80004650: 93 0c 06 00  	mv	s9, a2
80004654: 13 8d 03 00  	mv	s10, t2
80004658: 93 09 05 00  	mv	s3, a0
8000465c: 93 0a 0e 00  	mv	s5, t3
80004660: 93 07 08 00  	mv	a5, a6
80004664: 0b 30 0b 00  	vx_join	s6
80004668: 13 0a 00 00  	li	s4, 0x0
8000466c: 03 29 81 00  	lw	s2, 0x8(sp)
80004670: 0b 30 09 00  	vx_join	s2
80004674: 0b 29 1a 00  	vx_split_n	s2, s4
80004678: 63 00 0a 04  	beqz	s4, 0x800046b8 <__divdf3+0x554>
8000467c: 13 0c 00 00  	li	s8, 0x0
80004680: 93 04 00 00  	li	s1, 0x0
80004684: 13 07 00 00  	li	a4, 0x0
80004688: b7 07 f0 7f  	lui	a5, 0x7ff00
8000468c: 33 44 f4 00  	xor	s0, s0, a5
80004690: 33 64 86 00  	or	s0, a2, s0
80004694: b3 67 f8 00  	or	a5, a6, a5
80004698: b3 d7 87 0e  	czero.eqz	a5, a5, s0
8000469c: b7 09 f8 7f  	lui	s3, 0x7ff80
800046a0: 33 f4 89 0e  	czero.nez	s0, s3, s0
800046a4: b3 67 f4 00  	or	a5, s0, a5
800046a8: 93 0c 06 00  	mv	s9, a2
800046ac: 13 8d 03 00  	mv	s10, t2
800046b0: 93 09 05 00  	mv	s3, a0
800046b4: 93 0a 0e 00  	mv	s5, t3
800046b8: 0b 30 09 00  	vx_join	s2
800046bc: 13 09 00 00  	li	s2, 0x0
800046c0: 0b b0 0f 00  	vx_join	t6
800046c4: 8b 2f 19 00  	vx_split_n	t6, s2
800046c8: 63 04 09 02  	beqz	s2, 0x800046f0 <__divdf3+0x58c>
800046cc: 13 0c 00 00  	li	s8, 0x0
800046d0: 93 04 00 00  	li	s1, 0x0
800046d4: b7 07 08 00  	lui	a5, 0x80
800046d8: b3 e7 f6 00  	or	a5, a3, a5
800046dc: 93 0c 06 00  	mv	s9, a2
800046e0: 13 8d 03 00  	mv	s10, t2
800046e4: 93 09 05 00  	mv	s3, a0
800046e8: 93 0a 0e 00  	mv	s5, t3
800046ec: 13 07 06 00  	mv	a4, a2
800046f0: 0b b0 0f 00  	vx_join	t6
800046f4: 93 0f 00 00  	li	t6, 0x0
800046f8: 0b 30 0f 00  	vx_join	t5
800046fc: 8b a6 1f 00  	vx_split_n	a3, t6
80004700: 63 84 0f 02  	beqz	t6, 0x80004728 <__divdf3+0x5c4>
80004704: 93 04 00 00  	li	s1, 0x0
80004708: 13 0c 00 00  	li	s8, 0x0
8000470c: b7 07 08 00  	lui	a5, 0x80
80004710: b3 e7 f5 00  	or	a5, a1, a5
80004714: 13 07 05 00  	mv	a4, a0
80004718: 93 09 05 00  	mv	s3, a0
8000471c: 93 0a 0e 00  	mv	s5, t3
80004720: 93 0c 06 00  	mv	s9, a2
80004724: 13 8d 03 00  	mv	s10, t2
80004728: 0b b0 06 00  	vx_join	a3
8000472c: 13 86 0c 00  	mv	a2, s9
80004730: 93 03 0d 00  	mv	t2, s10
80004734: 13 85 09 00  	mv	a0, s3
80004738: 13 8e 0a 00  	mv	t3, s5
8000473c: 13 0f f0 ff  	li	t5, -0x1
80004740: 0b b0 0e 00  	vx_join	t4
80004744: 93 76 1c 00  	andi	a3, s8, 0x1
80004748: 8b a5 16 00  	vx_split_n	a1, a3
8000474c: 63 86 06 3c  	beqz	a3, 0x80004b18 <__divdf3+0x9b4>
80004750: 93 06 1f 00  	addi	a3, t5, 0x1
80004754: 13 b7 16 00  	seqz	a4, a3
80004758: 33 87 e8 00  	add	a4, a7, a4
8000475c: b3 6e ee 00  	or	t4, t3, a4
80004760: 33 6e d5 00  	or	t3, a0, a3
80004764: b3 e3 e3 00  	or	t2, t2, a4
80004768: b3 66 d6 00  	or	a3, a2, a3
8000476c: 33 87 62 40  	sub	a4, t0, t1
80004770: b3 84 e4 00  	add	s1, s1, a4
80004774: 13 16 b6 00  	slli	a2, a2, 0xb
80004778: 13 d7 56 01  	srli	a4, a3, 0x15
8000477c: 93 97 b3 00  	slli	a5, t2, 0xb
80004780: 33 67 f7 00  	or	a4, a4, a5
80004784: b7 f7 04 75  	lui	a5, 0x7504f
80004788: 93 87 37 33  	addi	a5, a5, 0x333
8000478c: b3 87 e7 40  	sub	a5, a5, a4
80004790: b3 32 f7 02  	mulhu	t0, a4, a5
80004794: b3 02 50 40  	neg	t0, t0
80004798: 33 83 f2 02  	mul	t1, t0, a5
8000479c: b3 b7 f2 02  	mulhu	a5, t0, a5
800047a0: 93 97 17 00  	slli	a5, a5, 0x1
800047a4: 93 52 f3 01  	srli	t0, t1, 0x1f
800047a8: b3 e7 f2 00  	or	a5, t0, a5
800047ac: b3 b2 e7 02  	mulhu	t0, a5, a4
800047b0: b3 02 50 40  	neg	t0, t0
800047b4: 33 83 57 02  	mul	t1, a5, t0
800047b8: b3 b7 57 02  	mulhu	a5, a5, t0
800047bc: 93 97 17 00  	slli	a5, a5, 0x1
800047c0: 93 52 f3 01  	srli	t0, t1, 0x1f
800047c4: b3 e7 f2 00  	or	a5, t0, a5
800047c8: b3 b2 e7 02  	mulhu	t0, a5, a4
800047cc: b3 02 50 40  	neg	t0, t0
800047d0: 33 83 57 02  	mul	t1, a5, t0
800047d4: b3 b7 57 02  	mulhu	a5, a5, t0
800047d8: 93 97 17 00  	slli	a5, a5, 0x1
800047dc: 93 52 f3 01  	srli	t0, t1, 0x1f
800047e0: b3 e7 f2 00  	or	a5, t0, a5
800047e4: 93 87 f7 ff  	addi	a5, a5, -0x1
800047e8: b3 32 f7 02  	mulhu	t0, a4, a5
800047ec: 33 07 f7 02  	mul	a4, a4, a5
800047f0: 33 36 f6 02  	mulhu	a2, a2, a5
800047f4: 33 06 c7 00  	add	a2, a4, a2
800047f8: 33 37 e6 00  	sltu	a4, a2, a4
800047fc: 33 87 e2 00  	add	a4, t0, a4
80004800: 93 32 26 00  	sltiu	t0, a2, 0x2
80004804: 93 c2 12 00  	xori	t0, t0, 0x1
80004808: 33 07 57 00  	add	a4, a4, t0
8000480c: 33 07 e0 40  	neg	a4, a4
80004810: 13 09 10 00  	li	s2, 0x1
80004814: 33 06 c9 40  	sub	a2, s2, a2
80004818: b3 82 e7 02  	mul	t0, a5, a4
8000481c: 13 d3 f2 01  	srli	t1, t0, 0x1f
80004820: 33 b7 e7 02  	mulhu	a4, a5, a4
80004824: 13 17 17 00  	slli	a4, a4, 0x1
80004828: 33 67 67 00  	or	a4, a4, t1
8000482c: 93 92 12 00  	slli	t0, t0, 0x1
80004830: 33 03 f6 02  	mul	t1, a2, a5
80004834: 33 36 f6 02  	mulhu	a2, a2, a5
80004838: 93 17 16 00  	slli	a5, a2, 0x1
8000483c: 13 53 f3 01  	srli	t1, t1, 0x1f
80004840: b3 67 f3 00  	or	a5, t1, a5
80004844: 13 56 f6 01  	srli	a2, a2, 0x1f
80004848: b3 87 f2 00  	add	a5, t0, a5
8000484c: b3 b2 57 00  	sltu	t0, a5, t0
80004850: 33 06 c7 00  	add	a2, a4, a2
80004854: 33 06 56 00  	add	a2, a2, t0
80004858: 93 82 f7 f1  	addi	t0, a5, -0xe1
8000485c: 33 b7 f2 00  	sltu	a4, t0, a5
80004860: 33 06 e6 00  	add	a2, a2, a4
80004864: 13 06 f6 ff  	addi	a2, a2, -0x1
80004868: 13 57 fe 01  	srli	a4, t3, 0x1f
8000486c: 93 97 1e 00  	slli	a5, t4, 0x1
80004870: 33 e7 e7 00  	or	a4, a5, a4
80004874: 93 17 1e 00  	slli	a5, t3, 0x1
80004878: 33 b3 f2 02  	mulhu	t1, t0, a5
8000487c: b3 bf e2 02  	mulhu	t6, t0, a4
80004880: b3 82 e2 02  	mul	t0, t0, a4
80004884: 33 34 f6 02  	mulhu	s0, a2, a5
80004888: b3 09 f6 02  	mul	s3, a2, a5
8000488c: 33 3a e6 02  	mulhu	s4, a2, a4
80004890: 33 06 e6 02  	mul	a2, a2, a4
80004894: b3 02 53 00  	add	t0, t1, t0
80004898: 33 b3 62 00  	sltu	t1, t0, t1
8000489c: b3 89 32 01  	add	s3, t0, s3
800048a0: b3 b2 59 00  	sltu	t0, s3, t0
800048a4: b3 02 53 00  	add	t0, t1, t0
800048a8: 33 06 c4 00  	add	a2, s0, a2
800048ac: 33 33 86 00  	sltu	t1, a2, s0
800048b0: 33 03 6a 00  	add	t1, s4, t1
800048b4: b3 0f f6 01  	add	t6, a2, t6
800048b8: 33 b6 cf 00  	sltu	a2, t6, a2
800048bc: 33 06 c3 00  	add	a2, t1, a2
800048c0: b3 89 5f 00  	add	s3, t6, t0
800048c4: 33 ba f9 01  	sltu	s4, s3, t6
800048c8: 33 0a 46 01  	add	s4, a2, s4
800048cc: 13 56 5a 01  	srli	a2, s4, 0x15
800048d0: 33 3b c0 00  	snez	s6, a2
800048d4: 8b 2a 1b 00  	vx_split_n	s5, s6
800048d8: 63 04 0b 04  	beqz	s6, 0x80004920 <__divdf3+0x7bc>
800048dc: 13 09 00 00  	li	s2, 0x0
800048e0: 13 86 f4 3f  	addi	a2, s1, 0x3ff
800048e4: 93 d2 19 00  	srli	t0, s3, 0x1
800048e8: 13 13 fa 01  	slli	t1, s4, 0x1f
800048ec: b3 e2 62 00  	or	t0, t0, t1
800048f0: 13 53 1a 00  	srli	t1, s4, 0x1
800048f4: 93 1f 45 01  	slli	t6, a0, 0x14
800048f8: 33 84 72 02  	mul	s0, t0, t2
800048fc: 33 bb d2 02  	mulhu	s6, t0, a3
80004900: 33 04 8b 00  	add	s0, s6, s0
80004904: 33 0b d3 02  	mul	s6, t1, a3
80004908: b3 8f 6f 41  	sub	t6, t6, s6
8000490c: 33 8b d2 02  	mul	s6, t0, a3
80004910: b3 8f 8f 40  	sub	t6, t6, s0
80004914: 33 34 60 01  	snez	s0, s6
80004918: 33 84 8f 40  	sub	s0, t6, s0
8000491c: b3 0f 60 41  	neg	t6, s6
80004920: 0b b0 0a 00  	vx_join	s5
80004924: 8b 2a 19 00  	vx_split_n	s5, s2
80004928: 63 02 09 04  	beqz	s2, 0x8000496c <__divdf3+0x808>
8000492c: 13 15 55 01  	slli	a0, a0, 0x15
80004930: 33 b6 d9 02  	mulhu	a2, s3, a3
80004934: b3 82 79 02  	mul	t0, s3, t2
80004938: 33 06 56 00  	add	a2, a2, t0
8000493c: b3 02 da 02  	mul	t0, s4, a3
80004940: 33 83 d9 02  	mul	t1, s3, a3
80004944: 33 05 c5 40  	sub	a0, a0, a2
80004948: 33 05 55 40  	sub	a0, a0, t0
8000494c: 33 36 60 00  	snez	a2, t1
80004950: 33 04 c5 40  	sub	s0, a0, a2
80004954: b3 0f 60 40  	neg	t6, t1
80004958: 13 86 e4 3f  	addi	a2, s1, 0x3fe
8000495c: 13 8e 07 00  	mv	t3, a5
80004960: 93 0e 07 00  	mv	t4, a4
80004964: 93 82 09 00  	mv	t0, s3
80004968: 13 03 0a 00  	mv	t1, s4
8000496c: 0b b0 0a 00  	vx_join	s5
80004970: 13 29 f6 7f  	slti	s2, a2, 0x7ff
80004974: 0b 25 19 00  	vx_split_n	a0, s2
80004978: 93 04 10 00  	li	s1, 0x1
8000497c: 63 00 09 18  	beqz	s2, 0x80004afc <__divdf3+0x998>
80004980: 13 09 00 00  	li	s2, 0x0
80004984: 13 2c 16 00  	slti	s8, a2, 0x1
80004988: 8b 24 1c 00  	vx_split_n	s1, s8
8000498c: 93 0b 10 00  	li	s7, 0x1
80004990: 63 08 0c 0e  	beqz	s8, 0x80004a80 <__divdf3+0x91c>
80004994: 13 09 00 00  	li	s2, 0x0
80004998: 13 27 c6 fc  	slti	a4, a2, -0x34
8000499c: 93 47 17 00  	xori	a5, a4, 0x1
800049a0: 0b a7 17 00  	vx_split_n	a4, a5
800049a4: 93 0b 10 00  	li	s7, 0x1
800049a8: 63 8e 07 0a  	beqz	a5, 0x80004a64 <__divdf3+0x900>
800049ac: 93 0b 00 00  	li	s7, 0x0
800049b0: 93 07 46 03  	addi	a5, a2, 0x34
800049b4: 13 09 10 00  	li	s2, 0x1
800049b8: 33 0a c9 40  	sub	s4, s2, a2
800049bc: 93 09 10 fe  	li	s3, -0x1f
800049c0: b3 89 c9 40  	sub	s3, s3, a2
800049c4: b3 5a 33 01  	srl	s5, t1, s3
800049c8: 13 ab 09 00  	slti	s6, s3, 0x0
800049cc: b3 f9 6a 0f  	czero.nez	s3, s5, s6
800049d0: 93 4a fa ff  	not	s5, s4
800049d4: 13 1c 13 00  	slli	s8, t1, 0x1
800049d8: b3 1a 5c 01  	sll	s5, s8, s5
800049dc: 33 dc 42 01  	srl	s8, t0, s4
800049e0: b3 6a 5c 01  	or	s5, s8, s5
800049e4: b3 da 6a 0f  	czero.eqz	s5, s5, s6
800049e8: b3 e9 3a 01  	or	s3, s5, s3
800049ec: 33 5a 43 01  	srl	s4, t1, s4
800049f0: 33 5a 6a 0f  	czero.eqz	s4, s4, s6
800049f4: 93 0a b0 fe  	li	s5, -0x15
800049f8: b3 8a ca 40  	sub	s5, s5, a2
800049fc: 13 5b 1e 00  	srli	s6, t3, 0x1
80004a00: b3 5a 5b 01  	srl	s5, s6, s5
80004a04: b3 9e fe 00  	sll	t4, t4, a5
80004a08: b3 ee 5e 01  	or	t4, t4, s5
80004a0c: 93 0a 46 01  	addi	s5, a2, 0x14
80004a10: 13 ab 0a 00  	slti	s6, s5, 0x0
80004a14: b3 de 6e 0f  	czero.eqz	t4, t4, s6
80004a18: b3 1a 5e 01  	sll	s5, t3, s5
80004a1c: b3 fa 6a 0f  	czero.nez	s5, s5, s6
80004a20: b3 ee 5e 01  	or	t4, t4, s5
80004a24: b3 17 fe 00  	sll	a5, t3, a5
80004a28: b3 d7 67 0f  	czero.eqz	a5, a5, s6
80004a2c: 33 8e 33 03  	mul	t3, t2, s3
80004a30: b3 ba 36 03  	mulhu	s5, a3, s3
80004a34: 33 8b 46 03  	mul	s6, a3, s4
80004a38: b3 8a 6a 01  	add	s5, s5, s6
80004a3c: 33 8e ca 01  	add	t3, s5, t3
80004a40: 13 1e 1e 00  	slli	t3, t3, 0x1
80004a44: b3 8a 36 03  	mul	s5, a3, s3
80004a48: 13 db fa 01  	srli	s6, s5, 0x1f
80004a4c: 33 6e 6e 01  	or	t3, t3, s6
80004a50: 13 9b 1a 00  	slli	s6, s5, 0x1
80004a54: b3 ba 67 01  	sltu	s5, a5, s6
80004a58: b3 8e 5e 41  	sub	t4, t4, s5
80004a5c: b3 8a ce 41  	sub	s5, t4, t3
80004a60: 33 8b 67 41  	sub	s6, a5, s6
80004a64: 0b 30 07 00  	vx_join	a4
80004a68: 0b ae 1b 00  	vx_split_n	t3, s7
80004a6c: 63 86 0b 00  	beqz	s7, 0x80004a78 <__divdf3+0x914>
80004a70: 13 07 00 00  	li	a4, 0x0
80004a74: 93 07 08 00  	mv	a5, a6
80004a78: 0b 30 0e 00  	vx_join	t3
80004a7c: 93 0b 00 00  	li	s7, 0x0
80004a80: 0b b0 04 00  	vx_join	s1
80004a84: 0b ae 1b 00  	vx_split_n	t3, s7
80004a88: 63 84 0b 02  	beqz	s7, 0x80004ab0 <__divdf3+0x94c>
80004a8c: b3 f9 e2 01  	and	s3, t0, t5
80004a90: 33 77 13 01  	and	a4, t1, a7
80004a94: 13 16 46 01  	slli	a2, a2, 0x14
80004a98: 33 6a e6 00  	or	s4, a2, a4
80004a9c: 13 d6 ff 01  	srli	a2, t6, 0x1f
80004aa0: 13 14 14 00  	slli	s0, s0, 0x1
80004aa4: b3 6a c4 00  	or	s5, s0, a2
80004aa8: 13 9b 1f 00  	slli	s6, t6, 0x1
80004aac: 13 09 10 00  	li	s2, 0x1
80004ab0: 0b 30 0e 00  	vx_join	t3
80004ab4: 0b 26 19 00  	vx_split_n	a2, s2
80004ab8: 63 0e 09 02  	beqz	s2, 0x80004af4 <__divdf3+0x990>
80004abc: 13 f7 19 00  	andi	a4, s3, 0x1
80004ac0: 33 0b 67 01  	add	s6, a4, s6
80004ac4: 33 37 eb 00  	sltu	a4, s6, a4
80004ac8: 33 87 ea 00  	add	a4, s5, a4
80004acc: b3 47 77 00  	xor	a5, a4, t2
80004ad0: 33 b7 e3 00  	sltu	a4, t2, a4
80004ad4: 33 57 f7 0e  	czero.eqz	a4, a4, a5
80004ad8: b3 b6 66 01  	sltu	a3, a3, s6
80004adc: b3 f6 f6 0e  	czero.nez	a3, a3, a5
80004ae0: b3 e6 e6 00  	or	a3, a3, a4
80004ae4: 33 87 d9 00  	add	a4, s3, a3
80004ae8: b3 36 37 01  	sltu	a3, a4, s3
80004aec: b3 06 da 00  	add	a3, s4, a3
80004af0: b3 e7 06 01  	or	a5, a3, a6
80004af4: 0b 30 06 00  	vx_join	a2
80004af8: 93 04 00 00  	li	s1, 0x0
80004afc: 0b 30 05 00  	vx_join	a0
80004b00: 0b a5 14 00  	vx_split_n	a0, s1
80004b04: 63 88 04 00  	beqz	s1, 0x80004b14 <__divdf3+0x9b0>
80004b08: 13 07 00 00  	li	a4, 0x0
80004b0c: 37 06 f0 7f  	lui	a2, 0x7ff00
80004b10: b3 67 c8 00  	or	a5, a6, a2
80004b14: 0b 30 05 00  	vx_join	a0
80004b18: 0b b0 05 00  	vx_join	a1
80004b1c: 13 05 07 00  	mv	a0, a4
80004b20: 93 85 07 00  	mv	a1, a5
80004b24: 83 20 c1 03  	lw	ra, 0x3c(sp)
80004b28: 03 24 81 03  	lw	s0, 0x38(sp)
80004b2c: 83 24 41 03  	lw	s1, 0x34(sp)
80004b30: 03 29 01 03  	lw	s2, 0x30(sp)
80004b34: 83 29 c1 02  	lw	s3, 0x2c(sp)
80004b38: 03 2a 81 02  	lw	s4, 0x28(sp)
80004b3c: 83 2a 41 02  	lw	s5, 0x24(sp)
80004b40: 03 2b 01 02  	lw	s6, 0x20(sp)
80004b44: 83 2b c1 01  	lw	s7, 0x1c(sp)
80004b48: 03 2c 81 01  	lw	s8, 0x18(sp)
80004b4c: 83 2c 41 01  	lw	s9, 0x14(sp)
80004b50: 03 2d 01 01  	lw	s10, 0x10(sp)
80004b54: 83 2d c1 00  	lw	s11, 0xc(sp)
80004b58: 13 01 01 04  	addi	sp, sp, 0x40
80004b5c: 67 80 00 00  	ret

80004b60 <__fixdfsi>:
80004b60: 13 06 00 00  	li	a2, 0x0
80004b64: 93 96 15 00  	slli	a3, a1, 0x1
80004b68: 13 d8 56 01  	srli	a6, a3, 0x15
80004b6c: 93 36 f8 3f  	sltiu	a3, a6, 0x3ff
80004b70: 13 c7 16 00  	xori	a4, a3, 0x1
80004b74: 8b 26 17 00  	vx_split_n	a3, a4
80004b78: 63 08 07 0a  	beqz	a4, 0x80004c28 <__fixdfsi+0xc8>
80004b7c: 13 06 18 be  	addi	a2, a6, -0x41f
80004b80: 13 36 06 fe  	sltiu	a2, a2, -0x20
80004b84: 93 42 16 00  	xori	t0, a2, 0x1
80004b88: 8b a7 12 00  	vx_split_n	a5, t0
80004b8c: 93 08 10 00  	li	a7, 0x1
80004b90: 13 a7 05 00  	slti	a4, a1, 0x0
80004b94: 63 8c 02 06  	beqz	t0, 0x80004c0c <__fixdfsi+0xac>
80004b98: 93 08 00 00  	li	a7, 0x0
80004b9c: 37 06 10 00  	lui	a2, 0x100
80004ba0: 13 06 f6 ff  	addi	a2, a2, -0x1
80004ba4: b3 f5 c5 00  	and	a1, a1, a2
80004ba8: b3 32 a0 00  	snez	t0, a0
80004bac: b3 85 55 00  	add	a1, a1, t0
80004bb0: 13 05 f5 ff  	addi	a0, a0, -0x1
80004bb4: 13 05 15 00  	addi	a0, a0, 0x1
80004bb8: 93 32 15 00  	seqz	t0, a0
80004bbc: 33 86 c2 00  	add	a2, t0, a2
80004bc0: b3 85 c5 00  	add	a1, a1, a2
80004bc4: 13 06 30 43  	li	a2, 0x433
80004bc8: 33 06 06 41  	sub	a2, a2, a6
80004bcc: 93 02 30 41  	li	t0, 0x413
80004bd0: 33 88 02 41  	sub	a6, t0, a6
80004bd4: 33 55 c5 00  	srl	a0, a0, a2
80004bd8: 13 46 f6 ff  	not	a2, a2
80004bdc: 93 92 15 00  	slli	t0, a1, 0x1
80004be0: 33 96 c2 00  	sll	a2, t0, a2
80004be4: b3 d5 05 01  	srl	a1, a1, a6
80004be8: 13 28 08 00  	slti	a6, a6, 0x0
80004bec: b3 f5 05 0f  	czero.nez	a1, a1, a6
80004bf0: 33 65 c5 00  	or	a0, a0, a2
80004bf4: 33 55 05 0f  	czero.eqz	a0, a0, a6
80004bf8: 33 65 b5 00  	or	a0, a0, a1
80004bfc: b3 05 a0 40  	neg	a1, a0
80004c00: 33 75 e5 0e  	czero.nez	a0, a0, a4
80004c04: 33 d6 e5 0e  	czero.eqz	a2, a1, a4
80004c08: 33 66 c5 00  	or	a2, a0, a2
80004c0c: 0b b0 07 00  	vx_join	a5
80004c10: 0b a5 18 00  	vx_split_n	a0, a7
80004c14: 63 88 08 00  	beqz	a7, 0x80004c24 <__fixdfsi+0xc4>
80004c18: 93 45 17 00  	xori	a1, a4, 0x1
80004c1c: 37 06 00 80  	lui	a2, 0x80000
80004c20: 33 06 b6 40  	sub	a2, a2, a1
80004c24: 0b 30 05 00  	vx_join	a0
80004c28: 0b b0 06 00  	vx_join	a3
80004c2c: 13 05 06 00  	mv	a0, a2
80004c30: 67 80 00 00  	ret

80004c34 <__fixunsdfsi>:
80004c34: 13 06 00 00  	li	a2, 0x0
80004c38: 93 a6 05 00  	slti	a3, a1, 0x0
80004c3c: 13 97 15 00  	slli	a4, a1, 0x1
80004c40: 13 57 57 01  	srli	a4, a4, 0x15
80004c44: 93 37 f7 3f  	sltiu	a5, a4, 0x3ff
80004c48: b3 e6 f6 00  	or	a3, a3, a5
80004c4c: 93 c7 16 00  	xori	a5, a3, 0x1
80004c50: 8b a6 17 00  	vx_split_n	a3, a5
80004c54: 63 8a 07 06  	beqz	a5, 0x80004cc8 <__fixunsdfsi+0x94>
80004c58: 37 06 10 00  	lui	a2, 0x100
80004c5c: 13 06 f6 ff  	addi	a2, a2, -0x1
80004c60: b3 f5 c5 00  	and	a1, a1, a2
80004c64: b3 37 a0 00  	snez	a5, a0
80004c68: b3 85 f5 00  	add	a1, a1, a5
80004c6c: 13 05 f5 ff  	addi	a0, a0, -0x1
80004c70: 13 05 15 00  	addi	a0, a0, 0x1
80004c74: 93 37 15 00  	seqz	a5, a0
80004c78: 33 86 c7 00  	add	a2, a5, a2
80004c7c: b3 85 c5 00  	add	a1, a1, a2
80004c80: 13 06 17 be  	addi	a2, a4, -0x41f
80004c84: 13 36 06 fe  	sltiu	a2, a2, -0x20
80004c88: 93 07 30 43  	li	a5, 0x433
80004c8c: b3 87 e7 40  	sub	a5, a5, a4
80004c90: 13 08 30 41  	li	a6, 0x413
80004c94: 33 07 e8 40  	sub	a4, a6, a4
80004c98: 33 d8 e5 00  	srl	a6, a1, a4
80004c9c: 13 27 07 00  	slti	a4, a4, 0x0
80004ca0: 33 78 e8 0e  	czero.nez	a6, a6, a4
80004ca4: 93 c8 f7 ff  	not	a7, a5
80004ca8: 93 95 15 00  	slli	a1, a1, 0x1
80004cac: b3 95 15 01  	sll	a1, a1, a7
80004cb0: 33 55 f5 00  	srl	a0, a0, a5
80004cb4: 33 65 b5 00  	or	a0, a0, a1
80004cb8: 33 55 e5 0e  	czero.eqz	a0, a0, a4
80004cbc: b3 05 c0 40  	neg	a1, a2
80004cc0: 33 e6 05 01  	or	a2, a1, a6
80004cc4: 33 66 a6 00  	or	a2, a2, a0
80004cc8: 0b b0 06 00  	vx_join	a3
80004ccc: 13 05 06 00  	mv	a0, a2
80004cd0: 67 80 00 00  	ret

80004cd4 <__floatsidf>:
80004cd4: 13 06 05 00  	mv	a2, a0
80004cd8: 13 05 00 00  	li	a0, 0x0
80004cdc: 93 05 00 00  	li	a1, 0x0
80004ce0: 33 37 c0 00  	snez	a4, a2
80004ce4: 8b 26 17 00  	vx_split_n	a3, a4
80004ce8: 63 04 07 0e  	beqz	a4, 0x80004dd0 <__floatsidf+0xfc>
80004cec: 13 55 f6 41  	srai	a0, a2, 0x1f
80004cf0: b3 45 a6 00  	xor	a1, a2, a0
80004cf4: b3 85 a5 40  	sub	a1, a1, a0
80004cf8: 37 05 00 80  	lui	a0, 0x80000
80004cfc: 33 76 a6 00  	and	a2, a2, a0
80004d00: 13 d5 15 00  	srli	a0, a1, 0x1
80004d04: 33 e7 a5 00  	or	a4, a1, a0
80004d08: 93 57 27 00  	srli	a5, a4, 0x2
80004d0c: 33 67 f7 00  	or	a4, a4, a5
80004d10: 93 57 47 00  	srli	a5, a4, 0x4
80004d14: 33 67 f7 00  	or	a4, a4, a5
80004d18: 93 57 87 00  	srli	a5, a4, 0x8
80004d1c: 33 67 f7 00  	or	a4, a4, a5
80004d20: 93 57 07 01  	srli	a5, a4, 0x10
80004d24: 33 67 f7 00  	or	a4, a4, a5
80004d28: 13 47 f7 ff  	not	a4, a4
80004d2c: 93 57 17 00  	srli	a5, a4, 0x1
80004d30: 37 58 55 55  	lui	a6, 0x55555
80004d34: 13 08 58 55  	addi	a6, a6, 0x555
80004d38: b3 f7 07 01  	and	a5, a5, a6
80004d3c: 33 07 f7 40  	sub	a4, a4, a5
80004d40: b7 37 33 33  	lui	a5, 0x33333
80004d44: 93 87 37 33  	addi	a5, a5, 0x333
80004d48: 33 78 f7 00  	and	a6, a4, a5
80004d4c: 13 57 27 00  	srli	a4, a4, 0x2
80004d50: 33 77 f7 00  	and	a4, a4, a5
80004d54: 33 07 e8 00  	add	a4, a6, a4
80004d58: 93 57 47 00  	srli	a5, a4, 0x4
80004d5c: 33 07 f7 00  	add	a4, a4, a5
80004d60: b7 17 0f 0f  	lui	a5, 0xf0f1
80004d64: 93 87 f7 f0  	addi	a5, a5, -0xf1
80004d68: 33 77 f7 00  	and	a4, a4, a5
80004d6c: b7 07 01 01  	lui	a5, 0x1010
80004d70: 93 87 17 10  	addi	a5, a5, 0x101
80004d74: 33 07 f7 02  	mul	a4, a4, a5
80004d78: 13 57 87 01  	srli	a4, a4, 0x18
80004d7c: 93 47 f7 01  	xori	a5, a4, 0x1f
80004d80: 13 08 40 03  	li	a6, 0x34
80004d84: 33 08 f8 40  	sub	a6, a6, a5
80004d88: 93 08 40 01  	li	a7, 0x14
80004d8c: b3 87 f8 40  	sub	a5, a7, a5
80004d90: b3 98 f5 00  	sll	a7, a1, a5
80004d94: 93 a7 07 00  	slti	a5, a5, 0x0
80004d98: b3 f8 f8 0e  	czero.nez	a7, a7, a5
80004d9c: 93 42 f8 ff  	not	t0, a6
80004da0: 33 55 55 00  	srl	a0, a0, t0
80004da4: 33 55 f5 0e  	czero.eqz	a0, a0, a5
80004da8: b3 68 15 01  	or	a7, a0, a7
80004dac: 33 95 05 01  	sll	a0, a1, a6
80004db0: 33 55 f5 0e  	czero.eqz	a0, a0, a5
80004db4: b7 05 10 00  	lui	a1, 0x100
80004db8: b3 c5 b8 00  	xor	a1, a7, a1
80004dbc: 93 07 e0 41  	li	a5, 0x41e
80004dc0: b3 87 e7 40  	sub	a5, a5, a4
80004dc4: 93 97 47 01  	slli	a5, a5, 0x14
80004dc8: b3 85 f5 00  	add	a1, a1, a5
80004dcc: b3 e5 c5 00  	or	a1, a1, a2
80004dd0: 0b b0 06 00  	vx_join	a3
80004dd4: 67 80 00 00  	ret

80004dd8 <__floatunsidf>:
80004dd8: 13 06 00 00  	li	a2, 0x0
80004ddc: 93 05 00 00  	li	a1, 0x0
80004de0: 33 37 a0 00  	snez	a4, a0
80004de4: 8b 26 17 00  	vx_split_n	a3, a4
80004de8: 63 08 07 0c  	beqz	a4, 0x80004eb8 <__floatunsidf+0xe0>
80004dec: 93 55 15 00  	srli	a1, a0, 0x1
80004df0: 33 66 b5 00  	or	a2, a0, a1
80004df4: 13 57 26 00  	srli	a4, a2, 0x2
80004df8: 33 66 e6 00  	or	a2, a2, a4
80004dfc: 13 57 46 00  	srli	a4, a2, 0x4
80004e00: 33 66 e6 00  	or	a2, a2, a4
80004e04: 13 57 86 00  	srli	a4, a2, 0x8
80004e08: 33 66 e6 00  	or	a2, a2, a4
80004e0c: 13 57 06 01  	srli	a4, a2, 0x10
80004e10: 33 66 e6 00  	or	a2, a2, a4
80004e14: 13 46 f6 ff  	not	a2, a2
80004e18: 13 57 16 00  	srli	a4, a2, 0x1
80004e1c: b7 57 55 55  	lui	a5, 0x55555
80004e20: 93 87 57 55  	addi	a5, a5, 0x555
80004e24: 33 77 f7 00  	and	a4, a4, a5
80004e28: 33 06 e6 40  	sub	a2, a2, a4
80004e2c: 37 37 33 33  	lui	a4, 0x33333
80004e30: 13 07 37 33  	addi	a4, a4, 0x333
80004e34: b3 77 e6 00  	and	a5, a2, a4
80004e38: 13 56 26 00  	srli	a2, a2, 0x2
80004e3c: 33 76 e6 00  	and	a2, a2, a4
80004e40: 33 86 c7 00  	add	a2, a5, a2
80004e44: 13 57 46 00  	srli	a4, a2, 0x4
80004e48: 33 06 e6 00  	add	a2, a2, a4
80004e4c: 37 17 0f 0f  	lui	a4, 0xf0f1
80004e50: 13 07 f7 f0  	addi	a4, a4, -0xf1
80004e54: 33 76 e6 00  	and	a2, a2, a4
80004e58: 37 07 01 01  	lui	a4, 0x1010
80004e5c: 13 07 17 10  	addi	a4, a4, 0x101
80004e60: 33 06 e6 02  	mul	a2, a2, a4
80004e64: 13 57 86 01  	srli	a4, a2, 0x18
80004e68: 13 46 f7 01  	xori	a2, a4, 0x1f
80004e6c: 93 07 40 03  	li	a5, 0x34
80004e70: b3 87 c7 40  	sub	a5, a5, a2
80004e74: 13 08 40 01  	li	a6, 0x14
80004e78: 33 06 c8 40  	sub	a2, a6, a2
80004e7c: 33 18 c5 00  	sll	a6, a0, a2
80004e80: 13 26 06 00  	slti	a2, a2, 0x0
80004e84: 33 78 c8 0e  	czero.nez	a6, a6, a2
80004e88: 93 c8 f7 ff  	not	a7, a5
80004e8c: b3 d5 15 01  	srl	a1, a1, a7
80004e90: b3 d5 c5 0e  	czero.eqz	a1, a1, a2
80004e94: b3 e5 05 01  	or	a1, a1, a6
80004e98: 33 15 f5 00  	sll	a0, a0, a5
80004e9c: 33 56 c5 0e  	czero.eqz	a2, a0, a2
80004ea0: 37 05 10 00  	lui	a0, 0x100
80004ea4: 33 c5 a5 00  	xor	a0, a1, a0
80004ea8: 93 05 e0 41  	li	a1, 0x41e
80004eac: b3 85 e5 40  	sub	a1, a1, a4
80004eb0: 93 95 45 01  	slli	a1, a1, 0x14
80004eb4: b3 05 b5 00  	add	a1, a0, a1
80004eb8: 0b b0 06 00  	vx_join	a3
80004ebc: 13 05 06 00  	mv	a0, a2
80004ec0: 67 80 00 00  	ret

80004ec4 <__muldf3>:
80004ec4: 13 01 01 fc  	addi	sp, sp, -0x40
80004ec8: 23 2e 11 02  	sw	ra, 0x3c(sp)
80004ecc: 23 2c 81 02  	sw	s0, 0x38(sp)
80004ed0: 23 2a 91 02  	sw	s1, 0x34(sp)
80004ed4: 23 28 21 03  	sw	s2, 0x30(sp)
80004ed8: 23 26 31 03  	sw	s3, 0x2c(sp)
80004edc: 23 24 41 03  	sw	s4, 0x28(sp)
80004ee0: 23 22 51 03  	sw	s5, 0x24(sp)
80004ee4: 23 20 61 03  	sw	s6, 0x20(sp)
80004ee8: 23 2e 71 01  	sw	s7, 0x1c(sp)
80004eec: 23 2c 81 01  	sw	s8, 0x18(sp)
80004ef0: 23 2a 91 01  	sw	s9, 0x14(sp)
80004ef4: 23 28 a1 01  	sw	s10, 0x10(sp)
80004ef8: 23 26 b1 01  	sw	s11, 0xc(sp)
80004efc: 93 04 00 00  	li	s1, 0x0
80004f00: b7 08 10 00  	lui	a7, 0x100
80004f04: 93 88 f8 ff  	addi	a7, a7, -0x1
80004f08: 13 97 15 00  	slli	a4, a1, 0x1
80004f0c: 93 52 57 01  	srli	t0, a4, 0x15
80004f10: 13 97 16 00  	slli	a4, a3, 0x1
80004f14: 13 53 57 01  	srli	t1, a4, 0x15
80004f18: 33 c7 b6 00  	xor	a4, a3, a1
80004f1c: 37 04 00 80  	lui	s0, 0x80000
80004f20: 33 78 87 00  	and	a6, a4, s0
80004f24: b3 f3 15 01  	and	t2, a1, a7
80004f28: b3 fe 16 01  	and	t4, a3, a7
80004f2c: 13 87 12 80  	addi	a4, t0, -0x7ff
80004f30: 13 37 27 80  	sltiu	a4, a4, -0x7fe
80004f34: 93 07 13 80  	addi	a5, t1, -0x7ff
80004f38: 93 b7 27 80  	sltiu	a5, a5, -0x7fe
80004f3c: 33 6f f7 00  	or	t5, a4, a5
80004f40: 0b 2e 1f 00  	vx_split_n	t3, t5
80004f44: 13 0c 10 00  	li	s8, 0x1
80004f48: 63 06 0f 54  	beqz	t5, 0x80005494 <__muldf3+0x5d0>
80004f4c: 13 04 f4 ff  	addi	s0, s0, -0x1
80004f50: b3 f9 85 00  	and	s3, a1, s0
80004f54: 37 09 f0 7f  	lui	s2, 0x7ff00
80004f58: 33 c7 29 01  	xor	a4, s3, s2
80004f5c: 93 d0 49 01  	srli	ra, s3, 0x14
80004f60: 93 b7 f0 7f  	sltiu	a5, ra, 0x7ff
80004f64: b3 d7 e7 0e  	czero.eqz	a5, a5, a4
80004f68: 13 3f 15 00  	seqz	t5, a0
80004f6c: 33 77 ef 0e  	czero.nez	a4, t5, a4
80004f70: 33 6b f7 00  	or	s6, a4, a5
80004f74: 0b 2f 1b 00  	vx_split_n	t5, s6
80004f78: 93 0f 10 00  	li	t6, 0x1
80004f7c: 63 0a 0b 4c  	beqz	s6, 0x80005450 <__muldf3+0x58c>
80004f80: 33 f4 86 00  	and	s0, a3, s0
80004f84: 33 47 24 01  	xor	a4, s0, s2
80004f88: 93 37 16 00  	seqz	a5, a2
80004f8c: b3 f7 e7 0e  	czero.nez	a5, a5, a4
80004f90: 93 5d 44 01  	srli	s11, s0, 0x14
80004f94: 93 bf fd 7f  	sltiu	t6, s11, 0x7ff
80004f98: 33 d7 ef 0e  	czero.eqz	a4, t6, a4
80004f9c: 33 eb e7 00  	or	s6, a5, a4
80004fa0: 8b 2f 1b 00  	vx_split_n	t6, s6
80004fa4: 13 09 10 00  	li	s2, 0x1
80004fa8: 63 08 0b 46  	beqz	s6, 0x80005418 <__muldf3+0x554>
80004fac: b7 0b f0 7f  	lui	s7, 0x7ff00
80004fb0: 33 c7 79 01  	xor	a4, s3, s7
80004fb4: 33 67 e5 00  	or	a4, a0, a4
80004fb8: 33 39 e0 00  	snez	s2, a4
80004fbc: 0b 27 19 00  	vx_split_n	a4, s2
80004fc0: 23 24 e1 00  	sw	a4, 0x8(sp)
80004fc4: 13 0b 10 00  	li	s6, 0x1
80004fc8: 63 00 09 40  	beqz	s2, 0x800053c8 <__muldf3+0x504>
80004fcc: 33 47 74 01  	xor	a4, s0, s7
80004fd0: 33 67 e6 00  	or	a4, a2, a4
80004fd4: 33 39 e0 00  	snez	s2, a4
80004fd8: 0b 2b 19 00  	vx_split_n	s6, s2
80004fdc: 93 0b 10 00  	li	s7, 0x1
80004fe0: b3 69 35 01  	or	s3, a0, s3
80004fe4: 63 0e 09 38  	beqz	s2, 0x80005380 <__muldf3+0x4bc>
80004fe8: 33 39 30 01  	snez	s2, s3
80004fec: 0b 27 19 00  	vx_split_n	a4, s2
80004ff0: 23 22 e1 00  	sw	a4, 0x4(sp)
80004ff4: 93 0b 10 00  	li	s7, 0x1
80004ff8: 63 08 09 34  	beqz	s2, 0x80005348 <__muldf3+0x484>
80004ffc: 33 67 86 00  	or	a4, a2, s0
80005000: b3 37 e0 00  	snez	a5, a4
80005004: 0b a7 17 00  	vx_split_n	a4, a5
80005008: 93 0b 10 00  	li	s7, 0x1
8000500c: 63 84 07 30  	beqz	a5, 0x80005314 <__muldf3+0x450>
80005010: 93 04 00 00  	li	s1, 0x0
80005014: 13 b9 10 00  	seqz	s2, ra
80005018: 8b 27 19 00  	vx_split_n	a5, s2
8000501c: 13 0a 05 00  	mv	s4, a0
80005020: 93 8a 03 00  	mv	s5, t2
80005024: 63 04 09 16  	beqz	s2, 0x8000518c <__muldf3+0x2c8>
80005028: 33 39 70 00  	snez	s2, t2
8000502c: 8b 24 19 00  	vx_split_n	s1, s2
80005030: 13 0a 10 00  	li	s4, 0x1
80005034: 63 02 09 08  	beqz	s2, 0x800050b8 <__muldf3+0x1f4>
80005038: 13 0a 00 00  	li	s4, 0x0
8000503c: 13 d9 13 00  	srli	s2, t2, 0x1
80005040: 33 e9 23 01  	or	s2, t2, s2
80005044: 93 5a 29 00  	srli	s5, s2, 0x2
80005048: 33 69 59 01  	or	s2, s2, s5
8000504c: 93 5a 49 00  	srli	s5, s2, 0x4
80005050: 33 69 59 01  	or	s2, s2, s5
80005054: 93 5a 89 00  	srli	s5, s2, 0x8
80005058: 33 69 59 01  	or	s2, s2, s5
8000505c: 93 5a 09 01  	srli	s5, s2, 0x10
80005060: 33 69 59 01  	or	s2, s2, s5
80005064: 13 49 f9 ff  	not	s2, s2
80005068: 93 5a 19 00  	srli	s5, s2, 0x1
8000506c: b7 5b 55 55  	lui	s7, 0x55555
80005070: 93 8b 5b 55  	addi	s7, s7, 0x555
80005074: b3 fa 7a 01  	and	s5, s5, s7
80005078: 33 09 59 41  	sub	s2, s2, s5
8000507c: b7 3a 33 33  	lui	s5, 0x33333
80005080: 93 8a 3a 33  	addi	s5, s5, 0x333
80005084: b3 7b 59 01  	and	s7, s2, s5
80005088: 13 59 29 00  	srli	s2, s2, 0x2
8000508c: 33 79 59 01  	and	s2, s2, s5
80005090: 33 89 2b 01  	add	s2, s7, s2
80005094: 93 5a 49 00  	srli	s5, s2, 0x4
80005098: 33 09 59 01  	add	s2, s2, s5
8000509c: b7 1a 0f 0f  	lui	s5, 0xf0f1
800050a0: 93 8a fa f0  	addi	s5, s5, -0xf1
800050a4: 33 79 59 01  	and	s2, s2, s5
800050a8: b7 0a 01 01  	lui	s5, 0x1010
800050ac: 93 8a 1a 10  	addi	s5, s5, 0x101
800050b0: 33 09 59 03  	mul	s2, s2, s5
800050b4: 93 5b 89 01  	srli	s7, s2, 0x18
800050b8: 0b b0 04 00  	vx_join	s1
800050bc: 8b 24 1a 00  	vx_split_n	s1, s4
800050c0: 63 02 0a 08  	beqz	s4, 0x80005144 <__muldf3+0x280>
800050c4: 13 59 15 00  	srli	s2, a0, 0x1
800050c8: 33 69 25 01  	or	s2, a0, s2
800050cc: 13 5a 29 00  	srli	s4, s2, 0x2
800050d0: 33 69 49 01  	or	s2, s2, s4
800050d4: 13 5a 49 00  	srli	s4, s2, 0x4
800050d8: 33 69 49 01  	or	s2, s2, s4
800050dc: 13 5a 89 00  	srli	s4, s2, 0x8
800050e0: 33 69 49 01  	or	s2, s2, s4
800050e4: 13 5a 09 01  	srli	s4, s2, 0x10
800050e8: 33 69 49 01  	or	s2, s2, s4
800050ec: 13 49 f9 ff  	not	s2, s2
800050f0: 13 5a 19 00  	srli	s4, s2, 0x1
800050f4: b7 5a 55 55  	lui	s5, 0x55555
800050f8: 93 8a 5a 55  	addi	s5, s5, 0x555
800050fc: 33 7a 5a 01  	and	s4, s4, s5
80005100: 33 09 49 41  	sub	s2, s2, s4
80005104: 37 3a 33 33  	lui	s4, 0x33333
80005108: 13 0a 3a 33  	addi	s4, s4, 0x333
8000510c: b3 7a 49 01  	and	s5, s2, s4
80005110: 13 59 29 00  	srli	s2, s2, 0x2
80005114: 33 79 49 01  	and	s2, s2, s4
80005118: 33 89 2a 01  	add	s2, s5, s2
8000511c: 13 5a 49 00  	srli	s4, s2, 0x4
80005120: 33 09 49 01  	add	s2, s2, s4
80005124: 37 1a 0f 0f  	lui	s4, 0xf0f1
80005128: 13 0a fa f0  	addi	s4, s4, -0xf1
8000512c: 33 79 49 01  	and	s2, s2, s4
80005130: 37 0a 01 01  	lui	s4, 0x1010
80005134: 13 0a 1a 10  	addi	s4, s4, 0x101
80005138: 33 09 49 03  	mul	s2, s2, s4
8000513c: 13 59 89 01  	srli	s2, s2, 0x18
80005140: 93 6b 09 02  	ori	s7, s2, 0x20
80005144: 0b b0 04 00  	vx_join	s1
80005148: 93 84 5b ff  	addi	s1, s7, -0xb
8000514c: 13 09 a0 02  	li	s2, 0x2a
80005150: 33 09 79 41  	sub	s2, s2, s7
80005154: 13 5a 15 00  	srli	s4, a0, 0x1
80005158: 33 59 2a 01  	srl	s2, s4, s2
8000515c: 33 9a 93 00  	sll	s4, t2, s1
80005160: 33 69 2a 01  	or	s2, s4, s2
80005164: 13 8a 5b fd  	addi	s4, s7, -0x2b
80005168: 13 2c 0a 00  	slti	s8, s4, 0x0
8000516c: 33 59 89 0f  	czero.eqz	s2, s2, s8
80005170: 33 1a 45 01  	sll	s4, a0, s4
80005174: 33 7a 8a 0f  	czero.nez	s4, s4, s8
80005178: b3 6a 49 01  	or	s5, s2, s4
8000517c: b3 14 95 00  	sll	s1, a0, s1
80005180: 33 da 84 0f  	czero.eqz	s4, s1, s8
80005184: 93 04 c0 00  	li	s1, 0xc
80005188: b3 84 74 41  	sub	s1, s1, s7
8000518c: 0b b0 07 00  	vx_join	a5
80005190: 13 b9 1d 00  	seqz	s2, s11
80005194: 8b 27 19 00  	vx_split_n	a5, s2
80005198: 93 0c 06 00  	mv	s9, a2
8000519c: 13 8d 0e 00  	mv	s10, t4
800051a0: 63 04 09 16  	beqz	s2, 0x80005308 <__muldf3+0x444>
800051a4: 33 39 d0 01  	snez	s2, t4
800051a8: 0b 2c 19 00  	vx_split_n	s8, s2
800051ac: 93 0c 10 00  	li	s9, 0x1
800051b0: 63 02 09 08  	beqz	s2, 0x80005234 <__muldf3+0x370>
800051b4: 93 0c 00 00  	li	s9, 0x0
800051b8: 13 d9 1e 00  	srli	s2, t4, 0x1
800051bc: 33 e9 2e 01  	or	s2, t4, s2
800051c0: 93 5b 29 00  	srli	s7, s2, 0x2
800051c4: 33 69 79 01  	or	s2, s2, s7
800051c8: 93 5b 49 00  	srli	s7, s2, 0x4
800051cc: 33 69 79 01  	or	s2, s2, s7
800051d0: 93 5b 89 00  	srli	s7, s2, 0x8
800051d4: 33 69 79 01  	or	s2, s2, s7
800051d8: 93 5b 09 01  	srli	s7, s2, 0x10
800051dc: 33 69 79 01  	or	s2, s2, s7
800051e0: 13 49 f9 ff  	not	s2, s2
800051e4: 93 5b 19 00  	srli	s7, s2, 0x1
800051e8: 37 5d 55 55  	lui	s10, 0x55555
800051ec: 13 0d 5d 55  	addi	s10, s10, 0x555
800051f0: b3 fb ab 01  	and	s7, s7, s10
800051f4: 33 09 79 41  	sub	s2, s2, s7
800051f8: b7 3b 33 33  	lui	s7, 0x33333
800051fc: 93 8b 3b 33  	addi	s7, s7, 0x333
80005200: 33 7d 79 01  	and	s10, s2, s7
80005204: 13 59 29 00  	srli	s2, s2, 0x2
80005208: 33 79 79 01  	and	s2, s2, s7
8000520c: 33 09 2d 01  	add	s2, s10, s2
80005210: 93 5b 49 00  	srli	s7, s2, 0x4
80005214: 33 09 79 01  	add	s2, s2, s7
80005218: b7 1b 0f 0f  	lui	s7, 0xf0f1
8000521c: 93 8b fb f0  	addi	s7, s7, -0xf1
80005220: 33 79 79 01  	and	s2, s2, s7
80005224: b7 0b 01 01  	lui	s7, 0x1010
80005228: 93 8b 1b 10  	addi	s7, s7, 0x101
8000522c: 33 09 79 03  	mul	s2, s2, s7
80005230: 93 5d 89 01  	srli	s11, s2, 0x18
80005234: 0b 30 0c 00  	vx_join	s8
80005238: 8b ab 1c 00  	vx_split_n	s7, s9
8000523c: 63 82 0c 08  	beqz	s9, 0x800052c0 <__muldf3+0x3fc>
80005240: 13 59 16 00  	srli	s2, a2, 0x1
80005244: 33 69 26 01  	or	s2, a2, s2
80005248: 13 5c 29 00  	srli	s8, s2, 0x2
8000524c: 33 69 89 01  	or	s2, s2, s8
80005250: 13 5c 49 00  	srli	s8, s2, 0x4
80005254: 33 69 89 01  	or	s2, s2, s8
80005258: 13 5c 89 00  	srli	s8, s2, 0x8
8000525c: 33 69 89 01  	or	s2, s2, s8
80005260: 13 5c 09 01  	srli	s8, s2, 0x10
80005264: 33 69 89 01  	or	s2, s2, s8
80005268: 13 49 f9 ff  	not	s2, s2
8000526c: 13 5c 19 00  	srli	s8, s2, 0x1
80005270: b7 5c 55 55  	lui	s9, 0x55555
80005274: 93 8c 5c 55  	addi	s9, s9, 0x555
80005278: 33 7c 9c 01  	and	s8, s8, s9
8000527c: 33 09 89 41  	sub	s2, s2, s8
80005280: 37 3c 33 33  	lui	s8, 0x33333
80005284: 13 0c 3c 33  	addi	s8, s8, 0x333
80005288: b3 7c 89 01  	and	s9, s2, s8
8000528c: 13 59 29 00  	srli	s2, s2, 0x2
80005290: 33 79 89 01  	and	s2, s2, s8
80005294: 33 89 2c 01  	add	s2, s9, s2
80005298: 13 5c 49 00  	srli	s8, s2, 0x4
8000529c: 33 09 89 01  	add	s2, s2, s8
800052a0: 37 1c 0f 0f  	lui	s8, 0xf0f1
800052a4: 13 0c fc f0  	addi	s8, s8, -0xf1
800052a8: 33 79 89 01  	and	s2, s2, s8
800052ac: 37 0c 01 01  	lui	s8, 0x1010
800052b0: 13 0c 1c 10  	addi	s8, s8, 0x101
800052b4: 33 09 89 03  	mul	s2, s2, s8
800052b8: 13 59 89 01  	srli	s2, s2, 0x18
800052bc: 93 6d 09 02  	ori	s11, s2, 0x20
800052c0: 0b b0 0b 00  	vx_join	s7
800052c4: 13 89 5d ff  	addi	s2, s11, -0xb
800052c8: 93 0b a0 02  	li	s7, 0x2a
800052cc: b3 8b bb 41  	sub	s7, s7, s11
800052d0: 13 5c 16 00  	srli	s8, a2, 0x1
800052d4: b3 5b 7c 01  	srl	s7, s8, s7
800052d8: 33 9c 2e 01  	sll	s8, t4, s2
800052dc: b3 6b 7c 01  	or	s7, s8, s7
800052e0: 13 8c 5d fd  	addi	s8, s11, -0x2b
800052e4: 93 2c 0c 00  	slti	s9, s8, 0x0
800052e8: b3 db 9b 0f  	czero.eqz	s7, s7, s9
800052ec: 33 1c 86 01  	sll	s8, a2, s8
800052f0: 33 7c 9c 0f  	czero.nez	s8, s8, s9
800052f4: 33 ed 8b 01  	or	s10, s7, s8
800052f8: 33 19 26 01  	sll	s2, a2, s2
800052fc: b3 5c 99 0f  	czero.eqz	s9, s2, s9
80005300: b3 84 b4 41  	sub	s1, s1, s11
80005304: 93 84 c4 00  	addi	s1, s1, 0xc
80005308: 0b b0 07 00  	vx_join	a5
8000530c: 93 0b 00 00  	li	s7, 0x0
80005310: 13 0c 10 00  	li	s8, 0x1
80005314: 0b 30 07 00  	vx_join	a4
80005318: 8b ad 1b 00  	vx_split_n	s11, s7
8000531c: 63 82 0b 02  	beqz	s7, 0x80005340 <__muldf3+0x47c>
80005320: 93 04 00 00  	li	s1, 0x0
80005324: 13 0c 00 00  	li	s8, 0x0
80005328: 13 07 00 00  	li	a4, 0x0
8000532c: 13 0a 05 00  	mv	s4, a0
80005330: 93 8a 03 00  	mv	s5, t2
80005334: 93 0c 06 00  	mv	s9, a2
80005338: 13 8d 0e 00  	mv	s10, t4
8000533c: 93 07 08 00  	mv	a5, a6
80005340: 0b b0 0d 00  	vx_join	s11
80005344: 93 0b 00 00  	li	s7, 0x0
80005348: 03 29 41 00  	lw	s2, 0x4(sp)
8000534c: 0b 30 09 00  	vx_join	s2
80005350: 8b ad 1b 00  	vx_split_n	s11, s7
80005354: 63 82 0b 02  	beqz	s7, 0x80005378 <__muldf3+0x4b4>
80005358: 93 04 00 00  	li	s1, 0x0
8000535c: 13 0c 00 00  	li	s8, 0x0
80005360: 13 07 00 00  	li	a4, 0x0
80005364: 13 0a 05 00  	mv	s4, a0
80005368: 93 8a 03 00  	mv	s5, t2
8000536c: 93 0c 06 00  	mv	s9, a2
80005370: 13 8d 0e 00  	mv	s10, t4
80005374: 93 07 08 00  	mv	a5, a6
80005378: 0b b0 0d 00  	vx_join	s11
8000537c: 93 0b 00 00  	li	s7, 0x0
80005380: 0b 30 0b 00  	vx_join	s6
80005384: 0b ab 1b 00  	vx_split_n	s6, s7
80005388: 63 8c 0b 02  	beqz	s7, 0x800053c0 <__muldf3+0x4fc>
8000538c: 93 04 00 00  	li	s1, 0x0
80005390: 13 0c 00 00  	li	s8, 0x0
80005394: 13 07 00 00  	li	a4, 0x0
80005398: b7 07 f0 7f  	lui	a5, 0x7ff00
8000539c: b3 67 f8 00  	or	a5, a6, a5
800053a0: b3 d7 37 0f  	czero.eqz	a5, a5, s3
800053a4: 37 09 f8 7f  	lui	s2, 0x7ff80
800053a8: 33 79 39 0f  	czero.nez	s2, s2, s3
800053ac: b3 67 f9 00  	or	a5, s2, a5
800053b0: 13 0a 05 00  	mv	s4, a0
800053b4: 93 8a 03 00  	mv	s5, t2
800053b8: 93 0c 06 00  	mv	s9, a2
800053bc: 13 8d 0e 00  	mv	s10, t4
800053c0: 0b 30 0b 00  	vx_join	s6
800053c4: 13 0b 00 00  	li	s6, 0x0
800053c8: 03 29 81 00  	lw	s2, 0x8(sp)
800053cc: 0b 30 09 00  	vx_join	s2
800053d0: 0b 29 1b 00  	vx_split_n	s2, s6
800053d4: 63 0e 0b 02  	beqz	s6, 0x80005410 <__muldf3+0x54c>
800053d8: 93 04 00 00  	li	s1, 0x0
800053dc: 13 0c 00 00  	li	s8, 0x0
800053e0: 13 07 00 00  	li	a4, 0x0
800053e4: 33 64 86 00  	or	s0, a2, s0
800053e8: b7 07 f0 7f  	lui	a5, 0x7ff00
800053ec: b3 67 f8 00  	or	a5, a6, a5
800053f0: b3 d7 87 0e  	czero.eqz	a5, a5, s0
800053f4: b7 09 f8 7f  	lui	s3, 0x7ff80
800053f8: 33 f4 89 0e  	czero.nez	s0, s3, s0
800053fc: b3 67 f4 00  	or	a5, s0, a5
80005400: 13 0a 05 00  	mv	s4, a0
80005404: 93 8a 03 00  	mv	s5, t2
80005408: 93 0c 06 00  	mv	s9, a2
8000540c: 13 8d 0e 00  	mv	s10, t4
80005410: 0b 30 09 00  	vx_join	s2
80005414: 13 09 00 00  	li	s2, 0x0
80005418: 0b b0 0f 00  	vx_join	t6
8000541c: 8b 2f 19 00  	vx_split_n	t6, s2
80005420: 63 04 09 02  	beqz	s2, 0x80005448 <__muldf3+0x584>
80005424: 93 04 00 00  	li	s1, 0x0
80005428: 13 0c 00 00  	li	s8, 0x0
8000542c: b7 07 08 00  	lui	a5, 0x80
80005430: b3 e7 f6 00  	or	a5, a3, a5
80005434: 13 0a 05 00  	mv	s4, a0
80005438: 93 8a 03 00  	mv	s5, t2
8000543c: 93 0c 06 00  	mv	s9, a2
80005440: 13 8d 0e 00  	mv	s10, t4
80005444: 13 07 06 00  	mv	a4, a2
80005448: 0b b0 0f 00  	vx_join	t6
8000544c: 93 0f 00 00  	li	t6, 0x0
80005450: 0b 30 0f 00  	vx_join	t5
80005454: 8b a6 1f 00  	vx_split_n	a3, t6
80005458: 63 84 0f 02  	beqz	t6, 0x80005480 <__muldf3+0x5bc>
8000545c: 13 0c 00 00  	li	s8, 0x0
80005460: 93 04 00 00  	li	s1, 0x0
80005464: b7 07 08 00  	lui	a5, 0x80
80005468: b3 e7 f5 00  	or	a5, a1, a5
8000546c: 13 07 05 00  	mv	a4, a0
80005470: 93 0c 06 00  	mv	s9, a2
80005474: 13 8d 0e 00  	mv	s10, t4
80005478: 13 0a 05 00  	mv	s4, a0
8000547c: 93 8a 03 00  	mv	s5, t2
80005480: 0b b0 06 00  	vx_join	a3
80005484: 13 05 0a 00  	mv	a0, s4
80005488: 93 83 0a 00  	mv	t2, s5
8000548c: 13 86 0c 00  	mv	a2, s9
80005490: 93 0e 0d 00  	mv	t4, s10
80005494: 13 0f f0 ff  	li	t5, -0x1
80005498: 0b 30 0e 00  	vx_join	t3
8000549c: 93 76 1c 00  	andi	a3, s8, 0x1
800054a0: 8b a5 16 00  	vx_split_n	a1, a3
800054a4: 63 82 06 2c  	beqz	a3, 0x80005768 <__muldf3+0x8a4>
800054a8: 93 56 56 01  	srli	a3, a2, 0x15
800054ac: 93 9e be 00  	slli	t4, t4, 0xb
800054b0: 13 1e b6 00  	slli	t3, a2, 0xb
800054b4: 33 06 ae 02  	mul	a2, t3, a0
800054b8: b3 3f ae 02  	mulhu	t6, t3, a0
800054bc: 37 04 00 80  	lui	s0, 0x80000
800054c0: b3 e6 86 00  	or	a3, a3, s0
800054c4: b3 e6 de 00  	or	a3, t4, a3
800054c8: b3 be a6 02  	mulhu	t4, a3, a0
800054cc: 33 85 a6 02  	mul	a0, a3, a0
800054d0: 37 04 10 00  	lui	s0, 0x100
800054d4: b3 e3 83 00  	or	t2, t2, s0
800054d8: 33 34 7e 02  	mulhu	s0, t3, t2
800054dc: 33 0e 7e 02  	mul	t3, t3, t2
800054e0: 33 b9 76 02  	mulhu	s2, a3, t2
800054e4: b3 86 76 02  	mul	a3, a3, t2
800054e8: b3 0f fe 01  	add	t6, t3, t6
800054ec: b3 b3 cf 01  	sltu	t2, t6, t3
800054f0: 33 85 af 00  	add	a0, t6, a0
800054f4: 33 3e f5 01  	sltu	t3, a0, t6
800054f8: b3 83 c3 01  	add	t2, t2, t3
800054fc: b3 06 d4 00  	add	a3, s0, a3
80005500: 33 be 86 00  	sltu	t3, a3, s0
80005504: 33 0e c9 01  	add	t3, s2, t3
80005508: b3 8e d6 01  	add	t4, a3, t4
8000550c: b3 b6 de 00  	sltu	a3, t4, a3
80005510: b3 06 de 00  	add	a3, t3, a3
80005514: b3 83 7e 00  	add	t2, t4, t2
80005518: 33 be d3 01  	sltu	t3, t2, t4
8000551c: b3 86 c6 01  	add	a3, a3, t3
80005520: b3 82 62 00  	add	t0, t0, t1
80005524: b3 82 92 00  	add	t0, t0, s1
80005528: 93 82 12 c0  	addi	t0, t0, -0x3ff
8000552c: 13 03 1f 00  	addi	t1, t5, 0x1
80005530: 13 3e 13 00  	seqz	t3, t1
80005534: 33 8e c8 01  	add	t3, a7, t3
80005538: 33 fe c6 01  	and	t3, a3, t3
8000553c: 33 f3 63 00  	and	t1, t2, t1
80005540: 33 63 c3 01  	or	t1, t1, t3
80005544: b3 3f 60 00  	snez	t6, t1
80005548: 0b a3 1f 00  	vx_split_n	t1, t6
8000554c: 93 0e 10 00  	li	t4, 0x1
80005550: 63 86 0f 00  	beqz	t6, 0x8000555c <__muldf3+0x698>
80005554: 93 0e 00 00  	li	t4, 0x0
80005558: 13 8e 12 00  	addi	t3, t0, 0x1
8000555c: 0b 30 03 00  	vx_join	t1
80005560: 0b a3 1e 00  	vx_split_n	t1, t4
80005564: 63 88 0e 02  	beqz	t4, 0x80005594 <__muldf3+0x6d0>
80005568: 13 de f3 01  	srli	t3, t2, 0x1f
8000556c: 93 96 16 00  	slli	a3, a3, 0x1
80005570: b3 e6 c6 01  	or	a3, a3, t3
80005574: 93 93 13 00  	slli	t2, t2, 0x1
80005578: 13 5e f5 01  	srli	t3, a0, 0x1f
8000557c: b3 e3 c3 01  	or	t2, t2, t3
80005580: 13 5e f6 01  	srli	t3, a2, 0x1f
80005584: 13 15 15 00  	slli	a0, a0, 0x1
80005588: 33 65 c5 01  	or	a0, a0, t3
8000558c: 13 16 16 00  	slli	a2, a2, 0x1
80005590: 13 8e 02 00  	mv	t3, t0
80005594: 0b 30 03 00  	vx_join	t1
80005598: 13 24 fe 7f  	slti	s0, t3, 0x7ff
8000559c: 8b 22 14 00  	vx_split_n	t0, s0
800055a0: 13 03 10 00  	li	t1, 0x1
800055a4: 63 00 04 1a  	beqz	s0, 0x80005744 <__muldf3+0x880>
800055a8: 13 03 00 00  	li	t1, 0x0
800055ac: b3 2f c0 01  	sgtz	t6, t3
800055b0: 8b ae 1f 00  	vx_split_n	t4, t6
800055b4: 13 09 10 00  	li	s2, 0x1
800055b8: 63 8e 0f 00  	beqz	t6, 0x800055d4 <__muldf3+0x710>
800055bc: 13 09 00 00  	li	s2, 0x0
800055c0: 33 f4 e3 01  	and	s0, t2, t5
800055c4: b3 f8 16 01  	and	a7, a3, a7
800055c8: 13 13 4e 01  	slli	t1, t3, 0x14
800055cc: b3 64 13 01  	or	s1, t1, a7
800055d0: 13 03 10 00  	li	t1, 0x1
800055d4: 0b b0 0e 00  	vx_join	t4
800055d8: 8b 28 19 00  	vx_split_n	a7, s2
800055dc: 63 08 09 10  	beqz	s2, 0x800056ec <__muldf3+0x828>
800055e0: 93 04 10 00  	li	s1, 0x1
800055e4: 33 8f c4 41  	sub	t5, s1, t3
800055e8: 13 33 0f 04  	sltiu	t1, t5, 0x40
800055ec: 13 49 13 00  	xori	s2, t1, 0x1
800055f0: 0b 24 19 00  	vx_split_n	s0, s2
800055f4: 63 08 09 00  	beqz	s2, 0x80005604 <__muldf3+0x740>
800055f8: 93 04 00 00  	li	s1, 0x0
800055fc: 93 0e 00 00  	li	t4, 0x0
80005600: 93 0f 08 00  	mv	t6, a6
80005604: 0b 30 04 00  	vx_join	s0
80005608: 0b a4 14 00  	vx_split_n	s0, s1
8000560c: 63 8a 04 0c  	beqz	s1, 0x800056e0 <__muldf3+0x81c>
80005610: 93 0e fe 03  	addi	t4, t3, 0x3f
80005614: 93 5f 16 00  	srli	t6, a2, 0x1
80005618: b3 04 c0 41  	neg	s1, t3
8000561c: b3 df 9f 00  	srl	t6, t6, s1
80005620: 33 19 d5 01  	sll	s2, a0, t4
80005624: b3 6f f9 01  	or	t6, s2, t6
80005628: 13 0e fe 01  	addi	t3, t3, 0x1f
8000562c: 13 29 0e 00  	slti	s2, t3, 0x0
80005630: b3 df 2f 0f  	czero.eqz	t6, t6, s2
80005634: b3 19 c6 01  	sll	s3, a2, t3
80005638: b3 f9 29 0f  	czero.nez	s3, s3, s2
8000563c: 33 1a d6 01  	sll	s4, a2, t4
80005640: 33 5a 2a 0f  	czero.eqz	s4, s4, s2
80005644: b3 69 3a 01  	or	s3, s4, s3
80005648: b3 ef f9 01  	or	t6, s3, t6
8000564c: b3 3f f0 01  	snez	t6, t6
80005650: 93 d9 13 00  	srli	s3, t2, 0x1
80005654: b3 d4 99 00  	srl	s1, s3, s1
80005658: b3 99 d6 01  	sll	s3, a3, t4
8000565c: b3 e4 99 00  	or	s1, s3, s1
80005660: b3 d4 24 0f  	czero.eqz	s1, s1, s2
80005664: 33 9e c3 01  	sll	t3, t2, t3
80005668: 33 7e 2e 0f  	czero.nez	t3, t3, s2
8000566c: 33 ee c4 01  	or	t3, s1, t3
80005670: b3 9e d3 01  	sll	t4, t2, t4
80005674: b3 de 2e 0f  	czero.eqz	t4, t4, s2
80005678: 33 56 e6 01  	srl	a2, a2, t5
8000567c: 93 14 15 00  	slli	s1, a0, 0x1
80005680: 13 49 ff ff  	not	s2, t5
80005684: b3 94 24 01  	sll	s1, s1, s2
80005688: 33 66 96 00  	or	a2, a2, s1
8000568c: 93 04 0f fe  	addi	s1, t5, -0x20
80005690: 93 a4 04 00  	slti	s1, s1, 0x0
80005694: 33 56 96 0e  	czero.eqz	a2, a2, s1
80005698: 33 55 e5 01  	srl	a0, a0, t5
8000569c: b3 79 95 0e  	czero.nez	s3, a0, s1
800056a0: 33 55 95 0e  	czero.eqz	a0, a0, s1
800056a4: 33 65 ae 00  	or	a0, t3, a0
800056a8: 33 ee 3e 01  	or	t3, t4, s3
800056ac: 33 66 ce 00  	or	a2, t3, a2
800056b0: 33 66 f6 01  	or	a2, a2, t6
800056b4: b3 d3 e3 01  	srl	t2, t2, t5
800056b8: 13 9e 16 00  	slli	t3, a3, 0x1
800056bc: 33 1e 2e 01  	sll	t3, t3, s2
800056c0: b3 e3 c3 01  	or	t2, t2, t3
800056c4: b3 d3 93 0e  	czero.eqz	t2, t2, s1
800056c8: b3 d6 e6 01  	srl	a3, a3, t5
800056cc: 33 fe 96 0e  	czero.nez	t3, a3, s1
800056d0: b3 e3 c3 01  	or	t2, t2, t3
800056d4: b3 d6 96 0e  	czero.eqz	a3, a3, s1
800056d8: 93 0e 07 00  	mv	t4, a4
800056dc: 93 8f 07 00  	mv	t6, a5
800056e0: 0b 30 04 00  	vx_join	s0
800056e4: 13 84 03 00  	mv	s0, t2
800056e8: 93 84 06 00  	mv	s1, a3
800056ec: 0b b0 08 00  	vx_join	a7
800056f0: 8b 26 13 00  	vx_split_n	a3, t1
800056f4: 63 04 03 04  	beqz	t1, 0x8000573c <__muldf3+0x878>
800056f8: 33 e7 04 01  	or	a4, s1, a6
800056fc: b7 07 00 80  	lui	a5, 0x80000
80005700: b3 48 f5 00  	xor	a7, a0, a5
80005704: 33 b5 a7 00  	sltu	a0, a5, a0
80005708: 33 55 15 0f  	czero.eqz	a0, a0, a7
8000570c: b3 37 c0 00  	snez	a5, a2
80005710: b3 f7 17 0f  	czero.nez	a5, a5, a7
80005714: 33 e5 a7 00  	or	a0, a5, a0
80005718: 33 05 a4 00  	add	a0, s0, a0
8000571c: b3 37 85 00  	sltu	a5, a0, s0
80005720: 33 07 f7 00  	add	a4, a4, a5
80005724: 33 66 16 01  	or	a2, a2, a7
80005728: 13 36 16 00  	seqz	a2, a2
8000572c: 33 76 a6 00  	and	a2, a2, a0
80005730: b3 0e a6 00  	add	t4, a2, a0
80005734: b3 bf ce 00  	sltu	t6, t4, a2
80005738: b3 0f f7 01  	add	t6, a4, t6
8000573c: 0b b0 06 00  	vx_join	a3
80005740: 13 03 00 00  	li	t1, 0x0
80005744: 0b b0 02 00  	vx_join	t0
80005748: 0b 25 13 00  	vx_split_n	a0, t1
8000574c: 63 08 03 00  	beqz	t1, 0x8000575c <__muldf3+0x898>
80005750: 93 0e 00 00  	li	t4, 0x0
80005754: 37 06 f0 7f  	lui	a2, 0x7ff00
80005758: b3 6f c8 00  	or	t6, a6, a2
8000575c: 0b 30 05 00  	vx_join	a0
80005760: 13 87 0e 00  	mv	a4, t4
80005764: 93 87 0f 00  	mv	a5, t6
80005768: 0b b0 05 00  	vx_join	a1
8000576c: 13 05 07 00  	mv	a0, a4
80005770: 93 85 07 00  	mv	a1, a5
80005774: 83 20 c1 03  	lw	ra, 0x3c(sp)
80005778: 03 24 81 03  	lw	s0, 0x38(sp)
8000577c: 83 24 41 03  	lw	s1, 0x34(sp)
80005780: 03 29 01 03  	lw	s2, 0x30(sp)
80005784: 83 29 c1 02  	lw	s3, 0x2c(sp)
80005788: 03 2a 81 02  	lw	s4, 0x28(sp)
8000578c: 83 2a 41 02  	lw	s5, 0x24(sp)
80005790: 03 2b 01 02  	lw	s6, 0x20(sp)
80005794: 83 2b c1 01  	lw	s7, 0x1c(sp)
80005798: 03 2c 81 01  	lw	s8, 0x18(sp)
8000579c: 83 2c 41 01  	lw	s9, 0x14(sp)
800057a0: 03 2d 01 01  	lw	s10, 0x10(sp)
800057a4: 83 2d c1 00  	lw	s11, 0xc(sp)
800057a8: 13 01 01 04  	addi	sp, sp, 0x40
800057ac: 67 80 00 00  	ret

800057b0 <__subdf3>:
800057b0: 37 07 00 80  	lui	a4, 0x80000
800057b4: b3 c6 e6 00  	xor	a3, a3, a4
800057b8: 6f d0 df c7  	j	0x80003434 <__adddf3>

800057bc <__udivdi3>:
800057bc: 33 67 d6 00  	or	a4, a2, a3
800057c0: b3 37 e0 00  	snez	a5, a4
800057c4: 0b a7 17 00  	vx_split_n	a4, a5
800057c8: 13 08 00 04  	li	a6, 0x40
800057cc: 63 86 07 0e  	beqz	a5, 0x800058b8 <__udivdi3+0xfc>
800057d0: 93 57 16 00  	srli	a5, a2, 0x1
800057d4: b3 67 f6 00  	or	a5, a2, a5
800057d8: 13 d8 27 00  	srli	a6, a5, 0x2
800057dc: b3 e7 07 01  	or	a5, a5, a6
800057e0: 13 d8 47 00  	srli	a6, a5, 0x4
800057e4: b3 e7 07 01  	or	a5, a5, a6
800057e8: 13 d8 87 00  	srli	a6, a5, 0x8
800057ec: b3 e7 07 01  	or	a5, a5, a6
800057f0: 13 d8 07 01  	srli	a6, a5, 0x10
800057f4: b3 e7 07 01  	or	a5, a5, a6
800057f8: 93 c7 f7 ff  	not	a5, a5
800057fc: 13 d8 17 00  	srli	a6, a5, 0x1
80005800: b7 58 55 55  	lui	a7, 0x55555
80005804: 93 88 58 55  	addi	a7, a7, 0x555
80005808: 33 78 18 01  	and	a6, a6, a7
8000580c: b3 87 07 41  	sub	a5, a5, a6
80005810: 37 38 33 33  	lui	a6, 0x33333
80005814: 13 08 38 33  	addi	a6, a6, 0x333
80005818: b3 f2 07 01  	and	t0, a5, a6
8000581c: 93 d7 27 00  	srli	a5, a5, 0x2
80005820: b3 f7 07 01  	and	a5, a5, a6
80005824: b3 87 f2 00  	add	a5, t0, a5
80005828: 93 d2 47 00  	srli	t0, a5, 0x4
8000582c: b3 87 57 00  	add	a5, a5, t0
80005830: b7 12 0f 0f  	lui	t0, 0xf0f1
80005834: 93 82 f2 f0  	addi	t0, t0, -0xf1
80005838: b3 f7 57 00  	and	a5, a5, t0
8000583c: 37 03 01 01  	lui	t1, 0x1010
80005840: 13 03 13 10  	addi	t1, t1, 0x101
80005844: b3 87 67 02  	mul	a5, a5, t1
80005848: 93 d7 87 01  	srli	a5, a5, 0x18
8000584c: 93 87 07 02  	addi	a5, a5, 0x20
80005850: b3 f7 d7 0e  	czero.nez	a5, a5, a3
80005854: 93 d3 16 00  	srli	t2, a3, 0x1
80005858: b3 e3 76 00  	or	t2, a3, t2
8000585c: 13 de 23 00  	srli	t3, t2, 0x2
80005860: b3 e3 c3 01  	or	t2, t2, t3
80005864: 13 de 43 00  	srli	t3, t2, 0x4
80005868: b3 e3 c3 01  	or	t2, t2, t3
8000586c: 13 de 83 00  	srli	t3, t2, 0x8
80005870: b3 e3 c3 01  	or	t2, t2, t3
80005874: 13 de 03 01  	srli	t3, t2, 0x10
80005878: b3 e3 c3 01  	or	t2, t2, t3
8000587c: 93 c3 f3 ff  	not	t2, t2
80005880: 13 de 13 00  	srli	t3, t2, 0x1
80005884: b3 78 1e 01  	and	a7, t3, a7
80005888: b3 88 13 41  	sub	a7, t2, a7
8000588c: b3 f3 08 01  	and	t2, a7, a6
80005890: 93 d8 28 00  	srli	a7, a7, 0x2
80005894: 33 f8 08 01  	and	a6, a7, a6
80005898: 33 88 03 01  	add	a6, t2, a6
8000589c: 93 58 48 00  	srli	a7, a6, 0x4
800058a0: 33 08 18 01  	add	a6, a6, a7
800058a4: 33 78 58 00  	and	a6, a6, t0
800058a8: 33 08 68 02  	mul	a6, a6, t1
800058ac: 13 58 88 01  	srli	a6, a6, 0x18
800058b0: 33 58 d8 0e  	czero.eqz	a6, a6, a3
800058b4: 33 68 f8 00  	or	a6, a6, a5
800058b8: 0b 30 07 00  	vx_join	a4
800058bc: 33 67 b5 00  	or	a4, a0, a1
800058c0: b3 37 e0 00  	snez	a5, a4
800058c4: 0b a7 17 00  	vx_split_n	a4, a5
800058c8: 13 03 00 04  	li	t1, 0x40
800058cc: 93 52 15 00  	srli	t0, a0, 0x1
800058d0: 63 84 07 0e  	beqz	a5, 0x800059b8 <__udivdi3+0x1fc>
800058d4: b3 67 55 00  	or	a5, a0, t0
800058d8: 93 d8 27 00  	srli	a7, a5, 0x2
800058dc: b3 e7 17 01  	or	a5, a5, a7
800058e0: 93 d8 47 00  	srli	a7, a5, 0x4
800058e4: b3 e7 17 01  	or	a5, a5, a7
800058e8: 93 d8 87 00  	srli	a7, a5, 0x8
800058ec: b3 e7 17 01  	or	a5, a5, a7
800058f0: 93 d8 07 01  	srli	a7, a5, 0x10
800058f4: b3 e7 17 01  	or	a5, a5, a7
800058f8: 93 c7 f7 ff  	not	a5, a5
800058fc: 93 d8 17 00  	srli	a7, a5, 0x1
80005900: 37 53 55 55  	lui	t1, 0x55555
80005904: 13 03 53 55  	addi	t1, t1, 0x555
80005908: b3 f8 68 00  	and	a7, a7, t1
8000590c: b3 87 17 41  	sub	a5, a5, a7
80005910: b7 38 33 33  	lui	a7, 0x33333
80005914: 93 88 38 33  	addi	a7, a7, 0x333
80005918: b3 f3 17 01  	and	t2, a5, a7
8000591c: 93 d7 27 00  	srli	a5, a5, 0x2
80005920: b3 f7 17 01  	and	a5, a5, a7
80005924: b3 87 f3 00  	add	a5, t2, a5
80005928: 93 d3 47 00  	srli	t2, a5, 0x4
8000592c: b3 87 77 00  	add	a5, a5, t2
80005930: b7 13 0f 0f  	lui	t2, 0xf0f1
80005934: 93 83 f3 f0  	addi	t2, t2, -0xf1
80005938: b3 f7 77 00  	and	a5, a5, t2
8000593c: 37 0e 01 01  	lui	t3, 0x1010
80005940: 13 0e 1e 10  	addi	t3, t3, 0x101
80005944: b3 87 c7 03  	mul	a5, a5, t3
80005948: 93 d7 87 01  	srli	a5, a5, 0x18
8000594c: 93 87 07 02  	addi	a5, a5, 0x20
80005950: b3 f7 b7 0e  	czero.nez	a5, a5, a1
80005954: 93 de 15 00  	srli	t4, a1, 0x1
80005958: b3 ee d5 01  	or	t4, a1, t4
8000595c: 13 df 2e 00  	srli	t5, t4, 0x2
80005960: b3 ee ee 01  	or	t4, t4, t5
80005964: 13 df 4e 00  	srli	t5, t4, 0x4
80005968: b3 ee ee 01  	or	t4, t4, t5
8000596c: 13 df 8e 00  	srli	t5, t4, 0x8
80005970: b3 ee ee 01  	or	t4, t4, t5
80005974: 13 df 0e 01  	srli	t5, t4, 0x10
80005978: b3 ee ee 01  	or	t4, t4, t5
8000597c: 93 ce fe ff  	not	t4, t4
80005980: 13 df 1e 00  	srli	t5, t4, 0x1
80005984: 33 73 6f 00  	and	t1, t5, t1
80005988: 33 83 6e 40  	sub	t1, t4, t1
8000598c: b3 7e 13 01  	and	t4, t1, a7
80005990: 13 53 23 00  	srli	t1, t1, 0x2
80005994: b3 78 13 01  	and	a7, t1, a7
80005998: b3 88 1e 01  	add	a7, t4, a7
8000599c: 13 d3 48 00  	srli	t1, a7, 0x4
800059a0: b3 88 68 00  	add	a7, a7, t1
800059a4: b3 f8 78 00  	and	a7, a7, t2
800059a8: b3 88 c8 03  	mul	a7, a7, t3
800059ac: 93 d8 88 01  	srli	a7, a7, 0x18
800059b0: b3 d8 b8 0e  	czero.eqz	a7, a7, a1
800059b4: 33 e3 f8 00  	or	t1, a7, a5
800059b8: 0b 30 07 00  	vx_join	a4
800059bc: 13 07 00 00  	li	a4, 0x0
800059c0: 93 07 00 00  	li	a5, 0x0
800059c4: b3 03 68 40  	sub	t2, a6, t1
800059c8: 13 be 03 04  	sltiu	t3, t2, 0x40
800059cc: 8b 28 1e 00  	vx_split_n	a7, t3
800059d0: 63 00 0e 14  	beqz	t3, 0x80005b10 <__udivdi3+0x354>
800059d4: 13 87 13 fc  	addi	a4, t2, -0x3f
800059d8: b3 37 e0 00  	snez	a5, a4
800059dc: 0b a7 17 00  	vx_split_n	a4, a5
800059e0: 63 82 07 12  	beqz	a5, 0x80005b04 <__udivdi3+0x348>
800059e4: 13 01 01 ff  	addi	sp, sp, -0x10
800059e8: 23 26 81 00  	sw	s0, 0xc(sp)
800059ec: 93 07 00 00  	li	a5, 0x0
800059f0: 13 0e 00 00  	li	t3, 0x0
800059f4: 13 8f 13 00  	addi	t5, t2, 0x1
800059f8: b3 5e e5 01  	srl	t4, a0, t5
800059fc: 93 0f e0 01  	li	t6, 0x1e
80005a00: b3 8f 7f 40  	sub	t6, t6, t2
80005a04: 13 94 15 00  	slli	s0, a1, 0x1
80005a08: b3 1f f4 01  	sll	t6, s0, t6
80005a0c: b3 ee fe 01  	or	t4, t4, t6
80005a10: 93 8f 13 fe  	addi	t6, t2, -0x1f
80005a14: 13 a4 0f 00  	slti	s0, t6, 0x0
80005a18: b3 de 8e 0e  	czero.eqz	t4, t4, s0
80005a1c: b3 df f5 01  	srl	t6, a1, t6
80005a20: b3 ff 8f 0e  	czero.nez	t6, t6, s0
80005a24: b3 ee fe 01  	or	t4, t4, t6
80005a28: 33 df e5 01  	srl	t5, a1, t5
80005a2c: 33 5f 8f 0e  	czero.eqz	t5, t5, s0
80005a30: 93 c3 f3 03  	xori	t2, t2, 0x3f
80005a34: 93 cf f3 ff  	not	t6, t2
80005a38: b3 d2 f2 01  	srl	t0, t0, t6
80005a3c: b3 95 75 00  	sll	a1, a1, t2
80005a40: b3 e5 55 00  	or	a1, a1, t0
80005a44: 93 82 03 fe  	addi	t0, t2, -0x20
80005a48: 93 a2 02 00  	slti	t0, t0, 0x0
80005a4c: b3 d5 55 0e  	czero.eqz	a1, a1, t0
80005a50: 33 15 75 00  	sll	a0, a0, t2
80005a54: b3 73 55 0e  	czero.nez	t2, a0, t0
80005a58: b3 e5 75 00  	or	a1, a1, t2
80005a5c: 33 55 55 0e  	czero.eqz	a0, a0, t0
80005a60: 13 48 f8 ff  	not	a6, a6
80005a64: 33 03 68 00  	add	t1, a6, t1
80005a68: 73 28 40 cc  	csrr	a6, tmask
80005a6c: 03 24 c1 00  	lw	s0, 0xc(sp)
80005a70: 13 01 01 01  	addi	sp, sp, 0x10
80005a74: 93 92 1e 00  	slli	t0, t4, 0x1
80005a78: 93 d3 f5 01  	srli	t2, a1, 0x1f
80005a7c: b3 e2 72 00  	or	t0, t0, t2
80005a80: 93 d3 fe 01  	srli	t2, t4, 0x1f
80005a84: 13 1f 1f 00  	slli	t5, t5, 0x1
80005a88: b3 63 7f 00  	or	t2, t5, t2
80005a8c: 93 5e f5 01  	srli	t4, a0, 0x1f
80005a90: 93 95 15 00  	slli	a1, a1, 0x1
80005a94: b3 e5 d5 01  	or	a1, a1, t4
80005a98: 13 15 15 00  	slli	a0, a0, 0x1
80005a9c: 33 65 f5 00  	or	a0, a0, a5
80005aa0: b3 e5 c5 01  	or	a1, a1, t3
80005aa4: 93 c7 f3 ff  	not	a5, t2
80005aa8: 13 ce f2 ff  	not	t3, t0
80005aac: b3 0e ce 00  	add	t4, t3, a2
80005ab0: 33 be ce 01  	sltu	t3, t4, t3
80005ab4: b3 87 d7 00  	add	a5, a5, a3
80005ab8: 33 8e c7 01  	add	t3, a5, t3
80005abc: 93 57 fe 01  	srli	a5, t3, 0x1f
80005ac0: 13 5e fe 41  	srai	t3, t3, 0x1f
80005ac4: b3 7e de 00  	and	t4, t3, a3
80005ac8: 33 7e ce 00  	and	t3, t3, a2
80005acc: 33 bf c2 01  	sltu	t5, t0, t3
80005ad0: b3 83 d3 41  	sub	t2, t2, t4
80005ad4: 33 8f e3 41  	sub	t5, t2, t5
80005ad8: b3 8e c2 41  	sub	t4, t0, t3
80005adc: 13 03 13 00  	addi	t1, t1, 0x1
80005ae0: 93 32 13 00  	seqz	t0, t1
80005ae4: 8b d0 02 01  	vx_pred_n	t0, a6
80005ae8: 13 0e 00 00  	li	t3, 0x0
80005aec: e3 84 02 f8  	beqz	t0, 0x80005a74 <__udivdi3+0x2b8>
80005af0: 13 56 f5 01  	srli	a2, a0, 0x1f
80005af4: 93 95 15 00  	slli	a1, a1, 0x1
80005af8: b3 e5 c5 00  	or	a1, a1, a2
80005afc: 13 15 15 00  	slli	a0, a0, 0x1
80005b00: 33 e5 a7 00  	or	a0, a5, a0
80005b04: 0b 30 07 00  	vx_join	a4
80005b08: 13 07 05 00  	mv	a4, a0
80005b0c: 93 87 05 00  	mv	a5, a1
80005b10: 0b b0 08 00  	vx_join	a7
80005b14: 13 05 07 00  	mv	a0, a4
80005b18: 93 85 07 00  	mv	a1, a5
80005b1c: 67 80 00 00  	ret

80005b20 <__umoddi3>:
80005b20: 33 67 d6 00  	or	a4, a2, a3
80005b24: 33 38 e0 00  	snez	a6, a4
80005b28: 8b 27 18 00  	vx_split_n	a5, a6
80005b2c: 13 07 00 04  	li	a4, 0x40
80005b30: 63 06 08 0e  	beqz	a6, 0x80005c1c <__umoddi3+0xfc>
80005b34: 13 57 16 00  	srli	a4, a2, 0x1
80005b38: 33 67 e6 00  	or	a4, a2, a4
80005b3c: 13 58 27 00  	srli	a6, a4, 0x2
80005b40: 33 67 07 01  	or	a4, a4, a6
80005b44: 13 58 47 00  	srli	a6, a4, 0x4
80005b48: 33 67 07 01  	or	a4, a4, a6
80005b4c: 13 58 87 00  	srli	a6, a4, 0x8
80005b50: 33 67 07 01  	or	a4, a4, a6
80005b54: 13 58 07 01  	srli	a6, a4, 0x10
80005b58: 33 67 07 01  	or	a4, a4, a6
80005b5c: 13 47 f7 ff  	not	a4, a4
80005b60: 13 58 17 00  	srli	a6, a4, 0x1
80005b64: b7 58 55 55  	lui	a7, 0x55555
80005b68: 93 88 58 55  	addi	a7, a7, 0x555
80005b6c: 33 78 18 01  	and	a6, a6, a7
80005b70: 33 07 07 41  	sub	a4, a4, a6
80005b74: 37 38 33 33  	lui	a6, 0x33333
80005b78: 13 08 38 33  	addi	a6, a6, 0x333
80005b7c: b3 72 07 01  	and	t0, a4, a6
80005b80: 13 57 27 00  	srli	a4, a4, 0x2
80005b84: 33 77 07 01  	and	a4, a4, a6
80005b88: 33 87 e2 00  	add	a4, t0, a4
80005b8c: 93 52 47 00  	srli	t0, a4, 0x4
80005b90: 33 07 57 00  	add	a4, a4, t0
80005b94: b7 12 0f 0f  	lui	t0, 0xf0f1
80005b98: 93 82 f2 f0  	addi	t0, t0, -0xf1
80005b9c: 33 77 57 00  	and	a4, a4, t0
80005ba0: 37 03 01 01  	lui	t1, 0x1010
80005ba4: 13 03 13 10  	addi	t1, t1, 0x101
80005ba8: 33 07 67 02  	mul	a4, a4, t1
80005bac: 13 57 87 01  	srli	a4, a4, 0x18
80005bb0: 13 07 07 02  	addi	a4, a4, 0x20
80005bb4: 33 77 d7 0e  	czero.nez	a4, a4, a3
80005bb8: 93 d3 16 00  	srli	t2, a3, 0x1
80005bbc: b3 e3 76 00  	or	t2, a3, t2
80005bc0: 13 de 23 00  	srli	t3, t2, 0x2
80005bc4: b3 e3 c3 01  	or	t2, t2, t3
80005bc8: 13 de 43 00  	srli	t3, t2, 0x4
80005bcc: b3 e3 c3 01  	or	t2, t2, t3
80005bd0: 13 de 83 00  	srli	t3, t2, 0x8
80005bd4: b3 e3 c3 01  	or	t2, t2, t3
80005bd8: 13 de 03 01  	srli	t3, t2, 0x10
80005bdc: b3 e3 c3 01  	or	t2, t2, t3
80005be0: 93 c3 f3 ff  	not	t2, t2
80005be4: 13 de 13 00  	srli	t3, t2, 0x1
80005be8: b3 78 1e 01  	and	a7, t3, a7
80005bec: b3 88 13 41  	sub	a7, t2, a7
80005bf0: b3 f3 08 01  	and	t2, a7, a6
80005bf4: 93 d8 28 00  	srli	a7, a7, 0x2
80005bf8: 33 f8 08 01  	and	a6, a7, a6
80005bfc: 33 88 03 01  	add	a6, t2, a6
80005c00: 93 58 48 00  	srli	a7, a6, 0x4
80005c04: 33 08 18 01  	add	a6, a6, a7
80005c08: 33 78 58 00  	and	a6, a6, t0
80005c0c: 33 08 68 02  	mul	a6, a6, t1
80005c10: 13 58 88 01  	srli	a6, a6, 0x18
80005c14: 33 58 d8 0e  	czero.eqz	a6, a6, a3
80005c18: 33 67 e8 00  	or	a4, a6, a4
80005c1c: 0b b0 07 00  	vx_join	a5
80005c20: b3 67 b5 00  	or	a5, a0, a1
80005c24: b3 38 f0 00  	snez	a7, a5
80005c28: 8b a7 18 00  	vx_split_n	a5, a7
80005c2c: 93 02 00 04  	li	t0, 0x40
80005c30: 13 58 15 00  	srli	a6, a0, 0x1
80005c34: 63 84 08 0e  	beqz	a7, 0x80005d1c <__umoddi3+0x1fc>
80005c38: b3 68 05 01  	or	a7, a0, a6
80005c3c: 93 d2 28 00  	srli	t0, a7, 0x2
80005c40: b3 e8 58 00  	or	a7, a7, t0
80005c44: 93 d2 48 00  	srli	t0, a7, 0x4
80005c48: b3 e8 58 00  	or	a7, a7, t0
80005c4c: 93 d2 88 00  	srli	t0, a7, 0x8
80005c50: b3 e8 58 00  	or	a7, a7, t0
80005c54: 93 d2 08 01  	srli	t0, a7, 0x10
80005c58: b3 e8 58 00  	or	a7, a7, t0
80005c5c: 93 c8 f8 ff  	not	a7, a7
80005c60: 93 d2 18 00  	srli	t0, a7, 0x1
80005c64: 37 53 55 55  	lui	t1, 0x55555
80005c68: 13 03 53 55  	addi	t1, t1, 0x555
80005c6c: b3 f2 62 00  	and	t0, t0, t1
80005c70: b3 88 58 40  	sub	a7, a7, t0
80005c74: b7 32 33 33  	lui	t0, 0x33333
80005c78: 93 82 32 33  	addi	t0, t0, 0x333
80005c7c: b3 f3 58 00  	and	t2, a7, t0
80005c80: 93 d8 28 00  	srli	a7, a7, 0x2
80005c84: b3 f8 58 00  	and	a7, a7, t0
80005c88: b3 88 13 01  	add	a7, t2, a7
80005c8c: 93 d3 48 00  	srli	t2, a7, 0x4
80005c90: b3 88 78 00  	add	a7, a7, t2
80005c94: b7 13 0f 0f  	lui	t2, 0xf0f1
80005c98: 93 83 f3 f0  	addi	t2, t2, -0xf1
80005c9c: b3 f8 78 00  	and	a7, a7, t2
80005ca0: 37 0e 01 01  	lui	t3, 0x1010
80005ca4: 13 0e 1e 10  	addi	t3, t3, 0x101
80005ca8: b3 88 c8 03  	mul	a7, a7, t3
80005cac: 93 d8 88 01  	srli	a7, a7, 0x18
80005cb0: 93 88 08 02  	addi	a7, a7, 0x20
80005cb4: b3 f8 b8 0e  	czero.nez	a7, a7, a1
80005cb8: 93 de 15 00  	srli	t4, a1, 0x1
80005cbc: b3 ee d5 01  	or	t4, a1, t4
80005cc0: 13 df 2e 00  	srli	t5, t4, 0x2
80005cc4: b3 ee ee 01  	or	t4, t4, t5
80005cc8: 13 df 4e 00  	srli	t5, t4, 0x4
80005ccc: b3 ee ee 01  	or	t4, t4, t5
80005cd0: 13 df 8e 00  	srli	t5, t4, 0x8
80005cd4: b3 ee ee 01  	or	t4, t4, t5
80005cd8: 13 df 0e 01  	srli	t5, t4, 0x10
80005cdc: b3 ee ee 01  	or	t4, t4, t5
80005ce0: 93 ce fe ff  	not	t4, t4
80005ce4: 13 df 1e 00  	srli	t5, t4, 0x1
80005ce8: 33 73 6f 00  	and	t1, t5, t1
80005cec: 33 83 6e 40  	sub	t1, t4, t1
80005cf0: b3 7e 53 00  	and	t4, t1, t0
80005cf4: 13 53 23 00  	srli	t1, t1, 0x2
80005cf8: b3 72 53 00  	and	t0, t1, t0
80005cfc: b3 82 5e 00  	add	t0, t4, t0
80005d00: 13 d3 42 00  	srli	t1, t0, 0x4
80005d04: b3 82 62 00  	add	t0, t0, t1
80005d08: b3 f2 72 00  	and	t0, t0, t2
80005d0c: b3 82 c2 03  	mul	t0, t0, t3
80005d10: 93 d2 82 01  	srli	t0, t0, 0x18
80005d14: b3 d2 b2 0e  	czero.eqz	t0, t0, a1
80005d18: b3 e2 12 01  	or	t0, t0, a7
80005d1c: 0b b0 07 00  	vx_join	a5
80005d20: b3 03 57 40  	sub	t2, a4, t0
80005d24: 93 b8 03 04  	sltiu	a7, t2, 0x40
80005d28: 8b a7 18 00  	vx_split_n	a5, a7
80005d2c: 63 8a 08 12  	beqz	a7, 0x80005e60 <__umoddi3+0x340>
80005d30: 93 0e 00 00  	li	t4, 0x0
80005d34: 13 0f 00 00  	li	t5, 0x0
80005d38: 93 88 13 fc  	addi	a7, t2, -0x3f
80005d3c: 33 33 10 01  	snez	t1, a7
80005d40: 8b 28 13 00  	vx_split_n	a7, t1
80005d44: 63 08 03 10  	beqz	t1, 0x80005e54 <__umoddi3+0x334>
80005d48: 13 01 01 ff  	addi	sp, sp, -0x10
80005d4c: 23 26 81 00  	sw	s0, 0xc(sp)
80005d50: 13 03 00 00  	li	t1, 0x0
80005d54: 13 0e 00 00  	li	t3, 0x0
80005d58: 13 8f 13 00  	addi	t5, t2, 0x1
80005d5c: b3 5e e5 01  	srl	t4, a0, t5
80005d60: 93 0f e0 01  	li	t6, 0x1e
80005d64: b3 8f 7f 40  	sub	t6, t6, t2
80005d68: 13 94 15 00  	slli	s0, a1, 0x1
80005d6c: b3 1f f4 01  	sll	t6, s0, t6
80005d70: b3 ee fe 01  	or	t4, t4, t6
80005d74: 93 8f 13 fe  	addi	t6, t2, -0x1f
80005d78: 13 a4 0f 00  	slti	s0, t6, 0x0
80005d7c: b3 de 8e 0e  	czero.eqz	t4, t4, s0
80005d80: b3 df f5 01  	srl	t6, a1, t6
80005d84: b3 ff 8f 0e  	czero.nez	t6, t6, s0
80005d88: b3 ee fe 01  	or	t4, t4, t6
80005d8c: 33 df e5 01  	srl	t5, a1, t5
80005d90: 33 5f 8f 0e  	czero.eqz	t5, t5, s0
80005d94: 93 c3 f3 03  	xori	t2, t2, 0x3f
80005d98: 93 cf f3 ff  	not	t6, t2
80005d9c: 33 58 f8 01  	srl	a6, a6, t6
80005da0: b3 95 75 00  	sll	a1, a1, t2
80005da4: b3 e5 05 01  	or	a1, a1, a6
80005da8: 13 88 03 fe  	addi	a6, t2, -0x20
80005dac: 93 2f 08 00  	slti	t6, a6, 0x0
80005db0: b3 d5 f5 0f  	czero.eqz	a1, a1, t6
80005db4: 33 15 75 00  	sll	a0, a0, t2
80005db8: 33 78 f5 0f  	czero.nez	a6, a0, t6
80005dbc: 33 e8 05 01  	or	a6, a1, a6
80005dc0: 33 55 f5 0f  	czero.eqz	a0, a0, t6
80005dc4: 93 45 f7 ff  	not	a1, a4
80005dc8: b3 82 55 00  	add	t0, a1, t0
80005dcc: f3 25 40 cc  	csrr	a1, tmask
80005dd0: 03 24 c1 00  	lw	s0, 0xc(sp)
80005dd4: 13 01 01 01  	addi	sp, sp, 0x10
80005dd8: 13 97 1e 00  	slli	a4, t4, 0x1
80005ddc: 93 53 f8 01  	srli	t2, a6, 0x1f
80005de0: 33 67 77 00  	or	a4, a4, t2
80005de4: 93 d3 fe 01  	srli	t2, t4, 0x1f
80005de8: 13 1f 1f 00  	slli	t5, t5, 0x1
80005dec: b3 63 7f 00  	or	t2, t5, t2
80005df0: 93 5e f5 01  	srli	t4, a0, 0x1f
80005df4: 13 18 18 00  	slli	a6, a6, 0x1
80005df8: 33 68 d8 01  	or	a6, a6, t4
80005dfc: 13 15 15 00  	slli	a0, a0, 0x1
80005e00: 33 65 65 00  	or	a0, a0, t1
80005e04: 33 68 c8 01  	or	a6, a6, t3
80005e08: 13 c3 f3 ff  	not	t1, t2
80005e0c: 13 4e f7 ff  	not	t3, a4
80005e10: b3 0e ce 00  	add	t4, t3, a2
80005e14: 33 be ce 01  	sltu	t3, t4, t3
80005e18: 33 03 d3 00  	add	t1, t1, a3
80005e1c: 33 0e c3 01  	add	t3, t1, t3
80005e20: 13 53 fe 01  	srli	t1, t3, 0x1f
80005e24: 13 5e fe 41  	srai	t3, t3, 0x1f
80005e28: b3 7e de 00  	and	t4, t3, a3
80005e2c: 33 7e ce 00  	and	t3, t3, a2
80005e30: 33 3f c7 01  	sltu	t5, a4, t3
80005e34: b3 83 d3 41  	sub	t2, t2, t4
80005e38: 33 8f e3 41  	sub	t5, t2, t5
80005e3c: b3 0e c7 41  	sub	t4, a4, t3
80005e40: 93 82 12 00  	addi	t0, t0, 0x1
80005e44: 13 b7 12 00  	seqz	a4, t0
80005e48: 8b 50 b7 00  	vx_pred_n	a4, a1
80005e4c: 13 0e 00 00  	li	t3, 0x0
80005e50: e3 04 07 f8  	beqz	a4, 0x80005dd8 <__umoddi3+0x2b8>
80005e54: 0b b0 08 00  	vx_join	a7
80005e58: 13 85 0e 00  	mv	a0, t4
80005e5c: 93 05 0f 00  	mv	a1, t5
80005e60: 0b b0 07 00  	vx_join	a5
80005e64: 67 80 00 00  	ret

80005e68 <__fe_getround>:
80005e68: 13 05 00 00  	li	a0, 0x0
80005e6c: 73 26 20 00  	frrm	a2
80005e70: 13 06 f6 ff  	addi	a2, a2, -0x1
80005e74: 93 36 36 00  	sltiu	a3, a2, 0x3
80005e78: 8b a5 16 00  	vx_split_n	a1, a3
80005e7c: 63 8c 06 00  	beqz	a3, 0x80005e94 <__fe_getround+0x2c>
80005e80: 13 16 26 00  	slli	a2, a2, 0x2
80005e84: 17 05 00 00  	auipc	a0, 0x0
80005e88: 13 05 c5 25  	addi	a0, a0, 0x25c
80005e8c: 33 05 c5 00  	add	a0, a0, a2
80005e90: 03 25 05 00  	lw	a0, 0x0(a0)
80005e94: 0b b0 05 00  	vx_join	a1
80005e98: 67 80 00 00  	ret

80005e9c <__fe_raise_inexact>:
80005e9c: 73 e0 10 00  	csrsi	fflags, 0x1
80005ea0: 13 05 00 00  	li	a0, 0x0
80005ea4: 67 80 00 00  	ret

Disassembly of section .rodata:

80005ea8 <.rodata>:
80005ea8: 65 72        	<unknown>
80005eaa: 72 6f        	<unknown>
80005eac: 72 3a        	<unknown>
80005eae: 20 67        	<unknown>
80005eb0: 72 6f        	<unknown>
80005eb2: 75 70        	<unknown>
80005eb4: 5f 73 69 7a  	<unknown>
80005eb8: 65 20        	<unknown>
80005eba: 3e 20        	<unknown>
80005ebc: 74 68        	<unknown>
80005ebe: 72 65        	<unknown>
80005ec0: 61 64        	<unknown>
80005ec2: 73 5f 70 65  	csrrwi	t5, hviprio2h, 0x0
80005ec6: 72 5f        	<unknown>
80005ec8: 63 6f 72 65  	bltu	tp, s7, 0x80006526 <STARTUP_ADDR+0x6526>
80005ecc: 20 28        	<unknown>
80005ece: 25 64        	<unknown>
80005ed0: 2c 25        	<unknown>
80005ed2: 64 29        	<unknown>
80005ed4: 0a 00        	<unknown>
80005ed6: 00 00        	<unknown>
80005ed8: 66 6e        	<unknown>
80005eda: 69 2b        	<unknown>
80005edc: 00 00        	<unknown>
80005ede: 00 00        	<unknown>
80005ee0: 66 6e        	<unknown>
80005ee2: 69 00        	<unknown>
80005ee4: 6e 61        	<unknown>
80005ee6: 6e 00        	<unknown>
80005ee8: 66 6e        	<unknown>
80005eea: 69 2d        	<unknown>
80005eec: 00 00        	<unknown>
80005eee: 00 00        	<unknown>
80005ef0: 98 c1        	<unknown>
80005ef2: ff ff 14 c1  	<unknown>
80005ef6: ff ff 14 c1  	<unknown>
80005efa: ff ff 8c c1  	<unknown>
80005efe: ff ff 14 c1  	<unknown>
80005f02: ff ff 14 c1  	<unknown>
80005f06: ff ff 14 c1  	<unknown>
80005f0a: ff ff 14 c1  	<unknown>
80005f0e: ff ff 14 c1  	<unknown>
80005f12: ff ff 14 c1  	<unknown>
80005f16: ff ff 14 c1  	<unknown>
80005f1a: ff ff 80 c1  	<unknown>
80005f1e: ff ff 14 c1  	<unknown>
80005f22: ff ff 74 c1  	<unknown>
80005f26: ff ff 14 c1  	<unknown>
80005f2a: ff ff 14 c1  	<unknown>
80005f2e: ff ff 68 c1  	<unknown>
80005f32: ff ff f8 c3  	<unknown>
80005f36: ff ff 6c c1  	<unknown>
80005f3a: ff ff e8 c3  	<unknown>
80005f3e: ff ff 6c c1  	<unknown>
80005f42: ff ff cc c3  	<unknown>
80005f46: ff ff 6c c1  	<unknown>
80005f4a: ff ff 6c c1  	<unknown>
80005f4e: ff ff 6c c1  	<unknown>
80005f52: ff ff 6c c1  	<unknown>
80005f56: ff ff 6c c1  	<unknown>
80005f5a: ff ff 6c c1  	<unknown>
80005f5e: ff ff 6c c1  	<unknown>
80005f62: ff ff 60 c1  	<unknown>
80005f66: ff ff 6c c1  	<unknown>
80005f6a: ff ff 6c c1  	<unknown>
80005f6e: ff ff 6c c1  	<unknown>
80005f72: ff ff 6c c1  	<unknown>
80005f76: ff ff 6c c1  	<unknown>
80005f7a: ff ff 60 c1  	<unknown>
80005f7e: ff ff 00 c4  	<unknown>
80005f82: ff ff 34 c0  	<unknown>
80005f86: ff ff 34 c0  	<unknown>
80005f8a: ff ff 34 c0  	<unknown>
80005f8e: ff ff 34 c0  	<unknown>
80005f92: ff ff 34 c0  	<unknown>
80005f96: ff ff 34 c0  	<unknown>
80005f9a: ff ff 34 c0  	<unknown>
80005f9e: ff ff 34 c0  	<unknown>
80005fa2: ff ff 34 c0  	<unknown>
80005fa6: ff ff 34 c0  	<unknown>
80005faa: ff ff 34 c0  	<unknown>
80005fae: ff ff 34 c0  	<unknown>
80005fb2: ff ff 34 c0  	<unknown>
80005fb6: ff ff 34 c0  	<unknown>
80005fba: ff ff 34 c0  	<unknown>
80005fbe: ff ff 34 c0  	<unknown>
80005fc2: ff ff 34 c0  	<unknown>
80005fc6: ff ff 34 c0  	<unknown>
80005fca: ff ff 34 c0  	<unknown>
80005fce: ff ff 34 c0  	<unknown>
80005fd2: ff ff 34 c0  	<unknown>
80005fd6: ff ff 34 c0  	<unknown>
80005fda: ff ff 34 c0  	<unknown>
80005fde: ff ff 34 c0  	<unknown>
80005fe2: ff ff 34 c0  	<unknown>
80005fe6: ff ff 34 c0  	<unknown>
80005fea: ff ff 34 c0  	<unknown>
80005fee: ff ff 34 c0  	<unknown>
80005ff2: ff ff 34 c0  	<unknown>
80005ff6: ff ff 34 c0  	<unknown>
80005ffa: ff ff 34 c0  	<unknown>
80005ffe: ff ff 34 c3  	<unknown>
80006002: ff ff c4 c3  	<unknown>
80006006: ff ff 34 c3  	<unknown>
8000600a: ff ff 34 c0  	<unknown>
8000600e: ff ff 34 c0  	<unknown>
80006012: ff ff 34 c0  	<unknown>
80006016: ff ff 34 c0  	<unknown>
8000601a: ff ff 34 c0  	<unknown>
8000601e: ff ff 34 c0  	<unknown>
80006022: ff ff 34 c0  	<unknown>
80006026: ff ff 34 c0  	<unknown>
8000602a: ff ff 34 c0  	<unknown>
8000602e: ff ff 34 c0  	<unknown>
80006032: ff ff 34 c0  	<unknown>
80006036: ff ff 34 c0  	<unknown>
8000603a: ff ff 34 c0  	<unknown>
8000603e: ff ff 34 c0  	<unknown>
80006042: ff ff 34 c0  	<unknown>
80006046: ff ff 34 c0  	<unknown>
8000604a: ff ff 9c c5  	<unknown>
8000604e: ff ff 34 c0  	<unknown>
80006052: ff ff 34 c0  	<unknown>
80006056: ff ff 34 c0  	<unknown>
8000605a: ff ff 34 c0  	<unknown>
8000605e: ff ff 34 c0  	<unknown>
80006062: ff ff 34 c0  	<unknown>
80006066: ff ff 34 c0  	<unknown>
8000606a: ff ff 34 c0  	<unknown>
8000606e: ff ff 34 c0  	<unknown>
80006072: ff ff 9c c5  	<unknown>
80006076: ff ff 1c c4  	<unknown>
8000607a: ff ff 9c c5  	<unknown>
8000607e: ff ff 34 c3  	<unknown>
80006082: ff ff c4 c3  	<unknown>
80006086: ff ff 34 c3  	<unknown>
8000608a: ff ff 00 00  	<unknown>
8000608e: 00 00        	<unknown>

80006090 <pow10.0>:
80006090: 00 00        	<unknown>
80006092: 00 00        	<unknown>
80006094: 00 00        	<unknown>
80006096: f0 3f        	<unknown>
80006098: 00 00        	<unknown>
8000609a: 00 00        	<unknown>
8000609c: 00 00        	<unknown>
8000609e: 24 40        	<unknown>
800060a0: 00 00        	<unknown>
800060a2: 00 00        	<unknown>
800060a4: 00 00        	<unknown>
800060a6: 59 40        	<unknown>
800060a8: 00 00        	<unknown>
800060aa: 00 00        	<unknown>
800060ac: 00 40        	<unknown>
800060ae: 8f 40 00 00  	<unknown>
800060b2: 00 00        	<unknown>
800060b4: 00 88        	<unknown>
800060b6: c3 40 00 00  	fmadd.s	ft1, ft0, ft0, ft0, rmm
800060ba: 00 00        	<unknown>
800060bc: 00 6a        	<unknown>
800060be: f8 40        	<unknown>
800060c0: 00 00        	<unknown>
800060c2: 00 00        	<unknown>
800060c4: 80 84        	<unknown>
800060c6: 2e 41        	<unknown>
800060c8: 00 00        	<unknown>
800060ca: 00 00        	<unknown>
800060cc: d0 12        	<unknown>
800060ce: 63 41 00 00  	bltz	zero, 0x800060d0 <pow10.0+0x40>
800060d2: 00 00        	<unknown>
800060d4: 84 d7        	<unknown>
800060d6: 97 41 00 00  	auipc	gp, 0x4
800060da: 00 00        	<unknown>
800060dc: 65 cd        	<unknown>
800060de: cd 41        	<unknown>
800060e0: 03 00 00 00  	lb	zero, 0x0(zero)
800060e4: 01 00        	<unknown>
800060e6: 00 00        	<unknown>
800060e8: 02 00        	<unknown>
800060ea: 00 00        	<unknown>

Disassembly of section .eh_frame:

800060ec <.eh_frame>:
800060ec: 10 00        	<unknown>
800060ee: 00 00        	<unknown>
800060f0: 00 00        	<unknown>
800060f2: 00 00        	<unknown>
800060f4: 01 7a        	<unknown>
800060f6: 52 00        	<unknown>
800060f8: 01 7c        	<unknown>
800060fa: 01 01        	<unknown>
800060fc: 1b 0c 02 00  	<unknown>
80006100: 10 00        	<unknown>
80006102: 00 00        	<unknown>
80006104: 18 00        	<unknown>
80006106: 00 00        	<unknown>
80006108: 8c 9f        	<unknown>
8000610a: ff ff 94 01  	<unknown>
8000610e: 00 00        	<unknown>
80006110: 00 44        	<unknown>
80006112: 0e 10        	<unknown>
80006114: 10 00        	<unknown>
80006116: 00 00        	<unknown>
80006118: 2c 00        	<unknown>
8000611a: 00 00        	<unknown>
8000611c: 0c a1        	<unknown>
8000611e: ff ff 1c 00  	<unknown>
80006122: 00 00        	<unknown>
80006124: 00 00        	<unknown>
80006126: 00 00        	<unknown>
80006128: 2c 00        	<unknown>
8000612a: 00 00        	<unknown>
8000612c: 40 00        	<unknown>
8000612e: 00 00        	<unknown>
80006130: 04 d3        	<unknown>
80006132: ff ff 40 0b  	<unknown>
80006136: 00 00        	<unknown>
80006138: 00 44        	<unknown>
8000613a: 0e 50        	<unknown>
8000613c: 74 81        	<unknown>
8000613e: 01 88        	<unknown>
80006140: 02 89        	<unknown>
80006142: 03 92 04 93  	lh	tp, -0x6d0(s1)
80006146: 05 94        	<unknown>
80006148: 06 95        	<unknown>
8000614a: 07 96 08 97  	<unknown>
8000614e: 09 98        	<unknown>
80006150: 0a 99        	<unknown>
80006152: 0b 9a 0c 9b  	<unknown>
80006156: 0d 00        	<unknown>
80006158: 10 00        	<unknown>
8000615a: 00 00        	<unknown>
8000615c: 70 00        	<unknown>
8000615e: 00 00        	<unknown>
80006160: 14 de        	<unknown>
80006162: ff ff f8 00  	<unknown>
80006166: 00 00        	<unknown>
80006168: 00 00        	<unknown>
8000616a: 00 00        	<unknown>
8000616c: 10 00        	<unknown>
8000616e: 00 00        	<unknown>
80006170: 84 00        	<unknown>
80006172: 00 00        	<unknown>
80006174: f8 de        	<unknown>
80006176: ff ff f8 00  	<unknown>
8000617a: 00 00        	<unknown>
8000617c: 00 00        	<unknown>
8000617e: 00 00        	<unknown>
80006180: 2c 00        	<unknown>
80006182: 00 00        	<unknown>
80006184: 98 00        	<unknown>
80006186: 00 00        	<unknown>
80006188: dc df        	<unknown>
8000618a: ff ff fc 09  	<unknown>
8000618e: 00 00        	<unknown>
80006190: 00 44        	<unknown>
80006192: 0e 40        	<unknown>
80006194: 74 81        	<unknown>
80006196: 01 88        	<unknown>
80006198: 02 89        	<unknown>
8000619a: 03 92 04 93  	lh	tp, -0x6d0(s1)
8000619e: 05 94        	<unknown>
800061a0: 06 95        	<unknown>
800061a2: 07 96 08 97  	<unknown>
800061a6: 09 98        	<unknown>
800061a8: 0a 99        	<unknown>
800061aa: 0b 9a 0c 9b  	<unknown>
800061ae: 0d 00        	<unknown>
800061b0: 10 00        	<unknown>
800061b2: 00 00        	<unknown>
800061b4: c8 00        	<unknown>
800061b6: 00 00        	<unknown>
800061b8: a8 e9        	<unknown>
800061ba: ff ff d4 00  	<unknown>
800061be: 00 00        	<unknown>
800061c0: 00 00        	<unknown>
800061c2: 00 00        	<unknown>
800061c4: 10 00        	<unknown>
800061c6: 00 00        	<unknown>
800061c8: dc 00        	<unknown>
800061ca: 00 00        	<unknown>
800061cc: 68 ea        	<unknown>
800061ce: ff ff a0 00  	<unknown>
800061d2: 00 00        	<unknown>
800061d4: 00 00        	<unknown>
800061d6: 00 00        	<unknown>
800061d8: 10 00        	<unknown>
800061da: 00 00        	<unknown>
800061dc: f0 00        	<unknown>
800061de: 00 00        	<unknown>
800061e0: f4 ea        	<unknown>
800061e2: ff ff 04 01  	<unknown>
800061e6: 00 00        	<unknown>
800061e8: 00 00        	<unknown>
800061ea: 00 00        	<unknown>
800061ec: 10 00        	<unknown>
800061ee: 00 00        	<unknown>
800061f0: 04 01        	<unknown>
800061f2: 00 00        	<unknown>
800061f4: e4 eb        	<unknown>
800061f6: ff ff ec 00  	<unknown>
800061fa: 00 00        	<unknown>
800061fc: 00 00        	<unknown>
800061fe: 00 00        	<unknown>
80006200: 2c 00        	<unknown>
80006202: 00 00        	<unknown>
80006204: 18 01        	<unknown>
80006206: 00 00        	<unknown>
80006208: bc ec        	<unknown>
8000620a: ff ff ec 08  	<unknown>
8000620e: 00 00        	<unknown>
80006210: 00 44        	<unknown>
80006212: 0e 40        	<unknown>
80006214: 74 81        	<unknown>
80006216: 01 88        	<unknown>
80006218: 02 89        	<unknown>
8000621a: 03 92 04 93  	lh	tp, -0x6d0(s1)
8000621e: 05 94        	<unknown>
80006220: 06 95        	<unknown>
80006222: 07 96 08 97  	<unknown>
80006226: 09 98        	<unknown>
80006228: 0a 99        	<unknown>
8000622a: 0b 9a 0c 9b  	<unknown>
8000622e: 0d 00        	<unknown>
80006230: 10 00        	<unknown>
80006232: 00 00        	<unknown>
80006234: 48 01        	<unknown>
80006236: 00 00        	<unknown>
80006238: 78 f5        	<unknown>
8000623a: ff ff 0c 00  	<unknown>
8000623e: 00 00        	<unknown>
80006240: 00 00        	<unknown>
80006242: 00 00        	<unknown>
80006244: 18 00        	<unknown>
80006246: 00 00        	<unknown>
80006248: 5c 01        	<unknown>
8000624a: 00 00        	<unknown>
8000624c: 70 f5        	<unknown>
8000624e: ff ff 64 03  	<unknown>
80006252: 00 00        	<unknown>
80006254: 00 03        	<unknown>
80006256: 2c 02        	<unknown>
80006258: 0e 10        	<unknown>
8000625a: 44 88        	<unknown>
8000625c: 01 00        	<unknown>
8000625e: 00 00        	<unknown>
80006260: 18 00        	<unknown>
80006262: 00 00        	<unknown>
80006264: 78 01        	<unknown>
80006266: 00 00        	<unknown>
80006268: b8 f8        	<unknown>
8000626a: ff ff 48 03  	<unknown>
8000626e: 00 00        	<unknown>
80006270: 00 03        	<unknown>
80006272: 2c 02        	<unknown>
80006274: 0e 10        	<unknown>
80006276: 44 88        	<unknown>
80006278: 01 00        	<unknown>
8000627a: 00 00        	<unknown>
8000627c: 10 00        	<unknown>
8000627e: 00 00        	<unknown>
80006280: 94 01        	<unknown>
80006282: 00 00        	<unknown>
80006284: e4 fb        	<unknown>
80006286: ff ff 34 00  	<unknown>
8000628a: 00 00        	<unknown>
8000628c: 00 00        	<unknown>
8000628e: 00 00        	<unknown>
80006290: 10 00        	<unknown>
80006292: 00 00        	<unknown>
80006294: a8 01        	<unknown>
80006296: 00 00        	<unknown>
80006298: 04 fc        	<unknown>
8000629a: ff ff 0c 00  	<unknown>
8000629e: 00 00        	<unknown>
800062a0: 00 00        	<unknown>
800062a2: 00 00        	<unknown>

Disassembly of section .tbss:

800072a4 <__tbss_start>:
...

Disassembly of section .got:

800072a4 <.got>:
800072a4: ff ff ff ff  	<unknown>
800072a8: 00 00        	<unknown>
800072aa: 00 00        	<unknown>

800072ac <_GLOBAL_OFFSET_TABLE_>:
800072ac: 00 00        	<unknown>
800072ae: 00 00        	<unknown>
800072b0: 10 00        	<unknown>
800072b2: 00 00        	<unknown>
800072b4: a4 72        	<unknown>
800072b6: 00 80        	<unknown>
800072b8: a4 72        	<unknown>
800072ba: 00 80        	<unknown>

Disassembly of section .sdata:

800072c0 <__SDATA_BEGIN__>:
800072c0: ff ff ff ff  	<unknown>
800072c4: ff ff ef 7f  	<unknown>
800072c8: ff ff ff ff  	<unknown>
800072cc: ff ff ef ff  	<unknown>
800072d0: fb 79 9f 50  	<unknown>
800072d4: 13 44 d3 3f  	xori	s0, t1, 0x3fd
800072d8: b3 c8 60 8b  	<unknown>
800072dc: 28 8a        	<unknown>
800072de: c6 3f        	<unknown>
800072e0: 00 00        	<unknown>
800072e2: 00 00        	<unknown>
800072e4: 00 00        	<unknown>
800072e6: f8 3f        	<unknown>
800072e8: 61 43        	<unknown>
800072ea: 6f 63 a7 87  	jal	t1, 0x7ff7d364 <__tbss_size+0x7ff7d348>
800072ee: d2 3f        	<unknown>
800072f0: 71 a3        	<unknown>
800072f2: 79 09        	<unknown>
800072f4: 4f 93 0a 40  	fnmadd.s	ft6, fs5, ft0, fs0, rtz
800072f8: 00 00        	<unknown>
800072fa: 00 00        	<unknown>
800072fc: 00 00        	<unknown>
800072fe: e0 3f        	<unknown>
80007300: 16 55        	<unknown>
80007302: b5 bb        	<unknown>
80007304: b1 6b        	<unknown>
80007306: 02 40        	<unknown>
80007308: ef 39 fa fe  	jal	s3, 0x7ffab2f6 <__tbss_size+0x7ffab2da>
8000730c: 42 2e        	<unknown>
8000730e: e6 3f        	<unknown>
80007310: 00 00        	<unknown>
80007312: 00 00        	<unknown>
80007314: 00 00        	<unknown>
80007316: 2c 40        	<unknown>
80007318: 00 00        	<unknown>
8000731a: 00 00        	<unknown>
8000731c: 00 00        	<unknown>
8000731e: 24 40        	<unknown>
80007320: 00 00        	<unknown>
80007322: 00 00        	<unknown>
80007324: 00 00        	<unknown>
80007326: 18 40        	<unknown>
80007328: 00 00        	<unknown>
8000732a: 00 00        	<unknown>
8000732c: 00 00        	<unknown>
8000732e: 00 40        	<unknown>
80007330: 00 00        	<unknown>
80007332: 00 00        	<unknown>
80007334: 00 00        	<unknown>
80007336: f0 3f        	<unknown>
80007338: 2d 43        	<unknown>
8000733a: 1c eb        	<unknown>
8000733c: e2 36        	<unknown>
8000733e: 1a 3f        	<unknown>
80007340: 00 00        	<unknown>
80007342: 00 00        	<unknown>
80007344: 80 84        	<unknown>
80007346: 2e 41        	<unknown>
80007348: 00 00        	<unknown>
8000734a: 00 00        	<unknown>
8000734c: 65 cd        	<unknown>
8000734e: cd 41        	<unknown>
80007350: 00 00        	<unknown>
80007352: 00 00        	<unknown>
80007354: 65 cd        	<unknown>
80007356: cd c1        	<unknown>

Disassembly of section .sbss:

80007358 <__warps_per_group>:
...

Disassembly of section .bss:

8000735c <blockDim>:
...

80007368 <gridDim>:
...

Disassembly of section .comment:

00000000 <.comment>:
       0: 63 6c 61 6e  	bltu	sp, t1, 0x6f8 <.comment+0x6f8>
       4: 67 20 76 65  	<unknown>
       8: 72 73        	<unknown>
       a: 69 6f        	<unknown>
       c: 6e 20        	<unknown>
       e: 31 38        	<unknown>
      10: 2e 31        	<unknown>
      12: 2e 37        	<unknown>
      14: 20 28        	<unknown>
      16: 68 74        	<unknown>
      18: 74 70        	<unknown>
      1a: 73 3a 2f 2f  	csrrc	s4, 0x2f2, t5
      1e: 67 69 74 68  	<unknown>
      22: 75 62        	<unknown>
      24: 2e 63        	<unknown>
      26: 6f 6d 2f 76  	jal	s10, 0xf6788 <.comment+0xf6788>
      2a: 6f 72 74 65  	jal	tp, 0x47e80 <.comment+0x47e80>
      2e: 78 67        	<unknown>
      30: 70 67        	<unknown>
      32: 70 75        	<unknown>
      34: 2f 6c 6c 76  	<unknown>
      38: 6d 2e        	<unknown>
      3a: 67 69 74 20  	<unknown>
      3e: 63 32 35 31  	<unknown>
      42: 36 35        	<unknown>
      44: 37 37 63 62  	lui	a4, 0x62633
      48: 39 31        	<unknown>
      4a: 30 34        	<unknown>
      4c: 66 35        	<unknown>
      4e: 33 61 61 65  	<unknown>
      52: 66 30        	<unknown>
      54: 39 35        	<unknown>
      56: 63 31 63 33  	<unknown>
      5a: 61 31        	<unknown>
      5c: 64 32        	<unknown>
      5e: 35 31        	<unknown>
      60: 37 63 65 63  	lui	t1, 0x63656
      64: 33 36 29 00  	sltu	a2, s2, sp
      68: 47 43 43 3a  	<unknown>
      6c: 20 28        	<unknown>
      6e: 67 32 65 65  	<unknown>
      72: 35 65        	<unknown>
      74: 34 33        	<unknown>
      76: 30 30        	<unknown>
      78: 31 38        	<unknown>
      7a: 2d 64        	<unknown>
      7c: 69 72        	<unknown>
      7e: 74 79        	<unknown>
      80: 29 20        	<unknown>
      82: 31 32        	<unknown>
      84: 2e 32        	<unknown>
      86: 2e 30        	<unknown>
      88: 00 63        	<unknown>
      8a: 6c 61        	<unknown>
      8c: 6e 67        	<unknown>
      8e: 20 76        	<unknown>
      90: 65 72        	<unknown>
      92: 73 69 6f 6e  	csrrsi	s2, 0x6e6, 0x1e
      96: 20 31        	<unknown>
      98: 38 2e        	<unknown>
      9a: 31 2e        	<unknown>
      9c: 36 20        	<unknown>
      9e: 28 68        	<unknown>
      a0: 74 74        	<unknown>
      a2: 70 73        	<unknown>
      a4: 3a 2f        	<unknown>
      a6: 2f 67 69 74  	<unknown>
      aa: 68 75        	<unknown>
      ac: 62 2e        	<unknown>
      ae: 63 6f 6d 2f  	bltu	s10, s6, 0x3ac <.comment+0x3ac>
      b2: 6c 6c        	<unknown>
      b4: 76 6d        	<unknown>
      b6: 2f 6c 6c 76  	<unknown>
      ba: 6d 2d        	<unknown>
      bc: 70 72        	<unknown>
      be: 6f 6a 65 63  	jal	s4, 0x566f4 <.comment+0x566f4>
      c2: 74 2e        	<unknown>
      c4: 67 69 74 20  	<unknown>
      c8: 31 64        	<unknown>
      ca: 36 31        	<unknown>
      cc: 62 34        	<unknown>
      ce: 30 34        	<unknown>
      d0: 34 64        	<unknown>
      d2: 64 64        	<unknown>
      d4: 64 61        	<unknown>
      d6: 36 35        	<unknown>
      d8: 65 39        	<unknown>
      da: 38 65        	<unknown>
      dc: 37 39 32 38  	lui	s2, 0x38323
      e0: 66 64        	<unknown>
      e2: 33 39 35 65  	<unknown>
      e6: 36 61        	<unknown>
      e8: 39 35        	<unknown>
      ea: 31 63        	<unknown>
      ec: 35 61        	<unknown>
      ee: 38 66        	<unknown>
      f0: 29 00        	<unknown>

Disassembly of section .riscv.attributes:

00000000 <.riscv.attributes>:
       0: 41 4a        	<unknown>
       2: 00 00        	<unknown>
       4: 00 72        	<unknown>
       6: 69 73        	<unknown>
       8: 63 76 00 01  	bgeu	zero, a6, 0x14 <.comment+0x14>
       c: 40 00        	<unknown>
       e: 00 00        	<unknown>
      10: 04 10        	<unknown>
      12: 05 72        	<unknown>
      14: 76 33        	<unknown>
      16: 32 69        	<unknown>
      18: 32 70        	<unknown>
      1a: 31 5f        	<unknown>
      1c: 6d 32        	<unknown>
      1e: 70 30        	<unknown>
      20: 5f 61 32 70  	<unknown>
      24: 31 5f        	<unknown>
      26: 66 32        	<unknown>
      28: 70 32        	<unknown>
      2a: 5f 7a 69 63  	<unknown>
      2e: 6f 6e 64 31  	jal	t3, 0x46344 <.comment+0x46344>
      32: 70 30        	<unknown>
      34: 5f 7a 69 63  	<unknown>
      38: 73 72 32 70  	csrrci	tp, 0x703, 0x4
      3c: 30 5f        	<unknown>
      3e: 7a 6d        	<unknown>
      40: 6d 75        	<unknown>
      42: 6c 31        	<unknown>
      44: 70 30        	<unknown>
      46: 00 08        	<unknown>
      48: 01 0a        	<unknown>
      4a: 0b           	<unknown>

Disassembly of section .symtab:

00000000 <.symtab>:
		...
      14: 00 00        	<unknown>
      16: 00 80        	<unknown>
      18: 00 00        	<unknown>
      1a: 00 00        	<unknown>
      1c: 03 00 01 00  	lb	zero, 0x0(sp)
      20: 00 00        	<unknown>
      22: 00 00        	<unknown>
      24: 70 00        	<unknown>
      26: 00 80        	<unknown>
      28: 00 00        	<unknown>
      2a: 00 00        	<unknown>
      2c: 03 00 02 00  	lb	zero, 0x0(tp)
      30: 00 00        	<unknown>
      32: 00 00        	<unknown>
      34: a8 5e        	<unknown>
      36: 00 80        	<unknown>
      38: 00 00        	<unknown>
      3a: 00 00        	<unknown>
      3c: 03 00 03 00  	lb	zero, 0x0(t1)
      40: 00 00        	<unknown>
      42: 00 00        	<unknown>
      44: ec 60        	<unknown>
      46: 00 80        	<unknown>
      48: 00 00        	<unknown>
      4a: 00 00        	<unknown>
      4c: 03 00 04 00  	lb	zero, 0x0(s0)
      50: 00 00        	<unknown>
      52: 00 00        	<unknown>
      54: a4 72        	<unknown>
      56: 00 80        	<unknown>
      58: 00 00        	<unknown>
      5a: 00 00        	<unknown>
      5c: 03 00 05 00  	lb	zero, 0x0(a0)
      60: 00 00        	<unknown>
      62: 00 00        	<unknown>
      64: a4 72        	<unknown>
      66: 00 80        	<unknown>
      68: 00 00        	<unknown>
      6a: 00 00        	<unknown>
      6c: 03 00 06 00  	lb	zero, 0x0(a2)
      70: 00 00        	<unknown>
      72: 00 00        	<unknown>
      74: c0 72        	<unknown>
      76: 00 80        	<unknown>
      78: 00 00        	<unknown>
      7a: 00 00        	<unknown>
      7c: 03 00 07 00  	lb	zero, 0x0(a4)
      80: 00 00        	<unknown>
      82: 00 00        	<unknown>
      84: 58 73        	<unknown>
      86: 00 80        	<unknown>
      88: 00 00        	<unknown>
      8a: 00 00        	<unknown>
      8c: 03 00 08 00  	lb	zero, 0x0(a6)
      90: 00 00        	<unknown>
      92: 00 00        	<unknown>
      94: 5c 73        	<unknown>
      96: 00 80        	<unknown>
      98: 00 00        	<unknown>
      9a: 00 00        	<unknown>
      9c: 03 00 09 00  	lb	zero, 0x0(s2)
		...
      ac: 03 00 0a 00  	lb	zero, 0x0(s4)
		...
      bc: 03 00 0b 00  	lb	zero, 0x0(s6)
      c0: 01 00        	<unknown>
		...
      ca: 00 00        	<unknown>
      cc: 04 00        	<unknown>
      ce: f1 ff        	<unknown>
      d0: 0e 00        	<unknown>
      d2: 00 00        	<unknown>
      d4: 00 00        	<unknown>
      d6: 00 80        	<unknown>
      d8: 00 00        	<unknown>
      da: 00 00        	<unknown>
      dc: 00 00        	<unknown>
      de: 01 00        	<unknown>
      e0: 3a 00        	<unknown>
      e2: 00 00        	<unknown>
      e4: 88 02        	<unknown>
      e6: 00 80        	<unknown>
      e8: 00 00        	<unknown>
      ea: 00 00        	<unknown>
      ec: 02 00        	<unknown>
      ee: 02 00        	<unknown>
      f0: 48 00        	<unknown>
      f2: 00 00        	<unknown>
      f4: 58 02        	<unknown>
      f6: 00 80        	<unknown>
      f8: 00 00        	<unknown>
      fa: 00 00        	<unknown>
      fc: 02 00        	<unknown>
      fe: 02 00        	<unknown>
     100: 52 00        	<unknown>
     102: 00 00        	<unknown>
     104: 9c 02        	<unknown>
     106: 00 80        	<unknown>
     108: 00 00        	<unknown>
     10a: 00 00        	<unknown>
     10c: 02 00        	<unknown>
     10e: 02 00        	<unknown>
     110: 0e 00        	<unknown>
     112: 00 00        	<unknown>
     114: 44 02        	<unknown>
     116: 00 80        	<unknown>
     118: 00 00        	<unknown>
     11a: 00 00        	<unknown>
     11c: 00 00        	<unknown>
     11e: 02 00        	<unknown>
     120: 5f 00 00 00  	<unknown>
		...
     12c: 04 00        	<unknown>
     12e: f1 ff        	<unknown>
     130: 66 00        	<unknown>
     132: 00 00        	<unknown>
     134: 34 2d        	<unknown>
     136: 00 80        	<unknown>
     138: 04 00        	<unknown>
     13a: 00 00        	<unknown>
     13c: 02 00        	<unknown>
     13e: 02 00        	<unknown>
     140: 6c 00        	<unknown>
     142: 00 00        	<unknown>
     144: 34 2d        	<unknown>
     146: 00 80        	<unknown>
     148: 00 00        	<unknown>
     14a: 00 00        	<unknown>
     14c: 00 00        	<unknown>
     14e: 02 00        	<unknown>
     150: ff 04 00 00  	<unknown>
     154: 38 2d        	<unknown>
     156: 00 80        	<unknown>
     158: 4c 00        	<unknown>
     15a: 00 00        	<unknown>
     15c: 02 00        	<unknown>
     15e: 02 00        	<unknown>
     160: 71 00        	<unknown>
     162: 00 00        	<unknown>
     164: 38 2d        	<unknown>
     166: 00 80        	<unknown>
     168: 00 00        	<unknown>
     16a: 00 00        	<unknown>
     16c: 00 00        	<unknown>
     16e: 02 00        	<unknown>
     170: 76 00        	<unknown>
     172: 00 00        	<unknown>
     174: 70 00        	<unknown>
     176: 00 80        	<unknown>
     178: 00 00        	<unknown>
     17a: 00 00        	<unknown>
     17c: 00 00        	<unknown>
     17e: 02 00        	<unknown>
     180: 7b 00 00 00  	<unknown>
     184: 67 00 00 00  	jr	zero <.symtab>
     188: 00 00        	<unknown>
     18a: 00 00        	<unknown>
     18c: 00 00        	<unknown>
     18e: 0a 00        	<unknown>
     190: 80 00        	<unknown>
     192: 00 00        	<unknown>
     194: 38 02        	<unknown>
		...
     19e: 0b 00 85 00  	<unknown>
		...
     1aa: 00 00        	<unknown>
     1ac: 04 00        	<unknown>
     1ae: f1 ff        	<unknown>
     1b0: 00 00        	<unknown>
     1b2: 00 00        	<unknown>
     1b4: 94 00        	<unknown>
     1b6: 00 80        	<unknown>
     1b8: 00 00        	<unknown>
     1ba: 00 00        	<unknown>
     1bc: 00 00        	<unknown>
     1be: 02 00        	<unknown>
     1c0: 6c 00        	<unknown>
     1c2: 00 00        	<unknown>
     1c4: 94 00        	<unknown>
     1c6: 00 80        	<unknown>
     1c8: 00 00        	<unknown>
     1ca: 00 00        	<unknown>
     1cc: 00 00        	<unknown>
     1ce: 02 00        	<unknown>
     1d0: 00 00        	<unknown>
     1d2: 00 00        	<unknown>
     1d4: 28 02        	<unknown>
     1d6: 00 80        	<unknown>
     1d8: 00 00        	<unknown>
     1da: 00 00        	<unknown>
     1dc: 00 00        	<unknown>
     1de: 02 00        	<unknown>
     1e0: 00 00        	<unknown>
     1e2: 00 00        	<unknown>
     1e4: 28 02        	<unknown>
     1e6: 00 80        	<unknown>
     1e8: 00 00        	<unknown>
     1ea: 00 00        	<unknown>
     1ec: 00 00        	<unknown>
     1ee: 02 00        	<unknown>
     1f0: 71 00        	<unknown>
     1f2: 00 00        	<unknown>
     1f4: 28 02        	<unknown>
     1f6: 00 80        	<unknown>
     1f8: 00 00        	<unknown>
     1fa: 00 00        	<unknown>
     1fc: 00 00        	<unknown>
     1fe: 02 00        	<unknown>
     200: 00 00        	<unknown>
     202: 00 00        	<unknown>
     204: 44 02        	<unknown>
     206: 00 80        	<unknown>
     208: 00 00        	<unknown>
     20a: 00 00        	<unknown>
     20c: 00 00        	<unknown>
     20e: 02 00        	<unknown>
     210: 90 00        	<unknown>
     212: 00 00        	<unknown>
     214: 67 00 00 00  	jr	zero <.symtab>
     218: 00 00        	<unknown>
     21a: 00 00        	<unknown>
     21c: 00 00        	<unknown>
     21e: 0a 00        	<unknown>
     220: 7b 00 00 00  	<unknown>
		...
     22c: 00 00        	<unknown>
     22e: 0b 00 80 00  	<unknown>
     232: 00 00        	<unknown>
     234: ec 60        	<unknown>
     236: 00 80        	<unknown>
     238: 00 00        	<unknown>
     23a: 00 00        	<unknown>
     23c: 00 00        	<unknown>
     23e: 04 00        	<unknown>
     240: 95 00        	<unknown>
		...
     24a: 00 00        	<unknown>
     24c: 04 00        	<unknown>
     24e: f1 ff        	<unknown>
     250: 0e 00        	<unknown>
     252: 00 00        	<unknown>
     254: b0 02        	<unknown>
     256: 00 80        	<unknown>
     258: 00 00        	<unknown>
     25a: 00 00        	<unknown>
     25c: 00 00        	<unknown>
     25e: 02 00        	<unknown>
     260: 0e 00        	<unknown>
     262: 00 00        	<unknown>
     264: f4 02        	<unknown>
     266: 00 80        	<unknown>
     268: 00 00        	<unknown>
     26a: 00 00        	<unknown>
     26c: 00 00        	<unknown>
     26e: 02 00        	<unknown>
     270: 0e 00        	<unknown>
     272: 00 00        	<unknown>
     274: 88 03        	<unknown>
     276: 00 80        	<unknown>
     278: 00 00        	<unknown>
     27a: 00 00        	<unknown>
     27c: 00 00        	<unknown>
     27e: 02 00        	<unknown>
     280: a3 00 00 00  	sb	zero, 0x1(zero)
		...
     28c: 04 00        	<unknown>
     28e: f1 ff        	<unknown>
     290: 0e 00        	<unknown>
     292: 00 00        	<unknown>
     294: e4 03        	<unknown>
     296: 00 80        	<unknown>
     298: 00 00        	<unknown>
     29a: 00 00        	<unknown>
     29c: 00 00        	<unknown>
     29e: 02 00        	<unknown>
     2a0: b0 00        	<unknown>
		...
     2aa: 00 00        	<unknown>
     2ac: 04 00        	<unknown>
     2ae: f1 ff        	<unknown>
     2b0: bb 00 00 00  	<unknown>
     2b4: fc 03        	<unknown>
     2b6: 00 80        	<unknown>
     2b8: fc 00        	<unknown>
     2ba: 00 00        	<unknown>
     2bc: 02 00        	<unknown>
     2be: 02 00        	<unknown>
     2c0: 0e 00        	<unknown>
     2c2: 00 00        	<unknown>
     2c4: fc 03        	<unknown>
     2c6: 00 80        	<unknown>
     2c8: 00 00        	<unknown>
     2ca: 00 00        	<unknown>
     2cc: 00 00        	<unknown>
     2ce: 02 00        	<unknown>
     2d0: cb 00 00 00  	fnmsub.s	ft1, ft0, ft0, ft0, rne
     2d4: f8 04        	<unknown>
     2d6: 00 80        	<unknown>
     2d8: 14 00        	<unknown>
     2da: 00 00        	<unknown>
     2dc: 02 00        	<unknown>
     2de: 02 00        	<unknown>
     2e0: 0e 00        	<unknown>
     2e2: 00 00        	<unknown>
     2e4: f8 04        	<unknown>
     2e6: 00 80        	<unknown>
     2e8: 00 00        	<unknown>
     2ea: 00 00        	<unknown>
     2ec: 00 00        	<unknown>
     2ee: 02 00        	<unknown>
     2f0: e5 00        	<unknown>
     2f2: 00 00        	<unknown>
     2f4: 0c 05        	<unknown>
     2f6: 00 80        	<unknown>
     2f8: 24 00        	<unknown>
     2fa: 00 00        	<unknown>
     2fc: 02 00        	<unknown>
     2fe: 02 00        	<unknown>
     300: 0e 00        	<unknown>
     302: 00 00        	<unknown>
     304: 0c 05        	<unknown>
     306: 00 80        	<unknown>
     308: 00 00        	<unknown>
     30a: 00 00        	<unknown>
     30c: 00 00        	<unknown>
     30e: 02 00        	<unknown>
     310: fa 00        	<unknown>
     312: 00 00        	<unknown>
     314: 30 05        	<unknown>
     316: 00 80        	<unknown>
     318: 1c 01        	<unknown>
     31a: 00 00        	<unknown>
     31c: 02 00        	<unknown>
     31e: 02 00        	<unknown>
     320: 0e 00        	<unknown>
     322: 00 00        	<unknown>
     324: 30 05        	<unknown>
     326: 00 80        	<unknown>
     328: 00 00        	<unknown>
     32a: 00 00        	<unknown>
     32c: 00 00        	<unknown>
     32e: 02 00        	<unknown>
     330: 10 01        	<unknown>
     332: 00 00        	<unknown>
     334: 4c 06        	<unknown>
     336: 00 80        	<unknown>
     338: 4c 00        	<unknown>
     33a: 00 00        	<unknown>
     33c: 02 00        	<unknown>
     33e: 02 00        	<unknown>
     340: 0e 00        	<unknown>
     342: 00 00        	<unknown>
     344: 4c 06        	<unknown>
     346: 00 80        	<unknown>
     348: 00 00        	<unknown>
     34a: 00 00        	<unknown>
     34c: 00 00        	<unknown>
     34e: 02 00        	<unknown>
     350: 0e 00        	<unknown>
     352: 00 00        	<unknown>
     354: 98 06        	<unknown>
     356: 00 80        	<unknown>
     358: 00 00        	<unknown>
     35a: 00 00        	<unknown>
     35c: 00 00        	<unknown>
     35e: 02 00        	<unknown>
     360: 2b 01 00 00  	vx_tex	sp, zero, zero, zero
		...
     36c: 04 00        	<unknown>
     36e: f1 ff        	<unknown>
     370: 0e 00        	<unknown>
     372: 00 00        	<unknown>
     374: b8 0a        	<unknown>
     376: 00 80        	<unknown>
     378: 00 00        	<unknown>
     37a: 00 00        	<unknown>
     37c: 00 00        	<unknown>
     37e: 02 00        	<unknown>
     380: 35 01        	<unknown>
		...
     38a: 00 00        	<unknown>
     38c: 04 00        	<unknown>
     38e: f1 ff        	<unknown>
     390: 40 01        	<unknown>
     392: 00 00        	<unknown>
     394: b8 0c        	<unknown>
     396: 00 80        	<unknown>
     398: 34 00        	<unknown>
     39a: 00 00        	<unknown>
     39c: 02 00        	<unknown>
     39e: 02 00        	<unknown>
     3a0: 0e 00        	<unknown>
     3a2: 00 00        	<unknown>
     3a4: b8 0c        	<unknown>
     3a6: 00 80        	<unknown>
     3a8: 00 00        	<unknown>
     3aa: 00 00        	<unknown>
     3ac: 00 00        	<unknown>
     3ae: 02 00        	<unknown>
     3b0: 0e 00        	<unknown>
     3b2: 00 00        	<unknown>
     3b4: ec 0c        	<unknown>
     3b6: 00 80        	<unknown>
     3b8: 00 00        	<unknown>
     3ba: 00 00        	<unknown>
     3bc: 00 00        	<unknown>
     3be: 02 00        	<unknown>
     3c0: 4d 01        	<unknown>
		...
     3ca: 00 00        	<unknown>
     3cc: 04 00        	<unknown>
     3ce: f1 ff        	<unknown>
     3d0: 0e 00        	<unknown>
     3d2: 00 00        	<unknown>
     3d4: 4c 0d        	<unknown>
     3d6: 00 80        	<unknown>
     3d8: 00 00        	<unknown>
     3da: 00 00        	<unknown>
     3dc: 00 00        	<unknown>
     3de: 02 00        	<unknown>
     3e0: 5b 01 00 00  	<unknown>
     3e4: 80 0d        	<unknown>
     3e6: 00 80        	<unknown>
     3e8: 00 00        	<unknown>
     3ea: 00 00        	<unknown>
     3ec: 00 00        	<unknown>
     3ee: 02 00        	<unknown>
     3f0: 66 01        	<unknown>
     3f2: 00 00        	<unknown>
     3f4: 98 0d        	<unknown>
     3f6: 00 80        	<unknown>
     3f8: 00 00        	<unknown>
     3fa: 00 00        	<unknown>
     3fc: 00 00        	<unknown>
     3fe: 02 00        	<unknown>
     400: 71 01        	<unknown>
		...
     40a: 00 00        	<unknown>
     40c: 04 00        	<unknown>
     40e: f1 ff        	<unknown>
     410: 7e 01        	<unknown>
     412: 00 00        	<unknown>
     414: c8 0d        	<unknown>
     416: 00 80        	<unknown>
     418: 04 00        	<unknown>
     41a: 00 00        	<unknown>
     41c: 02 00        	<unknown>
     41e: 02 00        	<unknown>
     420: 0e 00        	<unknown>
     422: 00 00        	<unknown>
     424: c8 0d        	<unknown>
     426: 00 80        	<unknown>
     428: 00 00        	<unknown>
     42a: 00 00        	<unknown>
     42c: 00 00        	<unknown>
     42e: 02 00        	<unknown>
     430: 88 01        	<unknown>
     432: 00 00        	<unknown>
     434: cc 0d        	<unknown>
     436: 00 80        	<unknown>
     438: 2c 01        	<unknown>
     43a: 00 00        	<unknown>
     43c: 02 00        	<unknown>
     43e: 02 00        	<unknown>
     440: 0e 00        	<unknown>
     442: 00 00        	<unknown>
     444: cc 0d        	<unknown>
     446: 00 80        	<unknown>
     448: 00 00        	<unknown>
     44a: 00 00        	<unknown>
     44c: 00 00        	<unknown>
     44e: 02 00        	<unknown>
     450: 91 01        	<unknown>
     452: 00 00        	<unknown>
     454: f8 0e        	<unknown>
     456: 00 80        	<unknown>
     458: 34 03        	<unknown>
     45a: 00 00        	<unknown>
     45c: 02 00        	<unknown>
     45e: 02 00        	<unknown>
     460: 0e 00        	<unknown>
     462: 00 00        	<unknown>
     464: f8 0e        	<unknown>
     466: 00 80        	<unknown>
     468: 00 00        	<unknown>
     46a: 00 00        	<unknown>
     46c: 00 00        	<unknown>
     46e: 02 00        	<unknown>
     470: 9e 01        	<unknown>
     472: 00 00        	<unknown>
     474: 2c 12        	<unknown>
     476: 00 80        	<unknown>
     478: 0c 00        	<unknown>
     47a: 00 00        	<unknown>
     47c: 02 00        	<unknown>
     47e: 02 00        	<unknown>
     480: 0e 00        	<unknown>
     482: 00 00        	<unknown>
     484: 2c 12        	<unknown>
     486: 00 80        	<unknown>
     488: 00 00        	<unknown>
     48a: 00 00        	<unknown>
     48c: 00 00        	<unknown>
     48e: 02 00        	<unknown>
     490: a8 01        	<unknown>
     492: 00 00        	<unknown>
     494: 38 12        	<unknown>
     496: 00 80        	<unknown>
     498: 98 06        	<unknown>
     49a: 00 00        	<unknown>
     49c: 02 00        	<unknown>
     49e: 02 00        	<unknown>
     4a0: 0e 00        	<unknown>
     4a2: 00 00        	<unknown>
     4a4: 38 12        	<unknown>
     4a6: 00 80        	<unknown>
     4a8: 00 00        	<unknown>
     4aa: 00 00        	<unknown>
     4ac: 00 00        	<unknown>
     4ae: 02 00        	<unknown>
     4b0: ae 01        	<unknown>
     4b2: 00 00        	<unknown>
     4b4: d0 18        	<unknown>
     4b6: 00 80        	<unknown>
     4b8: 60 06        	<unknown>
     4ba: 00 00        	<unknown>
     4bc: 02 00        	<unknown>
     4be: 02 00        	<unknown>
     4c0: 0e 00        	<unknown>
     4c2: 00 00        	<unknown>
     4c4: d0 18        	<unknown>
     4c6: 00 80        	<unknown>
     4c8: 00 00        	<unknown>
     4ca: 00 00        	<unknown>
     4cc: 00 00        	<unknown>
     4ce: 02 00        	<unknown>
     4d0: b4 01        	<unknown>
     4d2: 00 00        	<unknown>
     4d4: 90 60        	<unknown>
     4d6: 00 80        	<unknown>
     4d8: 50 00        	<unknown>
     4da: 00 00        	<unknown>
     4dc: 01 00        	<unknown>
     4de: 03 00 bc 01  	lb	zero, 0x1b(s8)
     4e2: 00 00        	<unknown>
     4e4: 30 1f        	<unknown>
     4e6: 00 80        	<unknown>
     4e8: d4 0d        	<unknown>
     4ea: 00 00        	<unknown>
     4ec: 02 00        	<unknown>
     4ee: 02 00        	<unknown>
     4f0: 0e 00        	<unknown>
     4f2: 00 00        	<unknown>
     4f4: 30 1f        	<unknown>
     4f6: 00 80        	<unknown>
     4f8: 00 00        	<unknown>
     4fa: 00 00        	<unknown>
     4fc: 00 00        	<unknown>
     4fe: 02 00        	<unknown>
     500: 0e 00        	<unknown>
     502: 00 00        	<unknown>
     504: 04 2d        	<unknown>
     506: 00 80        	<unknown>
     508: 00 00        	<unknown>
     50a: 00 00        	<unknown>
     50c: 00 00        	<unknown>
     50e: 02 00        	<unknown>
     510: c7 01 00 00  	fmsub.s	ft3, ft0, ft0, ft0, rne
		...
     51c: 04 00        	<unknown>
     51e: f1 ff        	<unknown>
     520: 6c 00        	<unknown>
     522: 00 00        	<unknown>
     524: 84 2d        	<unknown>
     526: 00 80        	<unknown>
     528: 00 00        	<unknown>
     52a: 00 00        	<unknown>
     52c: 00 00        	<unknown>
     52e: 02 00        	<unknown>
     530: d0 01        	<unknown>
     532: 00 00        	<unknown>
     534: 67 00 00 00  	jr	zero <.symtab>
     538: 00 00        	<unknown>
     53a: 00 00        	<unknown>
     53c: 00 00        	<unknown>
     53e: 0a 00        	<unknown>
     540: 90 00        	<unknown>
     542: 00 00        	<unknown>
     544: 76 02        	<unknown>
		...
     54e: 0b 00 d5 01  	<unknown>
		...
     55a: 00 00        	<unknown>
     55c: 04 00        	<unknown>
     55e: f1 ff        	<unknown>
     560: 6c 00        	<unknown>
     562: 00 00        	<unknown>
     564: c0 32        	<unknown>
     566: 00 80        	<unknown>
     568: 00 00        	<unknown>
     56a: 00 00        	<unknown>
     56c: 00 00        	<unknown>
     56e: 02 00        	<unknown>
     570: d0 01        	<unknown>
     572: 00 00        	<unknown>
     574: 67 00 00 00  	jr	zero <.symtab>
     578: 00 00        	<unknown>
     57a: 00 00        	<unknown>
     57c: 00 00        	<unknown>
     57e: 0a 00        	<unknown>
     580: 90 00        	<unknown>
     582: 00 00        	<unknown>
     584: b4 02        	<unknown>
		...
     58e: 0b 00 de 01  	<unknown>
		...
     59a: 00 00        	<unknown>
     59c: 04 00        	<unknown>
     59e: f1 ff        	<unknown>
     5a0: 00 00        	<unknown>
     5a2: 00 00        	<unknown>
     5a4: 34 34        	<unknown>
     5a6: 00 80        	<unknown>
     5a8: 00 00        	<unknown>
     5aa: 00 00        	<unknown>
     5ac: 00 00        	<unknown>
     5ae: 02 00        	<unknown>
     5b0: 6c 00        	<unknown>
     5b2: 00 00        	<unknown>
     5b4: 34 34        	<unknown>
     5b6: 00 80        	<unknown>
     5b8: 00 00        	<unknown>
     5ba: 00 00        	<unknown>
     5bc: 00 00        	<unknown>
     5be: 02 00        	<unknown>
     5c0: 00 00        	<unknown>
     5c2: 00 00        	<unknown>
     5c4: 74 3f        	<unknown>
     5c6: 00 80        	<unknown>
     5c8: 00 00        	<unknown>
     5ca: 00 00        	<unknown>
     5cc: 00 00        	<unknown>
     5ce: 02 00        	<unknown>
     5d0: d0 01        	<unknown>
     5d2: 00 00        	<unknown>
     5d4: 67 00 00 00  	jr	zero <.symtab>
     5d8: 00 00        	<unknown>
     5da: 00 00        	<unknown>
     5dc: 00 00        	<unknown>
     5de: 0a 00        	<unknown>
     5e0: 90 00        	<unknown>
     5e2: 00 00        	<unknown>
     5e4: f2 02        	<unknown>
		...
     5ee: 0b 00 7b 00  	<unknown>
     5f2: 00 00        	<unknown>
     5f4: ec 60        	<unknown>
     5f6: 00 80        	<unknown>
     5f8: 00 00        	<unknown>
     5fa: 00 00        	<unknown>
     5fc: 00 00        	<unknown>
     5fe: 04 00        	<unknown>
     600: e7 01 00 00  	jalr	gp, zero <.symtab>
		...
     60c: 04 00        	<unknown>
     60e: f1 ff        	<unknown>
     610: 00 00        	<unknown>
     612: 00 00        	<unknown>
     614: 74 3f        	<unknown>
     616: 00 80        	<unknown>
     618: 00 00        	<unknown>
     61a: 00 00        	<unknown>
     61c: 00 00        	<unknown>
     61e: 02 00        	<unknown>
     620: 6c 00        	<unknown>
     622: 00 00        	<unknown>
     624: 74 3f        	<unknown>
     626: 00 80        	<unknown>
     628: 00 00        	<unknown>
     62a: 00 00        	<unknown>
     62c: 00 00        	<unknown>
     62e: 02 00        	<unknown>
     630: 00 00        	<unknown>
     632: 00 00        	<unknown>
     634: 6c 40        	<unknown>
     636: 00 80        	<unknown>
     638: 00 00        	<unknown>
     63a: 00 00        	<unknown>
     63c: 00 00        	<unknown>
     63e: 02 00        	<unknown>
     640: 00 00        	<unknown>
     642: 00 00        	<unknown>
     644: 6c 40        	<unknown>
     646: 00 80        	<unknown>
     648: 00 00        	<unknown>
     64a: 00 00        	<unknown>
     64c: 00 00        	<unknown>
     64e: 02 00        	<unknown>
     650: 71 00        	<unknown>
     652: 00 00        	<unknown>
     654: 6c 40        	<unknown>
     656: 00 80        	<unknown>
     658: 00 00        	<unknown>
     65a: 00 00        	<unknown>
     65c: 00 00        	<unknown>
     65e: 02 00        	<unknown>
     660: 00 00        	<unknown>
     662: 00 00        	<unknown>
     664: 64 41        	<unknown>
     666: 00 80        	<unknown>
     668: 00 00        	<unknown>
     66a: 00 00        	<unknown>
     66c: 00 00        	<unknown>
     66e: 02 00        	<unknown>
     670: 7b 00 00 00  	<unknown>
     674: 67 00 00 00  	jr	zero <.symtab>
     678: 00 00        	<unknown>
     67a: 00 00        	<unknown>
     67c: 00 00        	<unknown>
     67e: 0a 00        	<unknown>
     680: 80 00        	<unknown>
     682: 00 00        	<unknown>
     684: 30 03        	<unknown>
		...
     68e: 0b 00 f4 01  	<unknown>
     692: 00 00        	<unknown>
     694: d8 60        	<unknown>
     696: 00 80        	<unknown>
     698: 00 00        	<unknown>
     69a: 00 00        	<unknown>
     69c: 00 00        	<unknown>
     69e: 04 00        	<unknown>
     6a0: f9 01        	<unknown>
		...
     6aa: 00 00        	<unknown>
     6ac: 04 00        	<unknown>
     6ae: f1 ff        	<unknown>
     6b0: 00 00        	<unknown>
     6b2: 00 00        	<unknown>
     6b4: 64 41        	<unknown>
     6b6: 00 80        	<unknown>
     6b8: 00 00        	<unknown>
     6ba: 00 00        	<unknown>
     6bc: 00 00        	<unknown>
     6be: 02 00        	<unknown>
     6c0: 6c 00        	<unknown>
     6c2: 00 00        	<unknown>
     6c4: 64 41        	<unknown>
     6c6: 00 80        	<unknown>
     6c8: 00 00        	<unknown>
     6ca: 00 00        	<unknown>
     6cc: 00 00        	<unknown>
     6ce: 02 00        	<unknown>
     6d0: 00 00        	<unknown>
     6d2: 00 00        	<unknown>
     6d4: 60 4b        	<unknown>
     6d6: 00 80        	<unknown>
     6d8: 00 00        	<unknown>
     6da: 00 00        	<unknown>
     6dc: 00 00        	<unknown>
     6de: 02 00        	<unknown>
     6e0: d0 01        	<unknown>
     6e2: 00 00        	<unknown>
     6e4: 67 00 00 00  	jr	zero <.symtab>
     6e8: 00 00        	<unknown>
     6ea: 00 00        	<unknown>
     6ec: 00 00        	<unknown>
     6ee: 0a 00        	<unknown>
     6f0: 90 00        	<unknown>
     6f2: 00 00        	<unknown>
     6f4: 6e 03        	<unknown>
		...
     6fe: 0b 00 7b 00  	<unknown>
     702: 00 00        	<unknown>
     704: b0 60        	<unknown>
     706: 00 80        	<unknown>
     708: 00 00        	<unknown>
     70a: 00 00        	<unknown>
     70c: 00 00        	<unknown>
     70e: 04 00        	<unknown>
     710: 02 02        	<unknown>
		...
     71a: 00 00        	<unknown>
     71c: 04 00        	<unknown>
     71e: f1 ff        	<unknown>
     720: 00 00        	<unknown>
     722: 00 00        	<unknown>
     724: 60 4b        	<unknown>
     726: 00 80        	<unknown>
     728: 00 00        	<unknown>
     72a: 00 00        	<unknown>
     72c: 00 00        	<unknown>
     72e: 02 00        	<unknown>
     730: 6c 00        	<unknown>
     732: 00 00        	<unknown>
     734: 60 4b        	<unknown>
     736: 00 80        	<unknown>
     738: 00 00        	<unknown>
     73a: 00 00        	<unknown>
     73c: 00 00        	<unknown>
     73e: 02 00        	<unknown>
     740: 00 00        	<unknown>
     742: 00 00        	<unknown>
     744: 34 4c        	<unknown>
     746: 00 80        	<unknown>
     748: 00 00        	<unknown>
     74a: 00 00        	<unknown>
     74c: 00 00        	<unknown>
     74e: 02 00        	<unknown>
     750: d0 01        	<unknown>
     752: 00 00        	<unknown>
     754: 67 00 00 00  	jr	zero <.symtab>
     758: 00 00        	<unknown>
     75a: 00 00        	<unknown>
     75c: 00 00        	<unknown>
     75e: 0a 00        	<unknown>
     760: 90 00        	<unknown>
     762: 00 00        	<unknown>
     764: ea 03        	<unknown>
		...
     76e: 0b 00 7b 00  	<unknown>
     772: 00 00        	<unknown>
     774: 74 60        	<unknown>
     776: 00 80        	<unknown>
     778: 00 00        	<unknown>
     77a: 00 00        	<unknown>
     77c: 00 00        	<unknown>
     77e: 04 00        	<unknown>
     780: 0c 02        	<unknown>
		...
     78a: 00 00        	<unknown>
     78c: 04 00        	<unknown>
     78e: f1 ff        	<unknown>
     790: 00 00        	<unknown>
     792: 00 00        	<unknown>
     794: 34 4c        	<unknown>
     796: 00 80        	<unknown>
     798: 00 00        	<unknown>
     79a: 00 00        	<unknown>
     79c: 00 00        	<unknown>
     79e: 02 00        	<unknown>
     7a0: 6c 00        	<unknown>
     7a2: 00 00        	<unknown>
     7a4: 34 4c        	<unknown>
     7a6: 00 80        	<unknown>
     7a8: 00 00        	<unknown>
     7aa: 00 00        	<unknown>
     7ac: 00 00        	<unknown>
     7ae: 02 00        	<unknown>
     7b0: 00 00        	<unknown>
     7b2: 00 00        	<unknown>
     7b4: d4 4c        	<unknown>
     7b6: 00 80        	<unknown>
     7b8: 00 00        	<unknown>
     7ba: 00 00        	<unknown>
     7bc: 00 00        	<unknown>
     7be: 02 00        	<unknown>
     7c0: d0 01        	<unknown>
     7c2: 00 00        	<unknown>
     7c4: 67 00 00 00  	jr	zero <.symtab>
     7c8: 00 00        	<unknown>
     7ca: 00 00        	<unknown>
     7cc: 00 00        	<unknown>
     7ce: 0a 00        	<unknown>
     7d0: 90 00        	<unknown>
     7d2: 00 00        	<unknown>
     7d4: 28 04        	<unknown>
		...
     7de: 0b 00 7b 00  	<unknown>
     7e2: 00 00        	<unknown>
     7e4: 60 60        	<unknown>
     7e6: 00 80        	<unknown>
     7e8: 00 00        	<unknown>
     7ea: 00 00        	<unknown>
     7ec: 00 00        	<unknown>
     7ee: 04 00        	<unknown>
     7f0: 19 02        	<unknown>
		...
     7fa: 00 00        	<unknown>
     7fc: 04 00        	<unknown>
     7fe: f1 ff        	<unknown>
     800: 00 00        	<unknown>
     802: 00 00        	<unknown>
     804: d4 4c        	<unknown>
     806: 00 80        	<unknown>
     808: 00 00        	<unknown>
     80a: 00 00        	<unknown>
     80c: 00 00        	<unknown>
     80e: 02 00        	<unknown>
     810: 6c 00        	<unknown>
     812: 00 00        	<unknown>
     814: d4 4c        	<unknown>
     816: 00 80        	<unknown>
     818: 00 00        	<unknown>
     81a: 00 00        	<unknown>
     81c: 00 00        	<unknown>
     81e: 02 00        	<unknown>
     820: 00 00        	<unknown>
     822: 00 00        	<unknown>
     824: d8 4d        	<unknown>
     826: 00 80        	<unknown>
     828: 00 00        	<unknown>
     82a: 00 00        	<unknown>
     82c: 00 00        	<unknown>
     82e: 02 00        	<unknown>
     830: d0 01        	<unknown>
     832: 00 00        	<unknown>
     834: 67 00 00 00  	jr	zero <.symtab>
     838: 00 00        	<unknown>
     83a: 00 00        	<unknown>
     83c: 00 00        	<unknown>
     83e: 0a 00        	<unknown>
     840: 90 00        	<unknown>
     842: 00 00        	<unknown>
     844: 66 04        	<unknown>
		...
     84e: 0b 00 7b 00  	<unknown>
     852: 00 00        	<unknown>
     854: 4c 60        	<unknown>
     856: 00 80        	<unknown>
     858: 00 00        	<unknown>
     85a: 00 00        	<unknown>
     85c: 00 00        	<unknown>
     85e: 04 00        	<unknown>
     860: 25 02        	<unknown>
		...
     86a: 00 00        	<unknown>
     86c: 04 00        	<unknown>
     86e: f1 ff        	<unknown>
     870: 00 00        	<unknown>
     872: 00 00        	<unknown>
     874: d8 4d        	<unknown>
     876: 00 80        	<unknown>
     878: 00 00        	<unknown>
     87a: 00 00        	<unknown>
     87c: 00 00        	<unknown>
     87e: 02 00        	<unknown>
     880: 6c 00        	<unknown>
     882: 00 00        	<unknown>
     884: d8 4d        	<unknown>
     886: 00 80        	<unknown>
     888: 00 00        	<unknown>
     88a: 00 00        	<unknown>
     88c: 00 00        	<unknown>
     88e: 02 00        	<unknown>
     890: 00 00        	<unknown>
     892: 00 00        	<unknown>
     894: c4 4e        	<unknown>
     896: 00 80        	<unknown>
     898: 00 00        	<unknown>
     89a: 00 00        	<unknown>
     89c: 00 00        	<unknown>
     89e: 02 00        	<unknown>
     8a0: d0 01        	<unknown>
     8a2: 00 00        	<unknown>
     8a4: 67 00 00 00  	jr	zero <.symtab>
     8a8: 00 00        	<unknown>
     8aa: 00 00        	<unknown>
     8ac: 00 00        	<unknown>
     8ae: 0a 00        	<unknown>
     8b0: 90 00        	<unknown>
     8b2: 00 00        	<unknown>
     8b4: a4 04        	<unknown>
		...
     8be: 0b 00 7b 00  	<unknown>
     8c2: 00 00        	<unknown>
     8c4: 38 60        	<unknown>
     8c6: 00 80        	<unknown>
     8c8: 00 00        	<unknown>
     8ca: 00 00        	<unknown>
     8cc: 00 00        	<unknown>
     8ce: 04 00        	<unknown>
     8d0: 33 02 00 00  	add	tp, zero, zero
		...
     8dc: 04 00        	<unknown>
     8de: f1 ff        	<unknown>
     8e0: 00 00        	<unknown>
     8e2: 00 00        	<unknown>
     8e4: c4 4e        	<unknown>
     8e6: 00 80        	<unknown>
     8e8: 00 00        	<unknown>
     8ea: 00 00        	<unknown>
     8ec: 00 00        	<unknown>
     8ee: 02 00        	<unknown>
     8f0: 6c 00        	<unknown>
     8f2: 00 00        	<unknown>
     8f4: c4 4e        	<unknown>
     8f6: 00 80        	<unknown>
     8f8: 00 00        	<unknown>
     8fa: 00 00        	<unknown>
     8fc: 00 00        	<unknown>
     8fe: 02 00        	<unknown>
     900: 00 00        	<unknown>
     902: 00 00        	<unknown>
     904: b0 57        	<unknown>
     906: 00 80        	<unknown>
     908: 00 00        	<unknown>
     90a: 00 00        	<unknown>
     90c: 00 00        	<unknown>
     90e: 02 00        	<unknown>
     910: d0 01        	<unknown>
     912: 00 00        	<unknown>
     914: 67 00 00 00  	jr	zero <.symtab>
     918: 00 00        	<unknown>
     91a: 00 00        	<unknown>
     91c: 00 00        	<unknown>
     91e: 0a 00        	<unknown>
     920: 90 00        	<unknown>
     922: 00 00        	<unknown>
     924: e2 04        	<unknown>
		...
     92e: 0b 00 7b 00  	<unknown>
     932: 00 00        	<unknown>
     934: 24 60        	<unknown>
     936: 00 80        	<unknown>
     938: 00 00        	<unknown>
     93a: 00 00        	<unknown>
     93c: 00 00        	<unknown>
     93e: 04 00        	<unknown>
     940: 3c 02        	<unknown>
		...
     94a: 00 00        	<unknown>
     94c: 04 00        	<unknown>
     94e: f1 ff        	<unknown>
     950: 00 00        	<unknown>
     952: 00 00        	<unknown>
     954: b0 57        	<unknown>
     956: 00 80        	<unknown>
     958: 00 00        	<unknown>
     95a: 00 00        	<unknown>
     95c: 00 00        	<unknown>
     95e: 02 00        	<unknown>
     960: 6c 00        	<unknown>
     962: 00 00        	<unknown>
     964: b0 57        	<unknown>
     966: 00 80        	<unknown>
     968: 00 00        	<unknown>
     96a: 00 00        	<unknown>
     96c: 00 00        	<unknown>
     96e: 02 00        	<unknown>
     970: 00 00        	<unknown>
     972: 00 00        	<unknown>
     974: bc 57        	<unknown>
     976: 00 80        	<unknown>
     978: 00 00        	<unknown>
     97a: 00 00        	<unknown>
     97c: 00 00        	<unknown>
     97e: 02 00        	<unknown>
     980: d0 01        	<unknown>
     982: 00 00        	<unknown>
     984: 67 00 00 00  	jr	zero <.symtab>
     988: 00 00        	<unknown>
     98a: 00 00        	<unknown>
     98c: 00 00        	<unknown>
     98e: 0a 00        	<unknown>
     990: 90 00        	<unknown>
     992: 00 00        	<unknown>
     994: 20 05        	<unknown>
		...
     99e: 0b 00 7b 00  	<unknown>
     9a2: 00 00        	<unknown>
     9a4: 10 60        	<unknown>
     9a6: 00 80        	<unknown>
     9a8: 00 00        	<unknown>
     9aa: 00 00        	<unknown>
     9ac: 00 00        	<unknown>
     9ae: 04 00        	<unknown>
     9b0: 45 02        	<unknown>
		...
     9ba: 00 00        	<unknown>
     9bc: 04 00        	<unknown>
     9be: f1 ff        	<unknown>
     9c0: 00 00        	<unknown>
     9c2: 00 00        	<unknown>
     9c4: bc 57        	<unknown>
     9c6: 00 80        	<unknown>
     9c8: 00 00        	<unknown>
     9ca: 00 00        	<unknown>
     9cc: 00 00        	<unknown>
     9ce: 02 00        	<unknown>
     9d0: 6c 00        	<unknown>
     9d2: 00 00        	<unknown>
     9d4: bc 57        	<unknown>
     9d6: 00 80        	<unknown>
     9d8: 00 00        	<unknown>
     9da: 00 00        	<unknown>
     9dc: 00 00        	<unknown>
     9de: 02 00        	<unknown>
     9e0: 00 00        	<unknown>
     9e2: 00 00        	<unknown>
     9e4: e8 59        	<unknown>
     9e6: 00 80        	<unknown>
     9e8: 00 00        	<unknown>
     9ea: 00 00        	<unknown>
     9ec: 00 00        	<unknown>
     9ee: 02 00        	<unknown>
     9f0: 00 00        	<unknown>
     9f2: 00 00        	<unknown>
     9f4: 20 5b        	<unknown>
     9f6: 00 80        	<unknown>
     9f8: 00 00        	<unknown>
     9fa: 00 00        	<unknown>
     9fc: 00 00        	<unknown>
     9fe: 02 00        	<unknown>
     a00: d0 01        	<unknown>
     a02: 00 00        	<unknown>
     a04: 67 00 00 00  	jr	zero <.symtab>
     a08: 00 00        	<unknown>
     a0a: 00 00        	<unknown>
     a0c: 00 00        	<unknown>
     a0e: 0a 00        	<unknown>
     a10: 90 00        	<unknown>
     a12: 00 00        	<unknown>
     a14: 9c 05        	<unknown>
		...
     a1e: 0b 00 7b 00  	<unknown>
     a22: 00 00        	<unknown>
     a24: c8 5f        	<unknown>
     a26: 00 80        	<unknown>
     a28: 00 00        	<unknown>
     a2a: 00 00        	<unknown>
     a2c: 00 00        	<unknown>
     a2e: 04 00        	<unknown>
     a30: 4f 02 00 00  	fnmadd.s	ft4, ft0, ft0, ft0, rne
		...
     a3c: 04 00        	<unknown>
     a3e: f1 ff        	<unknown>
     a40: 00 00        	<unknown>
     a42: 00 00        	<unknown>
     a44: 20 5b        	<unknown>
     a46: 00 80        	<unknown>
     a48: 00 00        	<unknown>
     a4a: 00 00        	<unknown>
     a4c: 00 00        	<unknown>
     a4e: 02 00        	<unknown>
     a50: 6c 00        	<unknown>
     a52: 00 00        	<unknown>
     a54: 20 5b        	<unknown>
     a56: 00 80        	<unknown>
     a58: 00 00        	<unknown>
     a5a: 00 00        	<unknown>
     a5c: 00 00        	<unknown>
     a5e: 02 00        	<unknown>
     a60: 00 00        	<unknown>
     a62: 00 00        	<unknown>
     a64: 4c 5d        	<unknown>
     a66: 00 80        	<unknown>
     a68: 00 00        	<unknown>
     a6a: 00 00        	<unknown>
     a6c: 00 00        	<unknown>
     a6e: 02 00        	<unknown>
     a70: 00 00        	<unknown>
     a72: 00 00        	<unknown>
     a74: 68 5e        	<unknown>
     a76: 00 80        	<unknown>
     a78: 00 00        	<unknown>
     a7a: 00 00        	<unknown>
     a7c: 00 00        	<unknown>
     a7e: 02 00        	<unknown>
     a80: d0 01        	<unknown>
     a82: 00 00        	<unknown>
     a84: 67 00 00 00  	jr	zero <.symtab>
     a88: 00 00        	<unknown>
     a8a: 00 00        	<unknown>
     a8c: 00 00        	<unknown>
     a8e: 0a 00        	<unknown>
     a90: 90 00        	<unknown>
     a92: 00 00        	<unknown>
     a94: da 05        	<unknown>
		...
     a9e: 0b 00 7b 00  	<unknown>
     aa2: 00 00        	<unknown>
     aa4: b4 5f        	<unknown>
     aa6: 00 80        	<unknown>
     aa8: 00 00        	<unknown>
     aaa: 00 00        	<unknown>
     aac: 00 00        	<unknown>
     aae: 04 00        	<unknown>
     ab0: 59 02        	<unknown>
		...
     aba: 00 00        	<unknown>
     abc: 04 00        	<unknown>
     abe: f1 ff        	<unknown>
     ac0: 00 00        	<unknown>
     ac2: 00 00        	<unknown>
     ac4: 68 5e        	<unknown>
     ac6: 00 80        	<unknown>
     ac8: 00 00        	<unknown>
     aca: 00 00        	<unknown>
     acc: 00 00        	<unknown>
     ace: 02 00        	<unknown>
     ad0: 6c 00        	<unknown>
     ad2: 00 00        	<unknown>
     ad4: 68 5e        	<unknown>
     ad6: 00 80        	<unknown>
     ad8: 00 00        	<unknown>
     ada: 00 00        	<unknown>
     adc: 00 00        	<unknown>
     ade: 02 00        	<unknown>
     ae0: 00 00        	<unknown>
     ae2: 00 00        	<unknown>
     ae4: 9c 5e        	<unknown>
     ae6: 00 80        	<unknown>
     ae8: 00 00        	<unknown>
     aea: 00 00        	<unknown>
     aec: 00 00        	<unknown>
     aee: 02 00        	<unknown>
     af0: 00 00        	<unknown>
     af2: 00 00        	<unknown>
     af4: 9c 5e        	<unknown>
     af6: 00 80        	<unknown>
     af8: 00 00        	<unknown>
     afa: 00 00        	<unknown>
     afc: 00 00        	<unknown>
     afe: 02 00        	<unknown>
     b00: 71 00        	<unknown>
     b02: 00 00        	<unknown>
     b04: 9c 5e        	<unknown>
     b06: 00 80        	<unknown>
     b08: 00 00        	<unknown>
     b0a: 00 00        	<unknown>
     b0c: 00 00        	<unknown>
     b0e: 02 00        	<unknown>
     b10: 90 00        	<unknown>
     b12: 00 00        	<unknown>
     b14: e0 60        	<unknown>
     b16: 00 80        	<unknown>
     b18: 00 00        	<unknown>
     b1a: 00 00        	<unknown>
     b1c: 00 00        	<unknown>
     b1e: 03 00 7b 00  	lb	zero, 0x7(s6)
     b22: 00 00        	<unknown>
     b24: 67 00 00 00  	jr	zero <.symtab>
     b28: 00 00        	<unknown>
     b2a: 00 00        	<unknown>
     b2c: 00 00        	<unknown>
     b2e: 0a 00        	<unknown>
     b30: 80 00        	<unknown>
     b32: 00 00        	<unknown>
     b34: 18 06        	<unknown>
		...
     b3e: 0b 00 f4 01  	<unknown>
     b42: 00 00        	<unknown>
     b44: a0 5f        	<unknown>
     b46: 00 80        	<unknown>
     b48: 00 00        	<unknown>
     b4a: 00 00        	<unknown>
     b4c: 00 00        	<unknown>
     b4e: 04 00        	<unknown>
     b50: 63 02 00 00  	beqz	zero, 0xb54 <.symtab+0xb54>
		...
     b5c: 04 00        	<unknown>
     b5e: f1 ff        	<unknown>
     b60: d0 01        	<unknown>
     b62: 00 00        	<unknown>
     b64: 67 00 00 00  	jr	zero <.symtab>
     b68: 00 00        	<unknown>
     b6a: 00 00        	<unknown>
     b6c: 00 00        	<unknown>
     b6e: 0a 00        	<unknown>
     b70: 90 00        	<unknown>
     b72: 00 00        	<unknown>
     b74: ac 03        	<unknown>
		...
     b7e: 0b 00 7b 00  	<unknown>
     b82: 00 00        	<unknown>
     b84: b0 61        	<unknown>
     b86: 00 80        	<unknown>
     b88: 00 00        	<unknown>
     b8a: 00 00        	<unknown>
     b8c: 00 00        	<unknown>
     b8e: 04 00        	<unknown>
     b90: 71 02        	<unknown>
		...
     b9a: 00 00        	<unknown>
     b9c: 04 00        	<unknown>
     b9e: f1 ff        	<unknown>
     ba0: d0 01        	<unknown>
     ba2: 00 00        	<unknown>
     ba4: 67 00 00 00  	jr	zero <.symtab>
     ba8: 00 00        	<unknown>
     baa: 00 00        	<unknown>
     bac: 00 00        	<unknown>
     bae: 0a 00        	<unknown>
     bb0: 90 00        	<unknown>
     bb2: 00 00        	<unknown>
     bb4: 5e 05        	<unknown>
		...
     bbe: 0b 00 7b 00  	<unknown>
     bc2: 00 00        	<unknown>
     bc4: 44 62        	<unknown>
     bc6: 00 80        	<unknown>
     bc8: 00 00        	<unknown>
     bca: 00 00        	<unknown>
     bcc: 00 00        	<unknown>
     bce: 04 00        	<unknown>
		...
     bdc: 04 00        	<unknown>
     bde: f1 ff        	<unknown>
     be0: 7e 02        	<unknown>
     be2: 00 00        	<unknown>
     be4: a4 72        	<unknown>
     be6: 00 80        	<unknown>
     be8: 00 00        	<unknown>
     bea: 00 00        	<unknown>
     bec: 00 00        	<unknown>
     bee: 05 00        	<unknown>
     bf0: 8f 02 00 00  	<unknown>
     bf4: a4 72        	<unknown>
     bf6: 00 80        	<unknown>
     bf8: 00 00        	<unknown>
     bfa: 00 00        	<unknown>
     bfc: 00 00        	<unknown>
     bfe: 05 00        	<unknown>
     c00: 9c 02        	<unknown>
     c02: 00 00        	<unknown>
     c04: a4 72        	<unknown>
     c06: 00 80        	<unknown>
     c08: 00 00        	<unknown>
     c0a: 00 00        	<unknown>
     c0c: 00 00        	<unknown>
     c0e: 05 00        	<unknown>
     c10: af 02 00 00  	<unknown>
     c14: a4 72        	<unknown>
     c16: 00 80        	<unknown>
     c18: 00 00        	<unknown>
     c1a: 00 00        	<unknown>
     c1c: 00 00        	<unknown>
     c1e: 04 00        	<unknown>
     c20: bd 02        	<unknown>
     c22: 00 00        	<unknown>
     c24: a4 72        	<unknown>
     c26: 00 80        	<unknown>
     c28: 00 00        	<unknown>
     c2a: 00 00        	<unknown>
     c2c: 00 00        	<unknown>
     c2e: 05 00        	<unknown>
     c30: ce 02        	<unknown>
		...
     c3e: f1 ff        	<unknown>
     c40: dc 02        	<unknown>
     c42: 00 00        	<unknown>
     c44: a4 72        	<unknown>
     c46: 00 80        	<unknown>
     c48: 00 00        	<unknown>
     c4a: 00 00        	<unknown>
     c4c: 00 00        	<unknown>
     c4e: 05 00        	<unknown>
     c50: f0 02        	<unknown>
     c52: 00 00        	<unknown>
     c54: ac 72        	<unknown>
     c56: 00 80        	<unknown>
     c58: 00 00        	<unknown>
     c5a: 00 00        	<unknown>
     c5c: 01 00        	<unknown>
     c5e: 06 00        	<unknown>
     c60: 06 03        	<unknown>
     c62: 00 00        	<unknown>
     c64: a4 72        	<unknown>
     c66: 00 80        	<unknown>
     c68: 00 00        	<unknown>
     c6a: 00 00        	<unknown>
     c6c: 00 00        	<unknown>
     c6e: 05 00        	<unknown>
     c70: 19 03        	<unknown>
     c72: 00 00        	<unknown>
     c74: a4 72        	<unknown>
     c76: 00 80        	<unknown>
     c78: 00 00        	<unknown>
     c7a: 00 00        	<unknown>
     c7c: 00 00        	<unknown>
     c7e: 05 00        	<unknown>
     c80: 2f 03 00 00  	<unknown>
     c84: 04 00        	<unknown>
     c86: 00 00        	<unknown>
     c88: 0c 00        	<unknown>
     c8a: 00 00        	<unknown>
     c8c: 16 00        	<unknown>
     c8e: 05 00        	<unknown>
     c90: 39 03        	<unknown>
     c92: 00 00        	<unknown>
     c94: 74 3f        	<unknown>
     c96: 00 80        	<unknown>
     c98: f8 00        	<unknown>
     c9a: 00 00        	<unknown>
     c9c: 12 02        	<unknown>
     c9e: 02 00        	<unknown>
     ca0: 42 03        	<unknown>
     ca2: 00 00        	<unknown>
     ca4: 74 3f        	<unknown>
     ca6: 00 80        	<unknown>
     ca8: f8 00        	<unknown>
     caa: 00 00        	<unknown>
     cac: 12 02        	<unknown>
     cae: 02 00        	<unknown>
     cb0: 4a 03        	<unknown>
     cb2: 00 00        	<unknown>
     cb4: 10 00        	<unknown>
     cb6: 00 00        	<unknown>
     cb8: 0c 00        	<unknown>
     cba: 00 00        	<unknown>
     cbc: 16 00        	<unknown>
     cbe: 05 00        	<unknown>
     cc0: 53 03 00 00  	fadd.s	ft6, ft0, ft0, rne
     cc4: 6c 40        	<unknown>
     cc6: 00 80        	<unknown>
     cc8: f8 00        	<unknown>
     cca: 00 00        	<unknown>
     ccc: 12 02        	<unknown>
     cce: 02 00        	<unknown>
     cd0: 5b 03 00 00  	<unknown>
     cd4: 94 00        	<unknown>
     cd6: 00 80        	<unknown>
     cd8: 94 01        	<unknown>
     cda: 00 00        	<unknown>
     cdc: 12 00        	<unknown>
     cde: 02 00        	<unknown>
     ce0: 7a 03        	<unknown>
     ce2: 00 00        	<unknown>
     ce4: c0 72        	<unknown>
     ce6: 00 80        	<unknown>
     ce8: 00 00        	<unknown>
     cea: 00 00        	<unknown>
     cec: 10 00        	<unknown>
     cee: 07 00 8a 03  	<unknown>
     cf2: 00 00        	<unknown>
     cf4: 84 2d        	<unknown>
     cf6: 00 80        	<unknown>
     cf8: 3c 05        	<unknown>
     cfa: 00 00        	<unknown>
     cfc: 12 00        	<unknown>
     cfe: 02 00        	<unknown>
     d00: 91 03        	<unknown>
     d02: 00 00        	<unknown>
     d04: d4 4c        	<unknown>
     d06: 00 80        	<unknown>
     d08: 04 01        	<unknown>
     d0a: 00 00        	<unknown>
     d0c: 12 02        	<unknown>
     d0e: 02 00        	<unknown>
     d10: 9d 03        	<unknown>
     d12: 00 00        	<unknown>
     d14: 74 3f        	<unknown>
     d16: 00 80        	<unknown>
     d18: f8 00        	<unknown>
     d1a: 00 00        	<unknown>
     d1c: 12 02        	<unknown>
     d1e: 02 00        	<unknown>
     d20: a5 03        	<unknown>
     d22: 00 00        	<unknown>
     d24: a4 7a        	<unknown>
     d26: 00 80        	<unknown>
     d28: 00 00        	<unknown>
     d2a: 00 00        	<unknown>
     d2c: 10 00        	<unknown>
     d2e: f1 ff        	<unknown>
     d30: b6 03        	<unknown>
     d32: 00 00        	<unknown>
     d34: 98 06        	<unknown>
     d36: 00 80        	<unknown>
     d38: 20 04        	<unknown>
     d3a: 00 00        	<unknown>
     d3c: 12 00        	<unknown>
     d3e: 02 00        	<unknown>
     d40: c7 03 00 00  	fmsub.s	ft7, ft0, ft0, ft0, rne
     d44: 34 4c        	<unknown>
     d46: 00 80        	<unknown>
     d48: a0 00        	<unknown>
     d4a: 00 00        	<unknown>
     d4c: 12 02        	<unknown>
     d4e: 02 00        	<unknown>
     d50: d4 03        	<unknown>
     d52: 00 00        	<unknown>
     d54: 34 34        	<unknown>
     d56: 00 80        	<unknown>
     d58: 40 0b        	<unknown>
     d5a: 00 00        	<unknown>
     d5c: 12 02        	<unknown>
     d5e: 02 00        	<unknown>
     d60: dd 03        	<unknown>
     d62: 00 00        	<unknown>
     d64: 20 5b        	<unknown>
     d66: 00 80        	<unknown>
     d68: 48 03        	<unknown>
     d6a: 00 00        	<unknown>
     d6c: 12 02        	<unknown>
     d6e: 02 00        	<unknown>
     d70: e7 03 00 00  	jalr	t2, zero <.symtab>
     d74: f4 02        	<unknown>
     d76: 00 80        	<unknown>
     d78: 94 00        	<unknown>
     d7a: 00 00        	<unknown>
     d7c: 12 00        	<unknown>
     d7e: 02 00        	<unknown>
     d80: f9 03        	<unknown>
     d82: 00 00        	<unknown>
     d84: 44 02        	<unknown>
     d86: 00 80        	<unknown>
     d88: 00 00        	<unknown>
     d8a: 00 00        	<unknown>
     d8c: 12 00        	<unknown>
     d8e: 02 00        	<unknown>
     d90: ff 03 00 00  	<unknown>
     d94: bc 57        	<unknown>
     d96: 00 80        	<unknown>
     d98: 64 03        	<unknown>
     d9a: 00 00        	<unknown>
     d9c: 12 02        	<unknown>
     d9e: 02 00        	<unknown>
     da0: 09 04        	<unknown>
     da2: 00 00        	<unknown>
     da4: d8 4d        	<unknown>
     da6: 00 80        	<unknown>
     da8: ec 00        	<unknown>
     daa: 00 00        	<unknown>
     dac: 12 02        	<unknown>
     dae: 02 00        	<unknown>
     db0: 17 04 00 00  	auipc	s0, 0x0
     db4: b0 02        	<unknown>
     db6: 00 80        	<unknown>
     db8: 44 00        	<unknown>
     dba: 00 00        	<unknown>
     dbc: 12 00        	<unknown>
     dbe: 02 00        	<unknown>
     dc0: 22 04        	<unknown>
     dc2: 00 00        	<unknown>
     dc4: 5c 73        	<unknown>
     dc6: 00 80        	<unknown>
     dc8: 0c 00        	<unknown>
     dca: 00 00        	<unknown>
     dcc: 11 00        	<unknown>
     dce: 09 00        	<unknown>
     dd0: 2b 04 00 00  	vx_tex	s0, zero, zero, zero
     dd4: 4c 0d        	<unknown>
     dd6: 00 80        	<unknown>
     dd8: 00 00        	<unknown>
     dda: 00 00        	<unknown>
     ddc: 12 00        	<unknown>
     dde: 02 00        	<unknown>
     de0: 35 04        	<unknown>
     de2: 00 00        	<unknown>
     de4: 58 73        	<unknown>
     de6: 00 80        	<unknown>
     de8: 04 00        	<unknown>
     dea: 00 00        	<unknown>
     dec: 11 00        	<unknown>
     dee: 08 00        	<unknown>
     df0: 47 04 00 00  	fmsub.s	fs0, ft0, ft0, ft0, rne
     df4: ec 0c        	<unknown>
     df6: 00 80        	<unknown>
     df8: 60 00        	<unknown>
     dfa: 00 00        	<unknown>
     dfc: 12 00        	<unknown>
     dfe: 02 00        	<unknown>
     e00: 51 04        	<unknown>
     e02: 00 00        	<unknown>
     e04: 88 03        	<unknown>
     e06: 00 80        	<unknown>
     e08: 5c 00        	<unknown>
     e0a: 00 00        	<unknown>
     e0c: 12 02        	<unknown>
     e0e: 02 00        	<unknown>
     e10: 61 04        	<unknown>
     e12: 00 00        	<unknown>
     e14: 60 4b        	<unknown>
     e16: 00 80        	<unknown>
     e18: d4 00        	<unknown>
     e1a: 00 00        	<unknown>
     e1c: 12 02        	<unknown>
     e1e: 02 00        	<unknown>
     e20: 6b 04 00 00  	<unknown>
		...
     e2c: 10 00        	<unknown>
     e2e: f1 ff        	<unknown>
     e30: 78 04        	<unknown>
     e32: 00 00        	<unknown>
     e34: 1c 00        	<unknown>
     e36: 00 00        	<unknown>
     e38: 00 00        	<unknown>
     e3a: 00 00        	<unknown>
     e3c: 10 00        	<unknown>
     e3e: f1 ff        	<unknown>
     e40: 84 04        	<unknown>
     e42: 00 00        	<unknown>
     e44: 74 3f        	<unknown>
     e46: 00 80        	<unknown>
     e48: f8 00        	<unknown>
     e4a: 00 00        	<unknown>
     e4c: 12 02        	<unknown>
     e4e: 02 00        	<unknown>
     e50: b6 02        	<unknown>
     e52: 00 00        	<unknown>
     e54: 00 00        	<unknown>
     e56: 00 80        	<unknown>
     e58: 70 00        	<unknown>
     e5a: 00 00        	<unknown>
     e5c: 12 00        	<unknown>
     e5e: 01 00        	<unknown>
     e60: 8c 04        	<unknown>
     e62: 00 00        	<unknown>
     e64: 68 73        	<unknown>
     e66: 00 80        	<unknown>
     e68: 0c 00        	<unknown>
     e6a: 00 00        	<unknown>
     e6c: 11 00        	<unknown>
     e6e: 09 00        	<unknown>
     e70: 94 04        	<unknown>
     e72: 00 00        	<unknown>
     e74: 64 41        	<unknown>
     e76: 00 80        	<unknown>
     e78: fc 09        	<unknown>
     e7a: 00 00        	<unknown>
     e7c: 12 02        	<unknown>
     e7e: 02 00        	<unknown>
     e80: 9d 04        	<unknown>
     e82: 00 00        	<unknown>
     e84: 74 73        	<unknown>
     e86: 00 80        	<unknown>
     e88: 00 00        	<unknown>
     e8a: 00 00        	<unknown>
     e8c: 10 00        	<unknown>
     e8e: 09 00        	<unknown>
     e90: a9 04        	<unknown>
     e92: 00 00        	<unknown>
     e94: c4 4e        	<unknown>
     e96: 00 80        	<unknown>
     e98: ec 08        	<unknown>
     e9a: 00 00        	<unknown>
     e9c: 12 02        	<unknown>
     e9e: 02 00        	<unknown>
     ea0: b2 04        	<unknown>
     ea2: 00 00        	<unknown>
     ea4: 58 73        	<unknown>
     ea6: 00 80        	<unknown>
     ea8: 00 00        	<unknown>
     eaa: 00 00        	<unknown>
     eac: 10 00        	<unknown>
     eae: 08 00        	<unknown>
     eb0: be 04        	<unknown>
     eb2: 00 00        	<unknown>
     eb4: c0 32        	<unknown>
     eb6: 00 80        	<unknown>
     eb8: 74 01        	<unknown>
     eba: 00 00        	<unknown>
     ebc: 12 00        	<unknown>
     ebe: 02 00        	<unknown>
     ec0: c5 04        	<unknown>
     ec2: 00 00        	<unknown>
     ec4: 28 02        	<unknown>
     ec6: 00 80        	<unknown>
     ec8: 1c 00        	<unknown>
     eca: 00 00        	<unknown>
     ecc: 12 00        	<unknown>
     ece: 02 00        	<unknown>
     ed0: ca 04        	<unknown>
     ed2: 00 00        	<unknown>
     ed4: 34 2d        	<unknown>
     ed6: 00 80        	<unknown>
     ed8: 04 00        	<unknown>
     eda: 00 00        	<unknown>
     edc: 22 00        	<unknown>
     ede: 02 00        	<unknown>
     ee0: d7 04 00 00  	<unknown>
     ee4: 00 00        	<unknown>
     ee6: 00 00        	<unknown>
     ee8: 04 00        	<unknown>
     eea: 00 00        	<unknown>
     eec: 16 00        	<unknown>
     eee: 05 00        	<unknown>
     ef0: e8 04        	<unknown>
     ef2: 00 00        	<unknown>
     ef4: 74 3f        	<unknown>
     ef6: 00 80        	<unknown>
     ef8: f8 00        	<unknown>
     efa: 00 00        	<unknown>
     efc: 12 02        	<unknown>
     efe: 02 00        	<unknown>
     f00: 08 05        	<unknown>
     f02: 00 00        	<unknown>
     f04: 34 2d        	<unknown>
     f06: 00 80        	<unknown>
     f08: 04 00        	<unknown>
     f0a: 00 00        	<unknown>
     f0c: 22 00        	<unknown>
     f0e: 02 00        	<unknown>
     f10: f0 04        	<unknown>
     f12: 00 00        	<unknown>
     f14: 00 00        	<unknown>
     f16: 00 80        	<unknown>
     f18: 00 00        	<unknown>
     f1a: 00 00        	<unknown>
     f1c: 10 00        	<unknown>
     f1e: f1 ff        	<unknown>
     f20: fd 04        	<unknown>
     f22: 00 00        	<unknown>
     f24: 38 2d        	<unknown>
     f26: 00 80        	<unknown>
     f28: 4c 00        	<unknown>
     f2a: 00 00        	<unknown>
     f2c: 22 02        	<unknown>
     f2e: 02 00        	<unknown>
     f30: 0e 05        	<unknown>
     f32: 00 00        	<unknown>
     f34: 68 5e        	<unknown>
     f36: 00 80        	<unknown>
     f38: 34 00        	<unknown>
     f3a: 00 00        	<unknown>
     f3c: 12 02        	<unknown>
     f3e: 02 00        	<unknown>
     f40: 1c 05        	<unknown>
     f42: 00 00        	<unknown>
     f44: a4 72        	<unknown>
     f46: 00 80        	<unknown>
     f48: 00 00        	<unknown>
     f4a: 00 00        	<unknown>
     f4c: 10 00        	<unknown>
     f4e: 05 00        	<unknown>
     f50: 2b 05 00 00  	vx_tex	a0, zero, zero, zero
     f54: 58 73        	<unknown>
     f56: 00 80        	<unknown>
     f58: 00 00        	<unknown>
     f5a: 00 00        	<unknown>
     f5c: 10 00        	<unknown>
     f5e: 07 00 8a 02  	<unknown>
     f62: 00 00        	<unknown>
     f64: 74 73        	<unknown>
     f66: 00 80        	<unknown>
     f68: 00 00        	<unknown>
     f6a: 00 00        	<unknown>
     f6c: 10 00        	<unknown>
     f6e: 09 00        	<unknown>
     f70: 5c 04        	<unknown>
     f72: 00 00        	<unknown>
     f74: 70 00        	<unknown>
     f76: 00 80        	<unknown>
     f78: 24 00        	<unknown>
     f7a: 00 00        	<unknown>
     f7c: 12 00        	<unknown>
     f7e: 02 00        	<unknown>
     f80: 32 05        	<unknown>
     f82: 00 00        	<unknown>
     f84: b8 0a        	<unknown>
     f86: 00 80        	<unknown>
     f88: 00 02        	<unknown>
     f8a: 00 00        	<unknown>
     f8c: 12 00        	<unknown>
     f8e: 02 00        	<unknown>
     f90: 3f 05 00 00  	<unknown>
     f94: 6c 40        	<unknown>
     f96: 00 80        	<unknown>
     f98: f8 00        	<unknown>
     f9a: 00 00        	<unknown>
     f9c: 12 02        	<unknown>
     f9e: 02 00        	<unknown>
     fa0: 47 05 00 00  	fmsub.s	fa0, ft0, ft0, ft0, rne
     fa4: b0 57        	<unknown>
     fa6: 00 80        	<unknown>
     fa8: 0c 00        	<unknown>
     faa: 00 00        	<unknown>
     fac: 12 02        	<unknown>
     fae: 02 00        	<unknown>
     fb0: 50 05        	<unknown>
     fb2: 00 00        	<unknown>
     fb4: e4 03        	<unknown>
     fb6: 00 80        	<unknown>
     fb8: 00 00        	<unknown>
     fba: 00 00        	<unknown>
     fbc: 12 00        	<unknown>
     fbe: 02 00        	<unknown>
     fc0: 5b 05 00 00  	<unknown>
     fc4: 9c 5e        	<unknown>
     fc6: 00 80        	<unknown>
     fc8: 0c 00        	<unknown>
     fca: 00 00        	<unknown>
     fcc: 12 02        	<unknown>
     fce: 02 00        	<unknown>
     fd0: 6e 05        	<unknown>
     fd2: 00 00        	<unknown>
     fd4: 04 2d        	<unknown>
     fd6: 00 80        	<unknown>
     fd8: 30 00        	<unknown>
     fda: 00 00        	<unknown>
     fdc: 12 00        	<unknown>
     fde: 02 00        	<unknown>

Disassembly of section .strtab:

00000000 <.strtab>:
       0: 00 76        	<unknown>
       2: 78 5f        	<unknown>
       4: 73 74 61 72  	csrrci	s0, mhpmevent6h, 0x2
       8: 74 2e        	<unknown>
       a: 53 2e 6f 00  	fadd.s	ft8, ft10, ft6, rdn
       e: 24 78        	<unknown>
      10: 72 76        	<unknown>
      12: 33 32 69 32  	<unknown>
      16: 70 31        	<unknown>
      18: 5f 6d 32 70  	<unknown>
      1c: 30 5f        	<unknown>
      1e: 61 32        	<unknown>
      20: 70 31        	<unknown>
      22: 5f 66 32 70  	<unknown>
      26: 32 5f        	<unknown>
      28: 7a 69        	<unknown>
      2a: 63 73 72 32  	bgeu	tp, t2, 0x350 <.symtab+0x350>
      2e: 70 30        	<unknown>
      30: 5f 7a 6d 6d  	<unknown>
      34: 75 6c        	<unknown>
      36: 31 70        	<unknown>
      38: 30 00        	<unknown>
      3a: 69 6e        	<unknown>
      3c: 69 74        	<unknown>
      3e: 5f 72 65 67  	<unknown>
      42: 73 5f 61 6c  	csrrwi	t5, 0x6c6, 0x2
      46: 6c 00        	<unknown>
      48: 69 6e        	<unknown>
      4a: 69 74        	<unknown>
      4c: 5f 72 65 67  	<unknown>
      50: 73 00 69 6e  	<unknown>
      54: 69 74        	<unknown>
      56: 5f 74 6c 73  	<unknown>
      5a: 5f 61 6c 6c  	<unknown>
      5e: 00 65        	<unknown>
      60: 78 69        	<unknown>
      62: 74 2e        	<unknown>
      64: 63 00 64 75  	beq	s0, s6, 0x7a4 <.symtab+0x7a4>
      68: 6d 6d        	<unknown>
      6a: 79 00        	<unknown>
      6c: 24 78        	<unknown>
      6e: 2e 30        	<unknown>
      70: 00 24        	<unknown>
      72: 78 2e        	<unknown>
      74: 31 00        	<unknown>
      76: 24 78        	<unknown>
      78: 2e 32        	<unknown>
      7a: 00 24        	<unknown>
      7c: 64 2e        	<unknown>
      7e: 33 00 24 64  	<unknown>
      82: 2e 34        	<unknown>
      84: 00 6b        	<unknown>
      86: 65 72        	<unknown>
      88: 6e 65        	<unknown>
      8a: 6c 2e        	<unknown>
      8c: 63 70 70 00  	bgeu	zero, t2, 0x8c <.symtab+0x8c>
      90: 24 64        	<unknown>
      92: 2e 32        	<unknown>
      94: 00 76        	<unknown>
      96: 78 5f        	<unknown>
      98: 73 79 73 63  	csrrci	s2, 0x637, 0x6
      9c: 61 6c        	<unknown>
      9e: 6c 73        	<unknown>
      a0: 2e 63        	<unknown>
      a2: 00 76        	<unknown>
      a4: 78 5f        	<unknown>
      a6: 70 72        	<unknown>
      a8: 69 6e        	<unknown>
      aa: 74 2e        	<unknown>
      ac: 53 2e 6f 00  	fadd.s	ft8, ft10, ft6, rdn
      b0: 76 78        	<unknown>
      b2: 5f 73 70 61  	<unknown>
      b6: 77 6e 2e 63  	<unknown>
      ba: 00 70        	<unknown>
      bc: 72 6f        	<unknown>
      be: 63 65 73 73  	bltu	t1, s7, 0x7e8 <.symtab+0x7e8>
      c2: 5f 74 68 72  	<unknown>
      c6: 65 61        	<unknown>
      c8: 64 73        	<unknown>
      ca: 00 70        	<unknown>
      cc: 72 6f        	<unknown>
      ce: 63 65 73 73  	bltu	t1, s7, 0x7f8 <.symtab+0x7f8>
      d2: 5f 72 65 6d  	<unknown>
      d6: 61 69        	<unknown>
      d8: 6e 69        	<unknown>
      da: 6e 67        	<unknown>
      dc: 5f 74 68 72  	<unknown>
      e0: 65 61        	<unknown>
      e2: 64 73        	<unknown>
      e4: 00 70        	<unknown>
      e6: 72 6f        	<unknown>
      e8: 63 65 73 73  	bltu	t1, s7, 0x812 <.symtab+0x812>
      ec: 5f 74 68 72  	<unknown>
      f0: 65 61        	<unknown>
      f2: 64 73        	<unknown>
      f4: 5f 73 74 75  	<unknown>
      f8: 62 00        	<unknown>
      fa: 70 72        	<unknown>
      fc: 6f 63 65 73  	jal	t1, 0x56832 <.symtab+0x56832>
     100: 73 5f 74 68  	csrrwi	t5, 0x687, 0x8
     104: 72 65        	<unknown>
     106: 61 64        	<unknown>
     108: 5f 67 72 6f  	<unknown>
     10c: 75 70        	<unknown>
     10e: 73 00 70 72  	<unknown>
     112: 6f 63 65 73  	jal	t1, 0x56848 <.symtab+0x56848>
     116: 73 5f 74 68  	csrrwi	t5, 0x687, 0x8
     11a: 72 65        	<unknown>
     11c: 61 64        	<unknown>
     11e: 5f 67 72 6f  	<unknown>
     122: 75 70        	<unknown>
     124: 73 5f 73 74  	csrrwi	t5, mseccfg, 0x6
     128: 75 62        	<unknown>
     12a: 00 76        	<unknown>
     12c: 78 5f        	<unknown>
     12e: 70 65        	<unknown>
     130: 72 66        	<unknown>
     132: 2e 63        	<unknown>
     134: 00 76        	<unknown>
     136: 78 5f        	<unknown>
     138: 70 72        	<unknown>
     13a: 69 6e        	<unknown>
     13c: 74 2e        	<unknown>
     13e: 63 00 5f 5f  	beq	t5, s5, 0x71e <.symtab+0x71e>
     142: 76 70        	<unknown>
     144: 72 69        	<unknown>
     146: 6e 74        	<unknown>
     148: 66 5f        	<unknown>
     14a: 63 62 00 76  	bltu	zero, zero, 0x8ae <.symtab+0x8ae>
     14e: 78 5f        	<unknown>
     150: 73 65 72 69  	csrrsi	a0, 0x697, 0x4
     154: 61 6c        	<unknown>
     156: 2e 53        	<unknown>
     158: 2e 6f        	<unknown>
     15a: 00 6c        	<unknown>
     15c: 61 62        	<unknown>
     15e: 65 6c        	<unknown>
     160: 5f 6c 6f 6f  	<unknown>
     164: 70 00        	<unknown>
     166: 6c 61        	<unknown>
     168: 62 65        	<unknown>
     16a: 6c 5f        	<unknown>
     16c: 6a 6f        	<unknown>
     16e: 69 6e        	<unknown>
     170: 00 74        	<unknown>
     172: 69 6e        	<unknown>
     174: 79 70        	<unknown>
     176: 72 69        	<unknown>
     178: 6e 74        	<unknown>
     17a: 66 2e        	<unknown>
     17c: 63 00 5f 6f  	beq	t5, s5, 0x85c <.symtab+0x85c>
     180: 75 74        	<unknown>
     182: 5f 6e 75 6c  	<unknown>
     186: 6c 00        	<unknown>
     188: 5f 6f 75 74  	<unknown>
     18c: 5f 72 65 76  	<unknown>
     190: 00 5f        	<unknown>
     192: 6e 74        	<unknown>
     194: 6f 61 5f 66  	jal	sp, 0xf6ff8 <.symtab+0xf6ff8>
     198: 6f 72 6d 61  	jal	tp, 0xd77ae <.symtab+0xd77ae>
     19c: 74 00        	<unknown>
     19e: 5f 6f 75 74  	<unknown>
     1a2: 5f 63 68 61  	<unknown>
     1a6: 72 00        	<unknown>
     1a8: 5f 65 74 6f  	<unknown>
     1ac: 61 00        	<unknown>
     1ae: 5f 66 74 6f  	<unknown>
     1b2: 61 00        	<unknown>
     1b4: 70 6f        	<unknown>
     1b6: 77 31 30 2e  	<unknown>
     1ba: 30 00        	<unknown>
     1bc: 5f 76 73 6e  	<unknown>
     1c0: 70 72        	<unknown>
     1c2: 69 6e        	<unknown>
     1c4: 74 66        	<unknown>
     1c6: 00 6d        	<unknown>
     1c8: 65 6d        	<unknown>
     1ca: 63 70 79 2e  	bgeu	s2, t2, 0x4aa <.symtab+0x4aa>
     1ce: 63 00 24 64  	beq	s0, sp, 0x80e <.symtab+0x80e>
     1d2: 2e 31        	<unknown>
     1d4: 00 6d        	<unknown>
     1d6: 65 6d        	<unknown>
     1d8: 73 65 74 2e  	csrrsi	a0, 0x2e7, 0x8
     1dc: 63 00 61 64  	beq	sp, t1, 0x81c <.symtab+0x81c>
     1e0: 64 64        	<unknown>
     1e2: 66 33        	<unknown>
     1e4: 2e 63        	<unknown>
     1e6: 00 63        	<unknown>
     1e8: 6f 6d 70 61  	jal	s10, 0x6ffe <.symtab+0x6ffe>
     1ec: 72 65        	<unknown>
     1ee: 64 66        	<unknown>
     1f0: 32 2e        	<unknown>
     1f2: 63 00 24 64  	beq	s0, sp, 0x832 <.symtab+0x832>
     1f6: 2e 35        	<unknown>
     1f8: 00 64        	<unknown>
     1fa: 69 76        	<unknown>
     1fc: 64 66        	<unknown>
     1fe: 33 2e 63 00  	slt	t3, t1, t1
     202: 66 69        	<unknown>
     204: 78 64        	<unknown>
     206: 66 73        	<unknown>
     208: 69 2e        	<unknown>
     20a: 63 00 66 69  	beq	a2, s6, 0x88a <.symtab+0x88a>
     20e: 78 75        	<unknown>
     210: 6e 73        	<unknown>
     212: 64 66        	<unknown>
     214: 73 69 2e 63  	csrrsi	s2, 0x632, 0x1c
     218: 00 66        	<unknown>
     21a: 6c 6f        	<unknown>
     21c: 61 74        	<unknown>
     21e: 73 69 64 66  	csrrsi	s2, 0x666, 0x8
     222: 2e 63        	<unknown>
     224: 00 66        	<unknown>
     226: 6c 6f        	<unknown>
     228: 61 74        	<unknown>
     22a: 75 6e        	<unknown>
     22c: 73 69 64 66  	csrrsi	s2, 0x666, 0x8
     230: 2e 63        	<unknown>
     232: 00 6d        	<unknown>
     234: 75 6c        	<unknown>
     236: 64 66        	<unknown>
     238: 33 2e 63 00  	slt	t3, t1, t1
     23c: 73 75 62 64  	csrrci	a0, hviprio1, 0x4
     240: 66 33        	<unknown>
     242: 2e 63        	<unknown>
     244: 00 75        	<unknown>
     246: 64 69        	<unknown>
     248: 76 64        	<unknown>
     24a: 69 33        	<unknown>
     24c: 2e 63        	<unknown>
     24e: 00 75        	<unknown>
     250: 6d 6f        	<unknown>
     252: 64 64        	<unknown>
     254: 69 33        	<unknown>
     256: 2e 63        	<unknown>
     258: 00 66        	<unknown>
     25a: 70 5f        	<unknown>
     25c: 6d 6f        	<unknown>
     25e: 64 65        	<unknown>
     260: 2e 63        	<unknown>
     262: 00 65        	<unknown>
     264: 78 74        	<unknown>
     266: 65 6e        	<unknown>
     268: 64 73        	<unknown>
     26a: 66 64        	<unknown>
     26c: 66 32        	<unknown>
     26e: 2e 63        	<unknown>
     270: 00 74        	<unknown>
     272: 72 75        	<unknown>
     274: 6e 63        	<unknown>
     276: 64 66        	<unknown>
     278: 73 66 32 2e  	csrrsi	a2, 0x2e3, 0x4
     27c: 63 00 5f 5f  	beq	t5, s5, 0x85c <.symtab+0x85c>
     280: 66 69        	<unknown>
     282: 6e 69        	<unknown>
     284: 5f 61 72 72  	<unknown>
     288: 61 79        	<unknown>
     28a: 5f 65 6e 64  	<unknown>
     28e: 00 5f        	<unknown>
     290: 5f 74 62 73  	<unknown>
     294: 73 5f 73 74  	csrrwi	t5, mseccfg, 0x6
     298: 61 72        	<unknown>
     29a: 74 00        	<unknown>
     29c: 5f 5f 66 69  	<unknown>
     2a0: 6e 69        	<unknown>
     2a2: 5f 61 72 72  	<unknown>
     2a6: 61 79        	<unknown>
     2a8: 5f 73 74 61  	<unknown>
     2ac: 72 74        	<unknown>
     2ae: 00 5f        	<unknown>
     2b0: 5f 74 64 61  	<unknown>
     2b4: 74 61        	<unknown>
     2b6: 5f 73 74 61  	<unknown>
     2ba: 72 74        	<unknown>
     2bc: 00 5f        	<unknown>
     2be: 5f 69 6e 69  	<unknown>
     2c2: 74 5f        	<unknown>
     2c4: 61 72        	<unknown>
     2c6: 72 61        	<unknown>
     2c8: 79 5f        	<unknown>
     2ca: 65 6e        	<unknown>
     2cc: 64 00        	<unknown>
     2ce: 5f 5f 74 62  	<unknown>
     2d2: 73 73 5f 6f  	csrrci	t1, 0x6f5, 0x1e
     2d6: 66 66        	<unknown>
     2d8: 73 65 74 00  	csrrsi	a0, 0x7, 0x8
     2dc: 5f 5f 70 72  	<unknown>
     2e0: 65 69        	<unknown>
     2e2: 6e 69        	<unknown>
     2e4: 74 5f        	<unknown>
     2e6: 61 72        	<unknown>
     2e8: 72 61        	<unknown>
     2ea: 79 5f        	<unknown>
     2ec: 65 6e        	<unknown>
     2ee: 64 00        	<unknown>
     2f0: 5f 47 4c 4f  	<unknown>
     2f4: 42 41        	<unknown>
     2f6: 4c 5f        	<unknown>
     2f8: 4f 46 46 53  	<unknown>
     2fc: 45 54        	<unknown>
     2fe: 5f 54 41 42  	<unknown>
     302: 4c 45        	<unknown>
     304: 5f 00 5f 5f  	<unknown>
     308: 69 6e        	<unknown>
     30a: 69 74        	<unknown>
     30c: 5f 61 72 72  	<unknown>
     310: 61 79        	<unknown>
     312: 5f 73 74 61  	<unknown>
     316: 72 74        	<unknown>
     318: 00 5f        	<unknown>
     31a: 5f 70 72 65  	<unknown>
     31e: 69 6e        	<unknown>
     320: 69 74        	<unknown>
     322: 5f 61 72 72  	<unknown>
     326: 61 79        	<unknown>
     328: 5f 73 74 61  	<unknown>
     32c: 72 74        	<unknown>
     32e: 00 74        	<unknown>
     330: 68 72        	<unknown>
     332: 65 61        	<unknown>
     334: 64 49        	<unknown>
     336: 64 78        	<unknown>
     338: 00 5f        	<unknown>
     33a: 5f 63 6d 70  	<unknown>
     33e: 64 66        	<unknown>
     340: 32 00        	<unknown>
     342: 5f 5f 65 71  	<unknown>
     346: 64 66        	<unknown>
     348: 32 00        	<unknown>
     34a: 62 6c        	<unknown>
     34c: 6f 63 6b 49  	jal	t1, 0xb67e2 <.symtab+0xb67e2>
     350: 64 78        	<unknown>
     352: 00 5f        	<unknown>
     354: 5f 67 74 64  	<unknown>
     358: 66 32        	<unknown>
     35a: 00 5f        	<unknown>
     35c: 5a 31        	<unknown>
     35e: 31 6b        	<unknown>
     360: 65 72        	<unknown>
     362: 6e 65        	<unknown>
     364: 6c 5f        	<unknown>
     366: 62 6f        	<unknown>
     368: 64 79        	<unknown>
     36a: 50 31        	<unknown>
     36c: 32 6b        	<unknown>
     36e: 65 72        	<unknown>
     370: 6e 65        	<unknown>
     372: 6c 5f        	<unknown>
     374: 61 72        	<unknown>
     376: 67 5f 74 00  	<unknown>
     37a: 5f 5f 53 44  	<unknown>
     37e: 41 54        	<unknown>
     380: 41 5f        	<unknown>
     382: 42 45        	<unknown>
     384: 47 49 4e 5f  	<unknown>
     388: 5f 00 6d 65  	<unknown>
     38c: 6d 63        	<unknown>
     38e: 70 79        	<unknown>
     390: 00 5f        	<unknown>
     392: 5f 66 6c 6f  	<unknown>
     396: 61 74        	<unknown>
     398: 73 69 64 66  	csrrsi	s2, 0x666, 0x8
     39c: 00 5f        	<unknown>
     39e: 5f 6c 74 64  	<unknown>
     3a2: 66 32        	<unknown>
     3a4: 00 5f        	<unknown>
     3a6: 5f 67 6c 6f  	<unknown>
     3aa: 62 61        	<unknown>
     3ac: 6c 5f        	<unknown>
     3ae: 70 6f        	<unknown>
     3b0: 69 6e        	<unknown>
     3b2: 74 65        	<unknown>
     3b4: 72 00        	<unknown>
     3b6: 76 78        	<unknown>
     3b8: 5f 73 70 61  	<unknown>
     3bc: 77 6e 5f 74  	<unknown>
     3c0: 68 72        	<unknown>
     3c2: 65 61        	<unknown>
     3c4: 64 73        	<unknown>
     3c6: 00 5f        	<unknown>
     3c8: 5f 66 69 78  	<unknown>
     3cc: 75 6e        	<unknown>
     3ce: 73 64 66 73  	csrrsi	s0, mhpmevent22h, 0xc
     3d2: 69 00        	<unknown>
     3d4: 5f 5f 61 64  	<unknown>
     3d8: 64 64        	<unknown>
     3da: 66 33        	<unknown>
     3dc: 00 5f        	<unknown>
     3de: 5f 75 6d 6f  	<unknown>
     3e2: 64 64        	<unknown>
     3e4: 69 33        	<unknown>
     3e6: 00 5f        	<unknown>
     3e8: 5f 6c 69 62  	<unknown>
     3ec: 63 5f 69 6e  	bge	s2, t1, 0xaea <.symtab+0xaea>
     3f0: 69 74        	<unknown>
     3f2: 5f 61 72 72  	<unknown>
     3f6: 61 79        	<unknown>
     3f8: 00 5f        	<unknown>
     3fa: 45 78        	<unknown>
     3fc: 69 74        	<unknown>
     3fe: 00 5f        	<unknown>
     400: 5f 75 64 69  	<unknown>
     404: 76 64        	<unknown>
     406: 69 33        	<unknown>
     408: 00 5f        	<unknown>
     40a: 5f 66 6c 6f  	<unknown>
     40e: 61 74        	<unknown>
     410: 75 6e        	<unknown>
     412: 73 69 64 66  	csrrsi	s2, 0x666, 0x8
     416: 00 5f        	<unknown>
     418: 5f 69 6e 69  	<unknown>
     41c: 74 5f        	<unknown>
     41e: 74 6c        	<unknown>
     420: 73 00 62 6c  	<unknown>
     424: 6f 63 6b 44  	jal	t1, 0xb686a <.symtab+0xb686a>
     428: 69 6d        	<unknown>
     42a: 00 76        	<unknown>
     42c: 78 5f        	<unknown>
     42e: 73 65 72 69  	csrrsi	a0, 0x697, 0x4
     432: 61 6c        	<unknown>
     434: 00 5f        	<unknown>
     436: 5f 77 61 72  	<unknown>
     43a: 70 73        	<unknown>
     43c: 5f 70 65 72  	<unknown>
     440: 5f 67 72 6f  	<unknown>
     444: 75 70        	<unknown>
     446: 00 76        	<unknown>
     448: 78 5f        	<unknown>
     44a: 70 72        	<unknown>
     44c: 69 6e        	<unknown>
     44e: 74 66        	<unknown>
     450: 00 5f        	<unknown>
     452: 5f 66 75 6e  	<unknown>
     456: 63 73 5f 6f  	bgeu	t5, s5, 0xb3c <.symtab+0xb3c>
     45a: 6e 5f        	<unknown>
     45c: 65 78        	<unknown>
     45e: 69 74        	<unknown>
     460: 00 5f        	<unknown>
     462: 5f 66 69 78  	<unknown>
     466: 64 66        	<unknown>
     468: 73 69 00 5f  	csrrsi	s2, 0x5f0, 0x0
     46c: 5f 74 64 61  	<unknown>
     470: 74 61        	<unknown>
     472: 5f 73 69 7a  	<unknown>
     476: 65 00        	<unknown>
     478: 5f 5f 74 62  	<unknown>
     47c: 73 73 5f 73  	csrrci	t1, mhpmevent21h, 0x1e
     480: 69 7a        	<unknown>
     482: 65 00        	<unknown>
     484: 5f 5f 6c 65  	<unknown>
     488: 64 66        	<unknown>
     48a: 32 00        	<unknown>
     48c: 67 72 69 64  	<unknown>
     490: 44 69        	<unknown>
     492: 6d 00        	<unknown>
     494: 5f 5f 64 69  	<unknown>
     498: 76 64        	<unknown>
     49a: 66 33        	<unknown>
     49c: 00 5f        	<unknown>
     49e: 5f 42 53 53  	<unknown>
     4a2: 5f 45 4e 44  	<unknown>
     4a6: 5f 5f 00 5f  	<unknown>
     4aa: 5f 6d 75 6c  	<unknown>
     4ae: 64 66        	<unknown>
     4b0: 33 00 5f 5f  	<unknown>
     4b4: 62 73        	<unknown>
     4b6: 73 5f 73 74  	csrrwi	t5, mseccfg, 0x6
     4ba: 61 72        	<unknown>
     4bc: 74 00        	<unknown>
     4be: 6d 65        	<unknown>
     4c0: 6d 73        	<unknown>
     4c2: 65 74        	<unknown>
     4c4: 00 6d        	<unknown>
     4c6: 61 69        	<unknown>
     4c8: 6e 00        	<unknown>
     4ca: 5f 5f 73 74  	<unknown>
     4ce: 64 69        	<unknown>
     4d0: 6f 5f 65 78  	jal	t5, 0x55c56 <.symtab+0x55c56>
     4d4: 69 74        	<unknown>
     4d6: 00 5f        	<unknown>
     4d8: 5f 6c 6f 63  	<unknown>
     4dc: 61 6c        	<unknown>
     4de: 5f 67 72 6f  	<unknown>
     4e2: 75 70        	<unknown>
     4e4: 5f 69 64 00  	<unknown>
     4e8: 5f 5f 6e 65  	<unknown>
     4ec: 64 66        	<unknown>
     4ee: 32 00        	<unknown>
     4f0: 53 54 41 52  	<unknown>
     4f4: 54 55        	<unknown>
     4f6: 50 5f        	<unknown>
     4f8: 41 44        	<unknown>
     4fa: 44 52        	<unknown>
     4fc: 00 5f        	<unknown>
     4fe: 5f 6c 69 62  	<unknown>
     502: 63 5f 65 78  	bge	a0, t1, 0xca0 <.symtab+0xca0>
     506: 69 74        	<unknown>
     508: 5f 66 69 6e  	<unknown>
     50c: 69 00        	<unknown>
     50e: 5f 5f 66 65  	<unknown>
     512: 5f 67 65 74  	<unknown>
     516: 72 6f        	<unknown>
     518: 75 6e        	<unknown>
     51a: 64 00        	<unknown>
     51c: 5f 5f 44 41  	<unknown>
     520: 54 41        	<unknown>
     522: 5f 42 45 47  	<unknown>
     526: 49 4e        	<unknown>
     528: 5f 5f 00 5f  	<unknown>
     52c: 65 64        	<unknown>
     52e: 61 74        	<unknown>
     530: 61 00        	<unknown>
     532: 76 78        	<unknown>
     534: 5f 70 65 72  	<unknown>
     538: 66 5f        	<unknown>
     53a: 64 75        	<unknown>
     53c: 6d 70        	<unknown>
     53e: 00 5f        	<unknown>
     540: 5f 67 65 64  	<unknown>
     544: 66 32        	<unknown>
     546: 00 5f        	<unknown>
     548: 5f 73 75 62  	<unknown>
     54c: 64 66        	<unknown>
     54e: 33 00 76 78  	<unknown>
     552: 5f 70 75 74  	<unknown>
     556: 63 68 61 72  	bltu	sp, t1, 0xc86 <.symtab+0xc86>
     55a: 00 5f        	<unknown>
     55c: 5f 66 65 5f  	<unknown>
     560: 72 61        	<unknown>
     562: 69 73        	<unknown>
     564: 65 5f        	<unknown>
     566: 69 6e        	<unknown>
     568: 65 78        	<unknown>
     56a: 61 63        	<unknown>
     56c: 74 00        	<unknown>
     56e: 74 69        	<unknown>
     570: 6e 79        	<unknown>
     572: 5f 76 70 72  	<unknown>
     576: 69 6e        	<unknown>
     578: 74 66        	<unknown>
     57a: 00           	<unknown>

Disassembly of section .shstrtab:

00000000 <.shstrtab>:
       0: 00 2e        	<unknown>
       2: 73 79 6d 74  	csrrci	s2, 0x746, 0x1a
       6: 61 62        	<unknown>
       8: 00 2e        	<unknown>
       a: 73 74 72 74  	csrrci	s0, mseccfg, 0x4
       e: 61 62        	<unknown>
      10: 00 2e        	<unknown>
      12: 73 68 73 74  	csrrsi	a6, mseccfg, 0x6
      16: 72 74        	<unknown>
      18: 61 62        	<unknown>
      1a: 00 2e        	<unknown>
      1c: 69 6e        	<unknown>
      1e: 69 74        	<unknown>
      20: 00 2e        	<unknown>
      22: 74 65        	<unknown>
      24: 78 74        	<unknown>
      26: 00 2e        	<unknown>
      28: 72 6f        	<unknown>
      2a: 64 61        	<unknown>
      2c: 74 61        	<unknown>
      2e: 00 2e        	<unknown>
      30: 65 68        	<unknown>
      32: 5f 66 72 61  	<unknown>
      36: 6d 65        	<unknown>
      38: 00 2e        	<unknown>
      3a: 74 62        	<unknown>
      3c: 73 73 00 2e  	csrrci	t1, 0x2e0, 0x0
      40: 67 6f 74 00  	<unknown>
      44: 2e 73        	<unknown>
      46: 64 61        	<unknown>
      48: 74 61        	<unknown>
      4a: 00 2e        	<unknown>
      4c: 73 62 73 73  	csrrsi	tp, mhpmevent23h, 0x6
      50: 00 2e        	<unknown>
      52: 62 73        	<unknown>
      54: 73 00 2e 63  	<unknown>
      58: 6f 6d 6d 65  	jal	s10, 0xd66ae <.symtab+0xd66ae>
      5c: 6e 74        	<unknown>
      5e: 00 2e        	<unknown>
      60: 72 69        	<unknown>
      62: 73 63 76 2e  	csrrsi	t1, 0x2e7, 0xc
      66: 61 74        	<unknown>
      68: 74 72        	<unknown>
      6a: 69 62        	<unknown>
      6c: 75 74        	<unknown>
      6e: 65 73        	<unknown>
      70: 00           	<unknown>
